Archive member included because of file (symbol)

m68k/m68k.oa(m68kcpu.o)       obj/state.o (m68k_get_reg)
m68k/m68k.oa(m68kops.o)       m68k/m68k.oa(m68kcpu.o) (m68ki_build_opcode_table)
m68k/m68k.oa(m68kopdm.o)      m68k/m68k.oa(m68kops.o) (m68k_op_dbt_16)
m68k/m68k.oa(m68kopac.o)      m68k/m68k.oa(m68kops.o) (m68k_op_1010)
m68k/m68k.oa(m68kopnz.o)      m68k/m68k.oa(m68kops.o) (m68k_op_nbcd_8_d)
C:/Dev/msys/lib\libz.a(inflate.o)
                              obj/unzip.o (inflateInit2_)
C:/Dev/msys/lib\libz.a(crc32.o)
                              obj/unzip.o (crc32)
C:/Dev/msys/lib\libz.a(gzlib.o)
                              obj/fileio.o (gzopen)
C:/Dev/msys/lib\libz.a(gzread.o)
                              obj/fileio.o (gzread)
C:/Dev/msys/lib\libz.a(gzclose.o)
                              obj/fileio.o (gzclose)
C:/Dev/msys/lib\libz.a(gzwrite.o)
                              obj/state.o (gzwrite)
C:/Dev/msys/lib\libz.a(zutil.o)
                              C:/Dev/msys/lib\libz.a(inflate.o) (zcalloc)
C:/Dev/msys/lib\libz.a(adler32.o)
                              C:/Dev/msys/lib\libz.a(inflate.o) (adler32)
C:/Dev/msys/lib\libz.a(inftrees.o)
                              C:/Dev/msys/lib\libz.a(inflate.o) (inflate_table)
C:/Dev/msys/lib\libz.a(inffast.o)
                              C:/Dev/msys/lib\libz.a(inflate.o) (inflate_fast)
C:/Dev/msys/lib\libz.a(deflate.o)
                              C:/Dev/msys/lib\libz.a(gzwrite.o) (deflateReset)
C:/Dev/msys/lib\libz.a(trees.o)
                              C:/Dev/msys/lib\libz.a(deflate.o) (_tr_init)
C:/Dev/msys/local/lib\libSDL.a(SDL_audio.o)
                              obj/main.o (SDL_OpenAudio)
C:/Dev/msys/local/lib\libSDL.a(SDL_syssem.o)
                              obj/main.o (SDL_CreateSemaphore)
C:/Dev/msys/local/lib\libSDL.a(SDL_sysevents.o)
                              obj/main.o (SDL_Window)
C:/Dev/msys/local/lib\libSDL.a(SDL_events.o)
                              obj/main.o (SDL_PollEvent)
C:/Dev/msys/local/lib\libSDL.a(SDL_video.o)
                              obj/main.o (SDL_UpdateRect)
C:/Dev/msys/local/lib\libSDL.a(SDL.o)
                              obj/main.o (SDL_InitSubSystem)
C:/Dev/msys/local/lib\libSDL.a(SDL_error.o)
                              C:/Dev/msys/local/lib\libSDL.a(SDL_audio.o) (SDL_SetError)
C:/Dev/msys/local/lib\libSDL.a(SDL_systimer.o)
                              C:/Dev/msys/local/lib\libSDL.a(SDL.o) (SDL_StartTicks)
C:/Dev/msys/local/lib\libSDL.a(SDL_timer.o)
                              C:/Dev/msys/local/lib\libSDL.a(SDL_events.o) (SDL_SetTimerThreaded)
C:/Dev/msys/local/lib\libSDL.a(SDL_dibaudio.o)
                              C:/Dev/msys/local/lib\libSDL.a(SDL_audio.o) (WAVEOUT_bootstrap)
C:/Dev/msys/local/lib\libSDL.a(SDL_diskaudio.o)
                              C:/Dev/msys/local/lib\libSDL.a(SDL_audio.o) (DISKAUD_bootstrap)
C:/Dev/msys/local/lib\libSDL.a(SDL_dummyaudio.o)
                              C:/Dev/msys/local/lib\libSDL.a(SDL_audio.o) (DUMMYAUD_bootstrap)
C:/Dev/msys/local/lib\libSDL.a(SDL_systhread.o)
                              C:/Dev/msys/local/lib\libSDL.a(SDL_audio.o) (SDL_ThreadID)
C:/Dev/msys/local/lib\libSDL.a(SDL_sysmutex.o)
                              C:/Dev/msys/local/lib\libSDL.a(SDL_audio.o) (SDL_CreateMutex)
C:/Dev/msys/local/lib\libSDL.a(SDL_audiocvt.o)
                              C:/Dev/msys/local/lib\libSDL.a(SDL_audio.o) (SDL_ConvertAudio)
C:/Dev/msys/local/lib\libSDL.a(SDL_string.o)
                              C:/Dev/msys/local/lib\libSDL.a(SDL_audio.o) (SDL_strlcpy)
C:/Dev/msys/local/lib\libSDL.a(SDL_thread.o)
                              C:/Dev/msys/local/lib\libSDL.a(SDL_error.o) (SDL_GetErrBuf)
C:/Dev/msys/local/lib\libSDL.a(SDL_getenv.o)
                              C:/Dev/msys/local/lib\libSDL.a(SDL_audio.o) (SDL_getenv)
C:/Dev/msys/local/lib\libSDL.a(SDL_sysmouse.o)
                              C:/Dev/msys/local/lib\libSDL.a(SDL_sysevents.o) (SDL_hcursor)
C:/Dev/msys/local/lib\libSDL.a(SDL_active.o)
                              C:/Dev/msys/local/lib\libSDL.a(SDL_events.o) (SDL_AppActiveInit)
C:/Dev/msys/local/lib\libSDL.a(SDL_dibvideo.o)
                              C:/Dev/msys/local/lib\libSDL.a(SDL_sysevents.o) (DIB_SwapGamma)
C:/Dev/msys/local/lib\libSDL.a(SDL_expose.o)
                              C:/Dev/msys/local/lib\libSDL.a(SDL_sysevents.o) (SDL_PrivateExpose)
C:/Dev/msys/local/lib\libSDL.a(SDL_quit.o)
                              C:/Dev/msys/local/lib\libSDL.a(SDL_events.o) (SDL_QuitInit)
C:/Dev/msys/local/lib\libSDL.a(SDL_mouse.o)
                              C:/Dev/msys/local/lib\libSDL.a(SDL_events.o) (SDL_MouseInit)
C:/Dev/msys/local/lib\libSDL.a(SDL_resize.o)
                              C:/Dev/msys/local/lib\libSDL.a(SDL_sysevents.o) (SDL_PrivateResize)
C:/Dev/msys/local/lib\libSDL.a(SDL_syswm.o)
                              C:/Dev/msys/local/lib\libSDL.a(SDL_dibvideo.o) (WIN_SetWMIcon)
C:/Dev/msys/local/lib\libSDL.a(SDL_iconv.o)
                              C:/Dev/msys/local/lib\libSDL.a(SDL_sysevents.o) (SDL_iconv_string)
C:/Dev/msys/local/lib\libSDL.a(SDL_joystick.o)
                              C:/Dev/msys/local/lib\libSDL.a(SDL.o) (SDL_JoystickInit)
C:/Dev/msys/local/lib\libSDL.a(SDL_keyboard.o)
                              C:/Dev/msys/local/lib\libSDL.a(SDL_events.o) (SDL_KeyboardInit)
C:/Dev/msys/local/lib\libSDL.a(SDL_cursor.o)
                              C:/Dev/msys/local/lib\libSDL.a(SDL_video.o) (SDL_CursorPaletteChanged)
C:/Dev/msys/local/lib\libSDL.a(SDL_nullvideo.o)
                              C:/Dev/msys/local/lib\libSDL.a(SDL_video.o) (DUMMY_bootstrap)
C:/Dev/msys/local/lib\libSDL.a(SDL_surface.o)
                              C:/Dev/msys/local/lib\libSDL.a(SDL_video.o) (SDL_SetClipRect)
C:/Dev/msys/local/lib\libSDL.a(SDL_pixels.o)
                              C:/Dev/msys/local/lib\libSDL.a(SDL_video.o) (SDL_FormatChanged)
C:/Dev/msys/local/lib\libSDL.a(SDL_cdrom.o)
                              C:/Dev/msys/local/lib\libSDL.a(SDL.o) (SDL_CDROMInit)
C:/Dev/msys/local/lib\libSDL.a(SDL_fatal.o)
                              C:/Dev/msys/local/lib\libSDL.a(SDL.o) (SDL_InstallParachute)
C:/Dev/msys/local/lib\libSDL.a(SDL_rwops.o)
                              C:/Dev/msys/local/lib\libSDL.a(SDL_diskaudio.o) (SDL_RWFromFile)
C:/Dev/msys/local/lib\libSDL.a(SDL_wingl.o)
                              C:/Dev/msys/local/lib\libSDL.a(SDL_dibvideo.o) (WIN_GL_ShutDown)
C:/Dev/msys/local/lib\libSDL.a(SDL_dibevents.o)
                              C:/Dev/msys/local/lib\libSDL.a(SDL_dibvideo.o) (DIB_HandleMessage)
C:/Dev/msys/local/lib\libSDL.a(SDL_mmjoystick.o)
                              C:/Dev/msys/local/lib\libSDL.a(SDL_joystick.o) (SDL_SYS_JoystickInit)
C:/Dev/msys/local/lib\libSDL.a(SDL_nullevents.o)
                              C:/Dev/msys/local/lib\libSDL.a(SDL_nullvideo.o) (DUMMY_PumpEvents)
C:/Dev/msys/local/lib\libSDL.a(SDL_RLEaccel.o)
                              C:/Dev/msys/local/lib\libSDL.a(SDL_surface.o) (SDL_UnRLESurface)
C:/Dev/msys/local/lib\libSDL.a(SDL_blit.o)
                              C:/Dev/msys/local/lib\libSDL.a(SDL_pixels.o) (SDL_CalculateBlit)
C:/Dev/msys/local/lib\libSDL.a(SDL_syscdrom.o)
                              C:/Dev/msys/local/lib\libSDL.a(SDL_cdrom.o) (SDL_SYS_CDInit)
C:/Dev/msys/local/lib\libSDL.a(SDL_cpuinfo.o)
                              C:/Dev/msys/local/lib\libSDL.a(SDL_blit.o) (SDL_HasMMX)
C:/Dev/msys/local/lib\libSDL.a(SDL_blit_N.o)
                              C:/Dev/msys/local/lib\libSDL.a(SDL_blit.o) (SDL_CalculateBlitN)
C:/Dev/msys/local/lib\libSDL.a(SDL_blit_0.o)
                              C:/Dev/msys/local/lib\libSDL.a(SDL_blit.o) (SDL_CalculateBlit0)
C:/Dev/msys/local/lib\libSDL.a(SDL_blit_1.o)
                              C:/Dev/msys/local/lib\libSDL.a(SDL_blit.o) (SDL_CalculateBlit1)
C:/Dev/msys/local/lib\libSDL.a(SDL_blit_A.o)
                              C:/Dev/msys/local/lib\libSDL.a(SDL_blit_N.o) (SDL_CalculateAlphaBlit)
c:/Dev/TDM-GCC-32/bin/../lib/gcc/mingw32/5.1.0/../../..\libwinmm.a(dopcs00144.o)
                              C:/Dev/msys/local/lib\libSDL.a(SDL_systimer.o) (timeBeginPeriod@4)
c:/Dev/TDM-GCC-32/bin/../lib/gcc/mingw32/5.1.0/../../..\libwinmm.a(dopcs00148.o)
                              C:/Dev/msys/local/lib\libSDL.a(SDL_systimer.o) (timeGetTime@0)
c:/Dev/TDM-GCC-32/bin/../lib/gcc/mingw32/5.1.0/../../..\libwinmm.a(dopcs00150.o)
                              C:/Dev/msys/local/lib\libSDL.a(SDL_systimer.o) (timeSetEvent@20)
c:/Dev/TDM-GCC-32/bin/../lib/gcc/mingw32/5.1.0/../../..\libwinmm.a(dopcs00149.o)
                              C:/Dev/msys/local/lib\libSDL.a(SDL_systimer.o) (timeKillEvent@4)
c:/Dev/TDM-GCC-32/bin/../lib/gcc/mingw32/5.1.0/../../..\libwinmm.a(dopcs00145.o)
                              C:/Dev/msys/local/lib\libSDL.a(SDL_systimer.o) (timeEndPeriod@4)
c:/Dev/TDM-GCC-32/bin/../lib/gcc/mingw32/5.1.0/../../..\libwinmm.a(dopcs00168.o)
                              C:/Dev/msys/local/lib\libSDL.a(SDL_dibaudio.o) (waveOutClose@4)
c:/Dev/TDM-GCC-32/bin/../lib/gcc/mingw32/5.1.0/../../..\libwinmm.a(dopcs00188.o)
                              C:/Dev/msys/local/lib\libSDL.a(SDL_dibaudio.o) (waveOutUnprepareHeader@12)
c:/Dev/TDM-GCC-32/bin/../lib/gcc/mingw32/5.1.0/../../..\libwinmm.a(dopcs00189.o)
                              C:/Dev/msys/local/lib\libSDL.a(SDL_dibaudio.o) (waveOutWrite@12)
c:/Dev/TDM-GCC-32/bin/../lib/gcc/mingw32/5.1.0/../../..\libwinmm.a(dopcs00171.o)
                              C:/Dev/msys/local/lib\libSDL.a(SDL_dibaudio.o) (waveOutGetErrorTextA@12)
c:/Dev/TDM-GCC-32/bin/../lib/gcc/mingw32/5.1.0/../../..\libwinmm.a(dopcs00180.o)
                              C:/Dev/msys/local/lib\libSDL.a(SDL_dibaudio.o) (waveOutOpen@24)
c:/Dev/TDM-GCC-32/bin/../lib/gcc/mingw32/5.1.0/../../..\libwinmm.a(dopcs00182.o)
                              C:/Dev/msys/local/lib\libSDL.a(SDL_dibaudio.o) (waveOutPrepareHeader@12)
c:/Dev/TDM-GCC-32/bin/../lib/gcc/mingw32/5.1.0/../../..\libwinmm.a(dopcs00025.o)
                              C:/Dev/msys/local/lib\libSDL.a(SDL_mmjoystick.o) (joyGetNumDevs@0)
c:/Dev/TDM-GCC-32/bin/../lib/gcc/mingw32/5.1.0/../../..\libwinmm.a(dopcs00027.o)
                              C:/Dev/msys/local/lib\libSDL.a(SDL_mmjoystick.o) (joyGetPosEx@8)
c:/Dev/TDM-GCC-32/bin/../lib/gcc/mingw32/5.1.0/../../..\libwinmm.a(dopcs00023.o)
                              C:/Dev/msys/local/lib\libSDL.a(SDL_mmjoystick.o) (joyGetDevCapsA@12)
c:/Dev/TDM-GCC-32/bin/../lib/gcc/mingw32/5.1.0/../../..\libwinmm.a(dopcs00047.o)
                              C:/Dev/msys/local/lib\libSDL.a(SDL_syscdrom.o) (mciSendCommandA@16)
c:/Dev/TDM-GCC-32/bin/../lib/gcc/mingw32/5.1.0/../../..\libwinmm.a(dopcs00043.o)
                              C:/Dev/msys/local/lib\libSDL.a(SDL_syscdrom.o) (mciGetErrorStringA@12)
c:/Dev/TDM-GCC-32/bin/../lib/gcc/mingw32/5.1.0/../../..\libwinmm.a(dopch.o)
                              c:/Dev/TDM-GCC-32/bin/../lib/gcc/mingw32/5.1.0/../../..\libwinmm.a(dopcs00144.o) (_head_libwinmm_a)
c:/Dev/TDM-GCC-32/bin/../lib/gcc/mingw32/5.1.0/../../..\libwinmm.a(dopct.o)
                              c:/Dev/TDM-GCC-32/bin/../lib/gcc/mingw32/5.1.0/../../..\libwinmm.a(dopch.o) (_libwinmm_a_iname)
c:/Dev/TDM-GCC-32/bin/../lib/gcc/mingw32/5.1.0/../../..\libcomdlg32.a(demds00009.o)
                              obj/main.o (GetOpenFileNameA@4)
c:/Dev/TDM-GCC-32/bin/../lib/gcc/mingw32/5.1.0/../../..\libcomdlg32.a(demdh.o)
                              c:/Dev/TDM-GCC-32/bin/../lib/gcc/mingw32/5.1.0/../../..\libcomdlg32.a(demds00009.o) (_head_libcomdlg32_a)
c:/Dev/TDM-GCC-32/bin/../lib/gcc/mingw32/5.1.0/../../..\libcomdlg32.a(demdt.o)
                              c:/Dev/TDM-GCC-32/bin/../lib/gcc/mingw32/5.1.0/../../..\libcomdlg32.a(demdh.o) (_libcomdlg32_a_iname)
c:/Dev/TDM-GCC-32/bin/../lib/gcc/mingw32/5.1.0/../../..\libgdi32.a(dkfhs00282.o)
                              C:/Dev/msys/local/lib\libSDL.a(SDL_dibvideo.o) (SelectPalette@12)
c:/Dev/TDM-GCC-32/bin/../lib/gcc/mingw32/5.1.0/../../..\libgdi32.a(dkfhs00034.o)
                              C:/Dev/msys/local/lib\libSDL.a(SDL_dibvideo.o) (CreateCompatibleDC@4)
c:/Dev/TDM-GCC-32/bin/../lib/gcc/mingw32/5.1.0/../../..\libgdi32.a(dkfhs00281.o)
                              C:/Dev/msys/local/lib\libSDL.a(SDL_dibvideo.o) (SelectObject@8)
c:/Dev/TDM-GCC-32/bin/../lib/gcc/mingw32/5.1.0/../../..\libgdi32.a(dkfhs00012.o)
                              C:/Dev/msys/local/lib\libSDL.a(SDL_dibvideo.o) (BitBlt@36)
c:/Dev/TDM-GCC-32/bin/../lib/gcc/mingw32/5.1.0/../../..\libgdi32.a(dkfhs00070.o)
                              C:/Dev/msys/local/lib\libSDL.a(SDL_dibvideo.o) (DeleteDC@4)
c:/Dev/TDM-GCC-32/bin/../lib/gcc/mingw32/5.1.0/../../..\libgdi32.a(dkfhs00342.o)
                              C:/Dev/msys/local/lib\libSDL.a(SDL_dibvideo.o) (UnrealizeObject@4)
c:/Dev/TDM-GCC-32/bin/../lib/gcc/mingw32/5.1.0/../../..\libgdi32.a(dkfhs00260.o)
                              C:/Dev/msys/local/lib\libSDL.a(SDL_dibvideo.o) (RealizePalette@4)
c:/Dev/TDM-GCC-32/bin/../lib/gcc/mingw32/5.1.0/../../..\libgdi32.a(dkfhs00320.o)
                              C:/Dev/msys/local/lib\libSDL.a(SDL_dibvideo.o) (SetSystemPaletteUse@8)
c:/Dev/TDM-GCC-32/bin/../lib/gcc/mingw32/5.1.0/../../..\libgdi32.a(dkfhs00204.o)
                              C:/Dev/msys/local/lib\libSDL.a(SDL_dibvideo.o) (GetSystemPaletteUse@4)
c:/Dev/TDM-GCC-32/bin/../lib/gcc/mingw32/5.1.0/../../..\libgdi32.a(dkfhs00311.o)
                              C:/Dev/msys/local/lib\libSDL.a(SDL_dibvideo.o) (SetPaletteEntries@16)
c:/Dev/TDM-GCC-32/bin/../lib/gcc/mingw32/5.1.0/../../..\libgdi32.a(dkfhs00295.o)
                              C:/Dev/msys/local/lib\libSDL.a(SDL_dibvideo.o) (SetDIBColorTable@16)
c:/Dev/TDM-GCC-32/bin/../lib/gcc/mingw32/5.1.0/../../..\libgdi32.a(dkfhs00033.o)
                              C:/Dev/msys/local/lib\libSDL.a(SDL_dibvideo.o) (CreateCompatibleBitmap@12)
c:/Dev/TDM-GCC-32/bin/../lib/gcc/mingw32/5.1.0/../../..\libgdi32.a(dkfhs00147.o)
                              C:/Dev/msys/local/lib\libSDL.a(SDL_dibvideo.o) (GetDIBits@28)
c:/Dev/TDM-GCC-32/bin/../lib/gcc/mingw32/5.1.0/../../..\libgdi32.a(dkfhs00073.o)
                              C:/Dev/msys/local/lib\libSDL.a(SDL_dibvideo.o) (DeleteObject@4)
c:/Dev/TDM-GCC-32/bin/../lib/gcc/mingw32/5.1.0/../../..\libgdi32.a(dkfhs00149.o)
                              C:/Dev/msys/local/lib\libSDL.a(SDL_dibvideo.o) (GetDeviceGammaRamp@8)
c:/Dev/TDM-GCC-32/bin/../lib/gcc/mingw32/5.1.0/../../..\libgdi32.a(dkfhs00298.o)
                              C:/Dev/msys/local/lib\libSDL.a(SDL_dibvideo.o) (SetDeviceGammaRamp@8)
c:/Dev/TDM-GCC-32/bin/../lib/gcc/mingw32/5.1.0/../../..\libgdi32.a(dkfhs00203.o)
                              C:/Dev/msys/local/lib\libSDL.a(SDL_dibvideo.o) (GetSystemPaletteEntries@16)
c:/Dev/TDM-GCC-32/bin/../lib/gcc/mingw32/5.1.0/../../..\libgdi32.a(dkfhs00056.o)
                              C:/Dev/msys/local/lib\libSDL.a(SDL_dibvideo.o) (CreatePalette@4)
c:/Dev/TDM-GCC-32/bin/../lib/gcc/mingw32/5.1.0/../../..\libgdi32.a(dkfhs00039.o)
                              C:/Dev/msys/local/lib\libSDL.a(SDL_dibvideo.o) (CreateDIBSection@24)
c:/Dev/TDM-GCC-32/bin/../lib/gcc/mingw32/5.1.0/../../..\libgdi32.a(dkfhs00015.o)
                              C:/Dev/msys/local/lib\libSDL.a(SDL_wingl.o) (ChoosePixelFormat@8)
c:/Dev/TDM-GCC-32/bin/../lib/gcc/mingw32/5.1.0/../../..\libgdi32.a(dkfhs00313.o)
                              C:/Dev/msys/local/lib\libSDL.a(SDL_wingl.o) (SetPixelFormat@12)
c:/Dev/TDM-GCC-32/bin/../lib/gcc/mingw32/5.1.0/../../..\libgdi32.a(dkfhs00338.o)
                              C:/Dev/msys/local/lib\libSDL.a(SDL_wingl.o) (SwapBuffers@4)
c:/Dev/TDM-GCC-32/bin/../lib/gcc/mingw32/5.1.0/../../..\libgdi32.a(dkfhs00074.o)
                              C:/Dev/msys/local/lib\libSDL.a(SDL_wingl.o) (DescribePixelFormat@16)
c:/Dev/TDM-GCC-32/bin/../lib/gcc/mingw32/5.1.0/../../..\libgdi32.a(dkfhh.o)
                              c:/Dev/TDM-GCC-32/bin/../lib/gcc/mingw32/5.1.0/../../..\libgdi32.a(dkfhs00282.o) (_head_libgdi32_a)
c:/Dev/TDM-GCC-32/bin/../lib/gcc/mingw32/5.1.0/../../..\libgdi32.a(dkfht.o)
                              c:/Dev/TDM-GCC-32/bin/../lib/gcc/mingw32/5.1.0/../../..\libgdi32.a(dkfhh.o) (_libgdi32_a_iname)
c:/Dev/TDM-GCC-32/bin/../lib/gcc/mingw32/5.1.0/../../..\libmingw32.a(tlssup.o)
                              c:/Dev/TDM-GCC-32/bin/../lib/gcc/mingw32/5.1.0/../../../crt2.o (__dyn_tls_init_callback)
c:/Dev/TDM-GCC-32/bin/../lib/gcc/mingw32/5.1.0/../../..\libmingw32.a(CRTglob.o)
                              c:/Dev/TDM-GCC-32/bin/../lib/gcc/mingw32/5.1.0/../../../crt2.o (_CRT_glob)
c:/Dev/TDM-GCC-32/bin/../lib/gcc/mingw32/5.1.0/../../..\libmingw32.a(CRTfmode.o)
                              c:/Dev/TDM-GCC-32/bin/../lib/gcc/mingw32/5.1.0/../../../crt2.o (_CRT_fmode)
c:/Dev/TDM-GCC-32/bin/../lib/gcc/mingw32/5.1.0/../../..\libmingw32.a(txtmode.o)
                              c:/Dev/TDM-GCC-32/bin/../lib/gcc/mingw32/5.1.0/../../../crt2.o (_fmode)
c:/Dev/TDM-GCC-32/bin/../lib/gcc/mingw32/5.1.0/../../..\libmingw32.a(cpu_features.o)
                              c:/Dev/TDM-GCC-32/bin/../lib/gcc/mingw32/5.1.0/../../../crt2.o (__cpu_features_init)
c:/Dev/TDM-GCC-32/bin/../lib/gcc/mingw32/5.1.0/../../..\libmingw32.a(CRT_fp10.o)
                              c:/Dev/TDM-GCC-32/bin/../lib/gcc/mingw32/5.1.0/../../../crt2.o (_fpreset)
c:/Dev/TDM-GCC-32/bin/../lib/gcc/mingw32/5.1.0/../../..\libmingw32.a(pseudo-reloc.o)
                              c:/Dev/TDM-GCC-32/bin/../lib/gcc/mingw32/5.1.0/../../../crt2.o (_pei386_runtime_relocator)
c:/Dev/TDM-GCC-32/bin/../lib/gcc/mingw32/5.1.0/../../..\libmingw32.a(gccmain.o)
                              c:/Dev/TDM-GCC-32/bin/../lib/gcc/mingw32/5.1.0/../../../crt2.o (__main)
c:/Dev/TDM-GCC-32/bin/../lib/gcc/mingw32/5.1.0/../../..\libmingw32.a(main.o)
                              c:/Dev/TDM-GCC-32/bin/../lib/gcc/mingw32/5.1.0/../../../crt2.o (main)
c:/Dev/TDM-GCC-32/bin/../lib/gcc/mingw32/5.1.0/../../..\libmingw32.a(crtst.o)
                              c:/Dev/TDM-GCC-32/bin/../lib/gcc/mingw32/5.1.0/../../..\libmingw32.a(tlssup.o) (_CRT_MT)
c:/Dev/TDM-GCC-32/bin/../lib/gcc/mingw32/5.1.0/../../..\libmingw32.a(tlsthrd.o)
                              c:/Dev/TDM-GCC-32/bin/../lib/gcc/mingw32/5.1.0/../../..\libmingw32.a(tlssup.o) (__mingw_TLScallback)
c:/Dev/TDM-GCC-32/bin/../lib/gcc/mingw32/5.1.0/../../..\libmingw32.a(pseudo-reloc-list.o)
                              c:/Dev/TDM-GCC-32/bin/../lib/gcc/mingw32/5.1.0/../../..\libmingw32.a(pseudo-reloc.o) (__RUNTIME_PSEUDO_RELOC_LIST__)
c:/Dev/TDM-GCC-32/bin/../lib/gcc/mingw32/5.1.0\libgcc.a(_chkstk_ms.o)
                              obj/fileio.o (__chkstk_ms)
c:/Dev/TDM-GCC-32/bin/../lib/gcc/mingw32/5.1.0\libgcc.a(_divdi3.o)
                              C:/Dev/msys/local/lib\libSDL.a(SDL_systimer.o) (__divdi3)
c:/Dev/TDM-GCC-32/bin/../lib/gcc/mingw32/5.1.0\libgcc.a(_ctors.o)
                              c:/Dev/TDM-GCC-32/bin/../lib/gcc/mingw32/5.1.0/../../..\libmingw32.a(gccmain.o) (__DTOR_LIST__)
c:/Dev/TDM-GCC-32/bin/../lib/gcc/mingw32/5.1.0/../../..\libmoldname.a(dofms00097.o)
                              obj/state.o (unlink)
c:/Dev/TDM-GCC-32/bin/../lib/gcc/mingw32/5.1.0/../../..\libmoldname.a(dofms00037.o)
                              obj/main.o (getcwd)
c:/Dev/TDM-GCC-32/bin/../lib/gcc/mingw32/5.1.0/../../..\libmoldname.a(dofms00081.o)
                              obj/options.o (stricmp)
c:/Dev/TDM-GCC-32/bin/../lib/gcc/mingw32/5.1.0/../../..\libmoldname.a(dofms00058.o)
                              C:/Dev/msys/lib\libz.a(gzlib.o) (open)
c:/Dev/TDM-GCC-32/bin/../lib/gcc/mingw32/5.1.0/../../..\libmoldname.a(dofms00064.o)
                              C:/Dev/msys/lib\libz.a(gzread.o) (read)
c:/Dev/TDM-GCC-32/bin/../lib/gcc/mingw32/5.1.0/../../..\libmoldname.a(dofms00006.o)
                              C:/Dev/msys/lib\libz.a(gzread.o) (close)
c:/Dev/TDM-GCC-32/bin/../lib/gcc/mingw32/5.1.0/../../..\libmoldname.a(dofms00109.o)
                              C:/Dev/msys/lib\libz.a(gzwrite.o) (write)
c:/Dev/TDM-GCC-32/bin/../lib/gcc/mingw32/5.1.0/../../..\libmoldname.a(dofms00080.o)
                              C:/Dev/msys/local/lib\libSDL.a(SDL_video.o) (strdup)
c:/Dev/TDM-GCC-32/bin/../lib/gcc/mingw32/5.1.0/../../..\libmoldname.a(dofmh.o)
                              c:/Dev/TDM-GCC-32/bin/../lib/gcc/mingw32/5.1.0/../../..\libmoldname.a(dofms00097.o) (_head_libmoldname_a)
c:/Dev/TDM-GCC-32/bin/../lib/gcc/mingw32/5.1.0/../../..\libmoldname.a(dofmt.o)
                              c:/Dev/TDM-GCC-32/bin/../lib/gcc/mingw32/5.1.0/../../..\libmoldname.a(dofmh.o) (_libmoldname_a_iname)
c:/Dev/TDM-GCC-32/bin/../lib/gcc/mingw32/5.1.0/../../..\libmingwex.a(vfprintf.o)
                              obj/gtkopts.o (__mingw_vfprintf)
c:/Dev/TDM-GCC-32/bin/../lib/gcc/mingw32/5.1.0/../../..\libmingwex.a(vprintf.o)
                              obj/gtkopts.o (__mingw_vprintf)
c:/Dev/TDM-GCC-32/bin/../lib/gcc/mingw32/5.1.0/../../..\libmingwex.a(snprintf.o)
                              C:/Dev/msys/lib\libz.a(gzlib.o) (snprintf)
c:/Dev/TDM-GCC-32/bin/../lib/gcc/mingw32/5.1.0/../../..\libmingwex.a(vsnprintf.o)
                              c:/Dev/TDM-GCC-32/bin/../lib/gcc/mingw32/5.1.0/../../..\libmingwex.a(snprintf.o) (__mingw_vsnprintf)
c:/Dev/TDM-GCC-32/bin/../lib/gcc/mingw32/5.1.0/../../..\libmingwex.a(strtoumax.o)
                              C:/Dev/msys/local/lib\libSDL.a(SDL_dibevents.o) (strtoull)
c:/Dev/TDM-GCC-32/bin/../lib/gcc/mingw32/5.1.0/../../..\libmingwex.a(pformat.o)
                              c:/Dev/TDM-GCC-32/bin/../lib/gcc/mingw32/5.1.0/../../..\libmingwex.a(vfprintf.o) (__mingw_pformat)
c:/Dev/TDM-GCC-32/bin/../lib/gcc/mingw32/5.1.0/../../..\libmingwex.a(gdtoa.o)
                              c:/Dev/TDM-GCC-32/bin/../lib/gcc/mingw32/5.1.0/../../..\libmingwex.a(pformat.o) (__gdtoa)
c:/Dev/TDM-GCC-32/bin/../lib/gcc/mingw32/5.1.0/../../..\libmingwex.a(wcrtomb.o)
                              c:/Dev/TDM-GCC-32/bin/../lib/gcc/mingw32/5.1.0/../../..\libmingwex.a(pformat.o) (wcrtomb)
c:/Dev/TDM-GCC-32/bin/../lib/gcc/mingw32/5.1.0/../../..\libmingwex.a(mbrtowc.o)
                              c:/Dev/TDM-GCC-32/bin/../lib/gcc/mingw32/5.1.0/../../..\libmingwex.a(pformat.o) (mbrtowc)
c:/Dev/TDM-GCC-32/bin/../lib/gcc/mingw32/5.1.0/../../..\libmingwex.a(dmisc.o)
                              c:/Dev/TDM-GCC-32/bin/../lib/gcc/mingw32/5.1.0/../../..\libmingwex.a(gdtoa.o) (__rv_alloc_D2A)
c:/Dev/TDM-GCC-32/bin/../lib/gcc/mingw32/5.1.0/../../..\libmingwex.a(misc.o)
                              c:/Dev/TDM-GCC-32/bin/../lib/gcc/mingw32/5.1.0/../../..\libmingwex.a(gdtoa.o) (__Balloc_D2A)
c:/Dev/TDM-GCC-32/bin/../lib/gcc/mingw32/5.1.0/../../..\libmingwex.a(gmisc.o)
                              c:/Dev/TDM-GCC-32/bin/../lib/gcc/mingw32/5.1.0/../../..\libmingwex.a(gdtoa.o) (__rshift_D2A)
c:/Dev/TDM-GCC-32/bin/../lib/gcc/mingw32/5.1.0/../../..\libmsvcrt.a(dsnos00266.o)
                              c:/Dev/TDM-GCC-32/bin/../lib/gcc/mingw32/5.1.0/../../../crt2.o (_imp___iob)
c:/Dev/TDM-GCC-32/bin/../lib/gcc/mingw32/5.1.0/../../..\libmsvcrt.a(dsnos00099.o)
                              c:/Dev/TDM-GCC-32/bin/../lib/gcc/mingw32/5.1.0/../../../crt2.o (_imp____set_app_type)
c:/Dev/TDM-GCC-32/bin/../lib/gcc/mingw32/5.1.0/../../..\libmsvcrt.a(dsnos00590.o)
                              c:/Dev/TDM-GCC-32/bin/../lib/gcc/mingw32/5.1.0/../../../crt2.o (_imp__atexit)
c:/Dev/TDM-GCC-32/bin/../lib/gcc/mingw32/5.1.0/../../..\libmsvcrt.a(dsnos00383.o)
                              c:/Dev/TDM-GCC-32/bin/../lib/gcc/mingw32/5.1.0/../../../crt2.o (_imp___onexit)
c:/Dev/TDM-GCC-32/bin/../lib/gcc/mingw32/5.1.0/../../..\libmsvcrt.a(dsnos00055.o)
                              c:/Dev/TDM-GCC-32/bin/../lib/gcc/mingw32/5.1.0/../../../crt2.o (__getmainargs)
c:/Dev/TDM-GCC-32/bin/../lib/gcc/mingw32/5.1.0/../../..\libmsvcrt.a(dsnos00426.o)
                              c:/Dev/TDM-GCC-32/bin/../lib/gcc/mingw32/5.1.0/../../../crt2.o (_setmode)
c:/Dev/TDM-GCC-32/bin/../lib/gcc/mingw32/5.1.0/../../..\libmsvcrt.a(dsnos00079.o)
                              c:/Dev/TDM-GCC-32/bin/../lib/gcc/mingw32/5.1.0/../../../crt2.o (__p__fmode)
c:/Dev/TDM-GCC-32/bin/../lib/gcc/mingw32/5.1.0/../../..\libmsvcrt.a(dsnos00077.o)
                              c:/Dev/TDM-GCC-32/bin/../lib/gcc/mingw32/5.1.0/../../../crt2.o (__p__environ)
c:/Dev/TDM-GCC-32/bin/../lib/gcc/mingw32/5.1.0/../../..\libmsvcrt.a(dsnos00147.o)
                              c:/Dev/TDM-GCC-32/bin/../lib/gcc/mingw32/5.1.0/../../../crt2.o (_cexit)
c:/Dev/TDM-GCC-32/bin/../lib/gcc/mingw32/5.1.0/../../..\libmsvcrt.a(dsnos00706.o)
                              c:/Dev/TDM-GCC-32/bin/../lib/gcc/mingw32/5.1.0/../../../crt2.o (signal)
c:/Dev/TDM-GCC-32/bin/../lib/gcc/mingw32/5.1.0/../../..\libmsvcrt.a(dsnos00676.o)
                              obj/z80.oa (malloc)
c:/Dev/TDM-GCC-32/bin/../lib/gcc/mingw32/5.1.0/../../..\libmsvcrt.a(dsnos00696.o)
                              obj/z80.oa (raise)
c:/Dev/TDM-GCC-32/bin/../lib/gcc/mingw32/5.1.0/../../..\libmsvcrt.a(dsnos00625.o)
                              obj/z80.oa (free)
c:/Dev/TDM-GCC-32/bin/../lib/gcc/mingw32/5.1.0/../../..\libmsvcrt.a(dsnos00684.o)
                              obj/genesis.o (memset)
c:/Dev/TDM-GCC-32/bin/../lib/gcc/mingw32/5.1.0/../../..\libmsvcrt.a(dsnos00709.o)
                              obj/system.o (sprintf)
c:/Dev/TDM-GCC-32/bin/../lib/gcc/mingw32/5.1.0/../../..\libmsvcrt.a(dsnos00624.o)
                              obj/unzip.o (fread)
c:/Dev/TDM-GCC-32/bin/../lib/gcc/mingw32/5.1.0/../../..\libmsvcrt.a(dsnos00629.o)
                              obj/unzip.o (fseek)
c:/Dev/TDM-GCC-32/bin/../lib/gcc/mingw32/5.1.0/../../..\libmsvcrt.a(dsnos00715.o)
                              obj/unzip.o (strcmp)
c:/Dev/TDM-GCC-32/bin/../lib/gcc/mingw32/5.1.0/../../..\libmsvcrt.a(dsnos00618.o)
                              obj/unzip.o (fopen)
c:/Dev/TDM-GCC-32/bin/../lib/gcc/mingw32/5.1.0/../../..\libmsvcrt.a(dsnos00607.o)
                              obj/unzip.o (fclose)
c:/Dev/TDM-GCC-32/bin/../lib/gcc/mingw32/5.1.0/../../..\libmsvcrt.a(dsnos00631.o)
                              obj/unzip.o (ftell)
c:/Dev/TDM-GCC-32/bin/../lib/gcc/mingw32/5.1.0/../../..\libmsvcrt.a(dsnos00721.o)
                              obj/unzip.o (strlen)
c:/Dev/TDM-GCC-32/bin/../lib/gcc/mingw32/5.1.0/../../..\libmsvcrt.a(dsnos00681.o)
                              obj/fileio.o (memcmp)
c:/Dev/TDM-GCC-32/bin/../lib/gcc/mingw32/5.1.0/../../..\libmsvcrt.a(dsnos00619.o)
                              obj/state.o (fprintf)
c:/Dev/TDM-GCC-32/bin/../lib/gcc/mingw32/5.1.0/../../..\libmsvcrt.a(dsnos00633.o)
                              obj/state.o (fwrite)
c:/Dev/TDM-GCC-32/bin/../lib/gcc/mingw32/5.1.0/../../..\libmsvcrt.a(dsnos00182.o)
                              obj/state.o (_errno)
c:/Dev/TDM-GCC-32/bin/../lib/gcc/mingw32/5.1.0/../../..\libmsvcrt.a(dsnos00613.o)
                              obj/gtkopts.o (fgets)
c:/Dev/TDM-GCC-32/bin/../lib/gcc/mingw32/5.1.0/../../..\libmsvcrt.a(dsnos00714.o)
                              obj/gtkopts.o (strchr)
c:/Dev/TDM-GCC-32/bin/../lib/gcc/mingw32/5.1.0/../../..\libmsvcrt.a(dsnos00717.o)
                              obj/gtkopts.o (strcpy)
c:/Dev/TDM-GCC-32/bin/../lib/gcc/mingw32/5.1.0/../../..\libmsvcrt.a(dsnos00719.o)
                              obj/gtkopts.o (strerror)
c:/Dev/TDM-GCC-32/bin/../lib/gcc/mingw32/5.1.0/../../..\libmsvcrt.a(dsnos00451.o)
                              obj/gtkopts.o (_stricmp)
c:/Dev/TDM-GCC-32/bin/../lib/gcc/mingw32/5.1.0/../../..\libmsvcrt.a(dsnos00688.o)
                              obj/fm.o (pow)
c:/Dev/TDM-GCC-32/bin/../lib/gcc/mingw32/5.1.0/../../..\libmsvcrt.a(dsnos00604.o)
                              obj/main.o (exit)
c:/Dev/TDM-GCC-32/bin/../lib/gcc/mingw32/5.1.0/../../..\libmsvcrt.a(dsnos00772.o)
                              obj/main.o (wcstombs)
c:/Dev/TDM-GCC-32/bin/../lib/gcc/mingw32/5.1.0/../../..\libmsvcrt.a(dsnos00592.o)
                              obj/options.o (atoi)
c:/Dev/TDM-GCC-32/bin/../lib/gcc/mingw32/5.1.0/../../..\libmsvcrt.a(dsnos00682.o)
                              C:/Dev/msys/lib\libz.a(inflate.o) (memcpy)
c:/Dev/TDM-GCC-32/bin/../lib/gcc/mingw32/5.1.0/../../..\libmsvcrt.a(dsnos00317.o)
                              C:/Dev/msys/lib\libz.a(gzlib.o) (_lseeki64)
c:/Dev/TDM-GCC-32/bin/../lib/gcc/mingw32/5.1.0/../../..\libmsvcrt.a(dsnos00544.o)
                              C:/Dev/msys/lib\libz.a(gzlib.o) (_wopen)
c:/Dev/TDM-GCC-32/bin/../lib/gcc/mingw32/5.1.0/../../..\libmsvcrt.a(dsnos00680.o)
                              C:/Dev/msys/lib\libz.a(gzread.o) (memchr)
c:/Dev/TDM-GCC-32/bin/../lib/gcc/mingw32/5.1.0/../../..\libmsvcrt.a(dsnos00728.o)
                              C:/Dev/msys/local/lib\libSDL.a(SDL_video.o) (strstr)
c:/Dev/TDM-GCC-32/bin/../lib/gcc/mingw32/5.1.0/../../..\libmsvcrt.a(dsnos00591.o)
                              C:/Dev/msys/local/lib\libSDL.a(SDL_video.o) (atof)
c:/Dev/TDM-GCC-32/bin/../lib/gcc/mingw32/5.1.0/../../..\libmsvcrt.a(dsnos00595.o)
                              C:/Dev/msys/local/lib\libSDL.a(SDL_dibaudio.o) (calloc)
c:/Dev/TDM-GCC-32/bin/../lib/gcc/mingw32/5.1.0/../../..\libmsvcrt.a(dsnos00179.o)
                              C:/Dev/msys/local/lib\libSDL.a(SDL_systhread.o) (_endthreadex)
c:/Dev/TDM-GCC-32/bin/../lib/gcc/mingw32/5.1.0/../../..\libmsvcrt.a(dsnos00143.o)
                              C:/Dev/msys/local/lib\libSDL.a(SDL_systhread.o) (_beginthreadex)
c:/Dev/TDM-GCC-32/bin/../lib/gcc/mingw32/5.1.0/../../..\libmsvcrt.a(dsnos00698.o)
                              C:/Dev/msys/local/lib\libSDL.a(SDL_thread.o) (realloc)
c:/Dev/TDM-GCC-32/bin/../lib/gcc/mingw32/5.1.0/../../..\libmsvcrt.a(dsnos00695.o)
                              C:/Dev/msys/local/lib\libSDL.a(SDL_dibvideo.o) (qsort)
c:/Dev/TDM-GCC-32/bin/../lib/gcc/mingw32/5.1.0/../../..\libmsvcrt.a(dsnos00712.o)
                              C:/Dev/msys/local/lib\libSDL.a(SDL_dibvideo.o) (sscanf)
c:/Dev/TDM-GCC-32/bin/../lib/gcc/mingw32/5.1.0/../../..\libmsvcrt.a(dsnos00683.o)
                              C:/Dev/msys/local/lib\libSDL.a(SDL_joystick.o) (memmove)
c:/Dev/TDM-GCC-32/bin/../lib/gcc/mingw32/5.1.0/../../..\libmsvcrt.a(dsnos00748.o)
                              c:/Dev/TDM-GCC-32/bin/../lib/gcc/mingw32/5.1.0/../../..\libmingw32.a(pseudo-reloc.o) (vfprintf)
c:/Dev/TDM-GCC-32/bin/../lib/gcc/mingw32/5.1.0/../../..\libmsvcrt.a(dsnos00583.o)
                              c:/Dev/TDM-GCC-32/bin/../lib/gcc/mingw32/5.1.0/../../..\libmingw32.a(pseudo-reloc.o) (abort)
c:/Dev/TDM-GCC-32/bin/../lib/gcc/mingw32/5.1.0/../../..\libmsvcrt.a(dsnos00065.o)
                              c:/Dev/TDM-GCC-32/bin/../lib/gcc/mingw32/5.1.0/../../..\libmingwex.a(strtoumax.o) (_imp____mb_cur_max)
c:/Dev/TDM-GCC-32/bin/../lib/gcc/mingw32/5.1.0/../../..\libmsvcrt.a(dsnos00392.o)
                              c:/Dev/TDM-GCC-32/bin/../lib/gcc/mingw32/5.1.0/../../..\libmingwex.a(strtoumax.o) (_imp___pctype)
c:/Dev/TDM-GCC-32/bin/../lib/gcc/mingw32/5.1.0/../../..\libmsvcrt.a(dsnos00268.o)
                              c:/Dev/TDM-GCC-32/bin/../lib/gcc/mingw32/5.1.0/../../..\libmingwex.a(strtoumax.o) (_isctype)
c:/Dev/TDM-GCC-32/bin/../lib/gcc/mingw32/5.1.0/../../..\libmsvcrt.a(dsnos00620.o)
                              c:/Dev/TDM-GCC-32/bin/../lib/gcc/mingw32/5.1.0/../../..\libmingwex.a(pformat.o) (fputc)
c:/Dev/TDM-GCC-32/bin/../lib/gcc/mingw32/5.1.0/../../..\libmsvcrt.a(dsnos00671.o)
                              c:/Dev/TDM-GCC-32/bin/../lib/gcc/mingw32/5.1.0/../../..\libmingwex.a(pformat.o) (localeconv)
c:/Dev/TDM-GCC-32/bin/../lib/gcc/mingw32/5.1.0/../../..\libmsvcrt.a(dsnos00637.o)
                              c:/Dev/TDM-GCC-32/bin/../lib/gcc/mingw32/5.1.0/../../..\libmingwex.a(pformat.o) (getenv)
c:/Dev/TDM-GCC-32/bin/../lib/gcc/mingw32/5.1.0/../../..\libmsvcrt.a(ofmt_stub.o)
                              c:/Dev/TDM-GCC-32/bin/../lib/gcc/mingw32/5.1.0/../../..\libmingwex.a(pformat.o) (_get_output_format)
c:/Dev/TDM-GCC-32/bin/../lib/gcc/mingw32/5.1.0/../../..\libmsvcrt.a(dsnos00761.o)
                              c:/Dev/TDM-GCC-32/bin/../lib/gcc/mingw32/5.1.0/../../..\libmingwex.a(pformat.o) (wcslen)
c:/Dev/TDM-GCC-32/bin/../lib/gcc/mingw32/5.1.0/../../..\libmsvcrt.a(dsnos00704.o)
                              c:/Dev/TDM-GCC-32/bin/../lib/gcc/mingw32/5.1.0/../../..\libmingwex.a(wcrtomb.o) (setlocale)
c:/Dev/TDM-GCC-32/bin/../lib/gcc/mingw32/5.1.0/../../..\libmsvcrt.a(dsnoh.o)
                              c:/Dev/TDM-GCC-32/bin/../lib/gcc/mingw32/5.1.0/../../..\libmsvcrt.a(dsnos00266.o) (_head_libmsvcrt_a)
c:/Dev/TDM-GCC-32/bin/../lib/gcc/mingw32/5.1.0/../../..\libmsvcrt.a(dsnot.o)
                              c:/Dev/TDM-GCC-32/bin/../lib/gcc/mingw32/5.1.0/../../..\libmsvcrt.a(dsnoh.o) (_libmsvcrt_a_iname)
c:/Dev/TDM-GCC-32/bin/../lib/gcc/mingw32/5.1.0/../../..\libadvapi32.a(dgxgs00413.o)
                              C:/Dev/msys/local/lib\libSDL.a(SDL_mmjoystick.o) (RegOpenKeyExA@20)
c:/Dev/TDM-GCC-32/bin/../lib/gcc/mingw32/5.1.0/../../..\libadvapi32.a(dgxgs00423.o)
                              C:/Dev/msys/local/lib\libSDL.a(SDL_mmjoystick.o) (RegQueryValueExA@24)
c:/Dev/TDM-GCC-32/bin/../lib/gcc/mingw32/5.1.0/../../..\libadvapi32.a(dgxgs00386.o)
                              C:/Dev/msys/local/lib\libSDL.a(SDL_mmjoystick.o) (RegCloseKey@4)
c:/Dev/TDM-GCC-32/bin/../lib/gcc/mingw32/5.1.0/../../..\libadvapi32.a(dgxgh.o)
                              c:/Dev/TDM-GCC-32/bin/../lib/gcc/mingw32/5.1.0/../../..\libadvapi32.a(dgxgs00413.o) (_head_libadvapi32_a)
c:/Dev/TDM-GCC-32/bin/../lib/gcc/mingw32/5.1.0/../../..\libadvapi32.a(dgxgt.o)
                              c:/Dev/TDM-GCC-32/bin/../lib/gcc/mingw32/5.1.0/../../..\libadvapi32.a(dgxgh.o) (_libadvapi32_a_iname)
c:/Dev/TDM-GCC-32/bin/../lib/gcc/mingw32/5.1.0/../../..\libuser32.a(daois00575.o)
                              obj/main.o (SetWindowTextW@8)
c:/Dev/TDM-GCC-32/bin/../lib/gcc/mingw32/5.1.0/../../..\libuser32.a(daois00574.o)
                              obj/main.o (SetWindowTextA@8)
c:/Dev/TDM-GCC-32/bin/../lib/gcc/mingw32/5.1.0/../../..\libuser32.a(daois00534.o)
                              obj/main.o (SetForegroundWindow@4)
c:/Dev/TDM-GCC-32/bin/../lib/gcc/mingw32/5.1.0/../../..\libuser32.a(daois00269.o)
                              C:/Dev/msys/local/lib\libSDL.a(SDL_sysevents.o) (GetKeyboardLayout@4)
c:/Dev/TDM-GCC-32/bin/../lib/gcc/mingw32/5.1.0/../../..\libuser32.a(daois00598.o)
                              C:/Dev/msys/local/lib\libSDL.a(SDL_sysevents.o) (ToAsciiEx@24)
c:/Dev/TDM-GCC-32/bin/../lib/gcc/mingw32/5.1.0/../../..\libuser32.a(daois00134.o)
                              C:/Dev/msys/local/lib\libSDL.a(SDL_sysevents.o) (DefWindowProcA@16)
c:/Dev/TDM-GCC-32/bin/../lib/gcc/mingw32/5.1.0/../../..\libuser32.a(daois00468.o)
                              C:/Dev/msys/local/lib\libSDL.a(SDL_sysevents.o) (PostQuitMessage@4)
c:/Dev/TDM-GCC-32/bin/../lib/gcc/mingw32/5.1.0/../../..\libuser32.a(daois00348.o)
                              C:/Dev/msys/local/lib\libSDL.a(SDL_sysevents.o) (GetWindowRect@8)
c:/Dev/TDM-GCC-32/bin/../lib/gcc/mingw32/5.1.0/../../..\libuser32.a(daois00342.o)
                              C:/Dev/msys/local/lib\libSDL.a(SDL_sysevents.o) (GetWindowLongA@8)
c:/Dev/TDM-GCC-32/bin/../lib/gcc/mingw32/5.1.0/../../..\libuser32.a(daois00279.o)
                              C:/Dev/msys/local/lib\libSDL.a(SDL_sysevents.o) (GetMenu@4)
c:/Dev/TDM-GCC-32/bin/../lib/gcc/mingw32/5.1.0/../../..\libuser32.a(daois00001.o)
                              C:/Dev/msys/local/lib\libSDL.a(SDL_sysevents.o) (AdjustWindowRect@12)
c:/Dev/TDM-GCC-32/bin/../lib/gcc/mingw32/5.1.0/../../..\libuser32.a(daois00533.o)
                              C:/Dev/msys/local/lib\libSDL.a(SDL_sysevents.o) (SetFocus@4)
c:/Dev/TDM-GCC-32/bin/../lib/gcc/mingw32/5.1.0/../../..\libuser32.a(daois00525.o)
                              C:/Dev/msys/local/lib\libSDL.a(SDL_sysevents.o) (SetCursor@4)
c:/Dev/TDM-GCC-32/bin/../lib/gcc/mingw32/5.1.0/../../..\libuser32.a(daois00236.o)
                              C:/Dev/msys/local/lib\libSDL.a(SDL_sysevents.o) (GetClientRect@8)
c:/Dev/TDM-GCC-32/bin/../lib/gcc/mingw32/5.1.0/../../..\libuser32.a(daois00059.o)
                              C:/Dev/msys/local/lib\libSDL.a(SDL_sysevents.o) (ClientToScreen@8)
c:/Dev/TDM-GCC-32/bin/../lib/gcc/mingw32/5.1.0/../../..\libuser32.a(daois00011.o)
                              C:/Dev/msys/local/lib\libSDL.a(SDL_sysevents.o) (BeginPaint@8)
c:/Dev/TDM-GCC-32/bin/../lib/gcc/mingw32/5.1.0/../../..\libuser32.a(daois00184.o)
                              C:/Dev/msys/local/lib\libSDL.a(SDL_sysevents.o) (EndPaint@8)
c:/Dev/TDM-GCC-32/bin/../lib/gcc/mingw32/5.1.0/../../..\libuser32.a(daois00398.o)
                              C:/Dev/msys/local/lib\libSDL.a(SDL_sysevents.o) (IsZoomed@4)
c:/Dev/TDM-GCC-32/bin/../lib/gcc/mingw32/5.1.0/../../..\libuser32.a(daois00060.o)
                              C:/Dev/msys/local/lib\libSDL.a(SDL_sysevents.o) (ClipCursor@4)
c:/Dev/TDM-GCC-32/bin/../lib/gcc/mingw32/5.1.0/../../..\libuser32.a(daois00517.o)
                              C:/Dev/msys/local/lib\libSDL.a(SDL_sysevents.o) (SetCapture@4)
c:/Dev/TDM-GCC-32/bin/../lib/gcc/mingw32/5.1.0/../../..\libuser32.a(daois00493.o)
                              C:/Dev/msys/local/lib\libSDL.a(SDL_sysevents.o) (ReleaseCapture@0)
c:/Dev/TDM-GCC-32/bin/../lib/gcc/mingw32/5.1.0/../../..\libuser32.a(daois00585.o)
                              C:/Dev/msys/local/lib\libSDL.a(SDL_sysevents.o) (ShowWindow@8)
c:/Dev/TDM-GCC-32/bin/../lib/gcc/mingw32/5.1.0/../../..\libuser32.a(daois00029.o)
                              C:/Dev/msys/local/lib\libSDL.a(SDL_sysevents.o) (ChangeDisplaySettingsA@8)
c:/Dev/TDM-GCC-32/bin/../lib/gcc/mingw32/5.1.0/../../..\libuser32.a(daois00563.o)
                              C:/Dev/msys/local/lib\libSDL.a(SDL_sysevents.o) (SetTimer@16)
c:/Dev/TDM-GCC-32/bin/../lib/gcc/mingw32/5.1.0/../../..\libuser32.a(daois00431.o)
                              C:/Dev/msys/local/lib\libSDL.a(SDL_sysevents.o) (MapWindowPoints@16)
c:/Dev/TDM-GCC-32/bin/../lib/gcc/mingw32/5.1.0/../../..\libuser32.a(daois00247.o)
                              C:/Dev/msys/local/lib\libSDL.a(SDL_sysevents.o) (GetCursorPos@4)
c:/Dev/TDM-GCC-32/bin/../lib/gcc/mingw32/5.1.0/../../..\libuser32.a(daois00474.o)
                              C:/Dev/msys/local/lib\libSDL.a(SDL_sysevents.o) (PtInRect@12)
c:/Dev/TDM-GCC-32/bin/../lib/gcc/mingw32/5.1.0/../../..\libuser32.a(daois00635.o)
                              C:/Dev/msys/local/lib\libSDL.a(SDL_sysevents.o) (WindowFromPoint@8)
c:/Dev/TDM-GCC-32/bin/../lib/gcc/mingw32/5.1.0/../../..\libuser32.a(daois00400.o)
                              C:/Dev/msys/local/lib\libSDL.a(SDL_sysevents.o) (KillTimer@8)
c:/Dev/TDM-GCC-32/bin/../lib/gcc/mingw32/5.1.0/../../..\libuser32.a(daois00466.o)
                              C:/Dev/msys/local/lib\libSDL.a(SDL_sysevents.o) (PostMessageA@16)
c:/Dev/TDM-GCC-32/bin/../lib/gcc/mingw32/5.1.0/../../..\libuser32.a(daois00608.o)
                              C:/Dev/msys/local/lib\libSDL.a(SDL_sysevents.o) (TranslateMessage@4)
c:/Dev/TDM-GCC-32/bin/../lib/gcc/mingw32/5.1.0/../../..\libuser32.a(daois00149.o)
                              C:/Dev/msys/local/lib\libSDL.a(SDL_sysevents.o) (DispatchMessageA@4)
c:/Dev/TDM-GCC-32/bin/../lib/gcc/mingw32/5.1.0/../../..\libuser32.a(daois00464.o)
                              C:/Dev/msys/local/lib\libSDL.a(SDL_sysevents.o) (PeekMessageA@20)
c:/Dev/TDM-GCC-32/bin/../lib/gcc/mingw32/5.1.0/../../..\libuser32.a(daois00411.o)
                              C:/Dev/msys/local/lib\libSDL.a(SDL_sysevents.o) (LoadImageA@24)
c:/Dev/TDM-GCC-32/bin/../lib/gcc/mingw32/5.1.0/../../..\libuser32.a(daois00479.o)
                              C:/Dev/msys/local/lib\libSDL.a(SDL_sysevents.o) (RegisterClassA@4)
c:/Dev/TDM-GCC-32/bin/../lib/gcc/mingw32/5.1.0/../../..\libuser32.a(daois00599.o)
                              C:/Dev/msys/local/lib\libSDL.a(SDL_sysevents.o) (ToUnicode@24)
c:/Dev/TDM-GCC-32/bin/../lib/gcc/mingw32/5.1.0/../../..\libuser32.a(daois00227.o)
                              C:/Dev/msys/local/lib\libSDL.a(SDL_sysevents.o) (GetClassInfoA@12)
c:/Dev/TDM-GCC-32/bin/../lib/gcc/mingw32/5.1.0/../../..\libuser32.a(daois00615.o)
                              C:/Dev/msys/local/lib\libSDL.a(SDL_sysevents.o) (UnregisterClassA@8)
c:/Dev/TDM-GCC-32/bin/../lib/gcc/mingw32/5.1.0/../../..\libuser32.a(daois00245.o)
                              C:/Dev/msys/local/lib\libSDL.a(SDL_sysmouse.o) (GetCursor@0)
c:/Dev/TDM-GCC-32/bin/../lib/gcc/mingw32/5.1.0/../../..\libuser32.a(daois00141.o)
                              C:/Dev/msys/local/lib\libSDL.a(SDL_sysmouse.o) (DestroyCursor@4)
c:/Dev/TDM-GCC-32/bin/../lib/gcc/mingw32/5.1.0/../../..\libuser32.a(daois00326.o)
                              C:/Dev/msys/local/lib\libSDL.a(SDL_sysmouse.o) (GetSystemMetrics@4)
c:/Dev/TDM-GCC-32/bin/../lib/gcc/mingw32/5.1.0/../../..\libuser32.a(daois00075.o)
                              C:/Dev/msys/local/lib\libSDL.a(SDL_sysmouse.o) (CreateCursor@28)
c:/Dev/TDM-GCC-32/bin/../lib/gcc/mingw32/5.1.0/../../..\libuser32.a(daois00526.o)
                              C:/Dev/msys/local/lib\libSDL.a(SDL_sysmouse.o) (SetCursorPos@8)
c:/Dev/TDM-GCC-32/bin/../lib/gcc/mingw32/5.1.0/../../..\libuser32.a(daois00500.o)
                              C:/Dev/msys/local/lib\libSDL.a(SDL_sysmouse.o) (ScreenToClient@8)
c:/Dev/TDM-GCC-32/bin/../lib/gcc/mingw32/5.1.0/../../..\libuser32.a(daois00248.o)
                              C:/Dev/msys/local/lib\libSDL.a(SDL_dibvideo.o) (GetDC@4)
c:/Dev/TDM-GCC-32/bin/../lib/gcc/mingw32/5.1.0/../../..\libuser32.a(daois00494.o)
                              C:/Dev/msys/local/lib\libSDL.a(SDL_dibvideo.o) (ReleaseDC@8)
c:/Dev/TDM-GCC-32/bin/../lib/gcc/mingw32/5.1.0/../../..\libuser32.a(daois00370.o)
                              C:/Dev/msys/local/lib\libSDL.a(SDL_dibvideo.o) (InvalidateRect@12)
c:/Dev/TDM-GCC-32/bin/../lib/gcc/mingw32/5.1.0/../../..\libuser32.a(daois00194.o)
                              C:/Dev/msys/local/lib\libSDL.a(SDL_dibvideo.o) (EnumDisplaySettingsA@12)
c:/Dev/TDM-GCC-32/bin/../lib/gcc/mingw32/5.1.0/../../..\libuser32.a(daois00002.o)
                              C:/Dev/msys/local/lib\libSDL.a(SDL_dibvideo.o) (AdjustWindowRectEx@16)
c:/Dev/TDM-GCC-32/bin/../lib/gcc/mingw32/5.1.0/../../..\libuser32.a(daois00572.o)
                              C:/Dev/msys/local/lib\libSDL.a(SDL_dibvideo.o) (SetWindowPos@28)
c:/Dev/TDM-GCC-32/bin/../lib/gcc/mingw32/5.1.0/../../..\libuser32.a(daois00304.o)
                              C:/Dev/msys/local/lib\libSDL.a(SDL_dibvideo.o) (GetParent@4)
c:/Dev/TDM-GCC-32/bin/../lib/gcc/mingw32/5.1.0/../../..\libuser32.a(daois00569.o)
                              C:/Dev/msys/local/lib\libSDL.a(SDL_dibvideo.o) (SetWindowLongA@12)
c:/Dev/TDM-GCC-32/bin/../lib/gcc/mingw32/5.1.0/../../..\libuser32.a(daois00142.o)
                              C:/Dev/msys/local/lib\libSDL.a(SDL_dibvideo.o) (DestroyIcon@4)
c:/Dev/TDM-GCC-32/bin/../lib/gcc/mingw32/5.1.0/../../..\libuser32.a(daois00084.o)
                              C:/Dev/msys/local/lib\libSDL.a(SDL_syswm.o) (CreateIconFromResourceEx@28)
c:/Dev/TDM-GCC-32/bin/../lib/gcc/mingw32/5.1.0/../../..\libuser32.a(daois00520.o)
                              C:/Dev/msys/local/lib\libSDL.a(SDL_syswm.o) (SetClassLongA@12)
c:/Dev/TDM-GCC-32/bin/../lib/gcc/mingw32/5.1.0/../../..\libuser32.a(daois00090.o)
                              C:/Dev/msys/local/lib\libSDL.a(SDL_wingl.o) (CreateWindowExA@48)
c:/Dev/TDM-GCC-32/bin/../lib/gcc/mingw32/5.1.0/../../..\libuser32.a(daois00144.o)
                              C:/Dev/msys/local/lib\libSDL.a(SDL_wingl.o) (DestroyWindow@4)
c:/Dev/TDM-GCC-32/bin/../lib/gcc/mingw32/5.1.0/../../..\libuser32.a(daois00273.o)
                              C:/Dev/msys/local/lib\libSDL.a(SDL_dibevents.o) (GetKeyboardState@4)
c:/Dev/TDM-GCC-32/bin/../lib/gcc/mingw32/5.1.0/../../..\libuser32.a(daois00428.o)
                              C:/Dev/msys/local/lib\libSDL.a(SDL_dibevents.o) (MapVirtualKeyExA@12)
c:/Dev/TDM-GCC-32/bin/../lib/gcc/mingw32/5.1.0/../../..\libuser32.a(daois00024.o)
                              C:/Dev/msys/local/lib\libSDL.a(SDL_dibevents.o) (CallWindowProcA@20)
c:/Dev/TDM-GCC-32/bin/../lib/gcc/mingw32/5.1.0/../../..\libuser32.a(daois00268.o)
                              C:/Dev/msys/local/lib\libSDL.a(SDL_dibevents.o) (GetKeyState@4)
c:/Dev/TDM-GCC-32/bin/../lib/gcc/mingw32/5.1.0/../../..\libuser32.a(daois00293.o)
                              C:/Dev/msys/local/lib\libSDL.a(SDL_dibevents.o) (GetMessageA@16)
c:/Dev/TDM-GCC-32/bin/../lib/gcc/mingw32/5.1.0/../../..\libuser32.a(daois00271.o)
                              C:/Dev/msys/local/lib\libSDL.a(SDL_dibevents.o) (GetKeyboardLayoutNameA@4)
c:/Dev/TDM-GCC-32/bin/../lib/gcc/mingw32/5.1.0/../../..\libuser32.a(daois00413.o)
                              C:/Dev/msys/local/lib\libSDL.a(SDL_dibevents.o) (LoadKeyboardLayoutA@8)
c:/Dev/TDM-GCC-32/bin/../lib/gcc/mingw32/5.1.0/../../..\libuser32.a(daoih.o)
                              c:/Dev/TDM-GCC-32/bin/../lib/gcc/mingw32/5.1.0/../../..\libuser32.a(daois00575.o) (_head_libuser32_a)
c:/Dev/TDM-GCC-32/bin/../lib/gcc/mingw32/5.1.0/../../..\libuser32.a(daoit.o)
                              c:/Dev/TDM-GCC-32/bin/../lib/gcc/mingw32/5.1.0/../../..\libuser32.a(daoih.o) (_libuser32_a_iname)
c:/Dev/TDM-GCC-32/bin/../lib/gcc/mingw32/5.1.0/../../..\libkernel32.a(dchds01140.o)
                              c:/Dev/TDM-GCC-32/bin/../lib/gcc/mingw32/5.1.0/../../../crt2.o (SetUnhandledExceptionFilter@4)
c:/Dev/TDM-GCC-32/bin/../lib/gcc/mingw32/5.1.0/../../..\libkernel32.a(dchds00279.o)
                              c:/Dev/TDM-GCC-32/bin/../lib/gcc/mingw32/5.1.0/../../../crt2.o (ExitProcess@4)
c:/Dev/TDM-GCC-32/bin/../lib/gcc/mingw32/5.1.0/../../..\libkernel32.a(dchds00529.o)
                              c:/Dev/TDM-GCC-32/bin/../lib/gcc/mingw32/5.1.0/crtbegin.o (GetModuleHandleA@4)
c:/Dev/TDM-GCC-32/bin/../lib/gcc/mingw32/5.1.0/../../..\libkernel32.a(dchds00577.o)
                              c:/Dev/TDM-GCC-32/bin/../lib/gcc/mingw32/5.1.0/crtbegin.o (GetProcAddress@8)
c:/Dev/TDM-GCC-32/bin/../lib/gcc/mingw32/5.1.0/../../..\libkernel32.a(dchds00923.o)
                              obj/main.o (QueryPerformanceFrequency@4)
c:/Dev/TDM-GCC-32/bin/../lib/gcc/mingw32/5.1.0/../../..\libkernel32.a(dchds00922.o)
                              obj/main.o (QueryPerformanceCounter@4)
c:/Dev/TDM-GCC-32/bin/../lib/gcc/mingw32/5.1.0/../../..\libkernel32.a(dchds01152.o)
                              obj/main.o (Sleep@4)
c:/Dev/TDM-GCC-32/bin/../lib/gcc/mingw32/5.1.0/../../..\libkernel32.a(dchds00169.o)
                              C:/Dev/msys/local/lib\libSDL.a(SDL_syssem.o) (CreateSemaphoreA@16)
c:/Dev/TDM-GCC-32/bin/../lib/gcc/mingw32/5.1.0/../../..\libkernel32.a(dchds00082.o)
                              C:/Dev/msys/local/lib\libSDL.a(SDL_syssem.o) (CloseHandle@4)
c:/Dev/TDM-GCC-32/bin/../lib/gcc/mingw32/5.1.0/../../..\libkernel32.a(dchds01223.o)
                              C:/Dev/msys/local/lib\libSDL.a(SDL_syssem.o) (WaitForSingleObject@8)
c:/Dev/TDM-GCC-32/bin/../lib/gcc/mingw32/5.1.0/../../..\libkernel32.a(dchds00743.o)
                              C:/Dev/msys/local/lib\libSDL.a(SDL_syssem.o) (InterlockedDecrement@4)
c:/Dev/TDM-GCC-32/bin/../lib/gcc/mingw32/5.1.0/../../..\libkernel32.a(dchds00747.o)
                              C:/Dev/msys/local/lib\libSDL.a(SDL_syssem.o) (InterlockedIncrement@4)
c:/Dev/TDM-GCC-32/bin/../lib/gcc/mingw32/5.1.0/../../..\libkernel32.a(dchds00978.o)
                              C:/Dev/msys/local/lib\libSDL.a(SDL_syssem.o) (ReleaseSemaphore@12)
c:/Dev/TDM-GCC-32/bin/../lib/gcc/mingw32/5.1.0/../../..\libkernel32.a(dchds00860.o)
                              C:/Dev/msys/local/lib\libSDL.a(SDL_sysevents.o) (MultiByteToWideChar@24)
c:/Dev/TDM-GCC-32/bin/../lib/gcc/mingw32/5.1.0/../../..\libkernel32.a(dchds00358.o)
                              C:/Dev/msys/local/lib\libSDL.a(SDL_sysevents.o) (GetACP@0)
c:/Dev/TDM-GCC-32/bin/../lib/gcc/mingw32/5.1.0/../../..\libkernel32.a(dchds00512.o)
                              C:/Dev/msys/local/lib\libSDL.a(SDL_sysevents.o) (GetLocaleInfoA@16)
c:/Dev/TDM-GCC-32/bin/../lib/gcc/mingw32/5.1.0/../../..\libkernel32.a(dchds00671.o)
                              C:/Dev/msys/local/lib\libSDL.a(SDL_sysevents.o) (GetVersionExA@4)
c:/Dev/TDM-GCC-32/bin/../lib/gcc/mingw32/5.1.0/../../..\libkernel32.a(dchds00450.o)
                              C:/Dev/msys/local/lib\libSDL.a(SDL_dibaudio.o) (GetCurrentThread@0)
c:/Dev/TDM-GCC-32/bin/../lib/gcc/mingw32/5.1.0/../../..\libkernel32.a(dchds01129.o)
                              C:/Dev/msys/local/lib\libSDL.a(SDL_dibaudio.o) (SetThreadPriority@8)
c:/Dev/TDM-GCC-32/bin/../lib/gcc/mingw32/5.1.0/../../..\libkernel32.a(dchds00451.o)
                              C:/Dev/msys/local/lib\libSDL.a(SDL_systhread.o) (GetCurrentThreadId@0)
c:/Dev/TDM-GCC-32/bin/../lib/gcc/mingw32/5.1.0/../../..\libkernel32.a(dchds01167.o)
                              C:/Dev/msys/local/lib\libSDL.a(SDL_systhread.o) (TerminateThread@8)
c:/Dev/TDM-GCC-32/bin/../lib/gcc/mingw32/5.1.0/../../..\libkernel32.a(dchds00154.o)
                              C:/Dev/msys/local/lib\libSDL.a(SDL_sysmutex.o) (CreateMutexA@12)
c:/Dev/TDM-GCC-32/bin/../lib/gcc/mingw32/5.1.0/../../..\libkernel32.a(dchds00974.o)
                              C:/Dev/msys/local/lib\libSDL.a(SDL_sysmutex.o) (ReleaseMutex@4)
c:/Dev/TDM-GCC-32/bin/../lib/gcc/mingw32/5.1.0/../../..\libkernel32.a(dchds01062.o)
                              C:/Dev/msys/local/lib\libSDL.a(SDL_getenv.o) (SetEnvironmentVariableA@8)
c:/Dev/TDM-GCC-32/bin/../lib/gcc/mingw32/5.1.0/../../..\libkernel32.a(dchds00473.o)
                              C:/Dev/msys/local/lib\libSDL.a(SDL_getenv.o) (GetEnvironmentVariableA@12)
c:/Dev/TDM-GCC-32/bin/../lib/gcc/mingw32/5.1.0/../../..\libkernel32.a(dchds01247.o)
                              C:/Dev/msys/local/lib\libSDL.a(SDL_syswm.o) (WideCharToMultiByte@32)
c:/Dev/TDM-GCC-32/bin/../lib/gcc/mingw32/5.1.0/../../..\libkernel32.a(dchds01078.o)
                              C:/Dev/msys/local/lib\libSDL.a(SDL_rwops.o) (SetFilePointer@16)
c:/Dev/TDM-GCC-32/bin/../lib/gcc/mingw32/5.1.0/../../..\libkernel32.a(dchds01267.o)
                              C:/Dev/msys/local/lib\libSDL.a(SDL_rwops.o) (WriteFile@20)
c:/Dev/TDM-GCC-32/bin/../lib/gcc/mingw32/5.1.0/../../..\libkernel32.a(dchds00947.o)
                              C:/Dev/msys/local/lib\libSDL.a(SDL_rwops.o) (ReadFile@20)
c:/Dev/TDM-GCC-32/bin/../lib/gcc/mingw32/5.1.0/../../..\libkernel32.a(dchds01064.o)
                              C:/Dev/msys/local/lib\libSDL.a(SDL_rwops.o) (SetErrorMode@4)
c:/Dev/TDM-GCC-32/bin/../lib/gcc/mingw32/5.1.0/../../..\libkernel32.a(dchds00142.o)
                              C:/Dev/msys/local/lib\libSDL.a(SDL_rwops.o) (CreateFileW@28)
c:/Dev/TDM-GCC-32/bin/../lib/gcc/mingw32/5.1.0/../../..\libkernel32.a(dchds00135.o)
                              C:/Dev/msys/local/lib\libSDL.a(SDL_rwops.o) (CreateFileA@28)
c:/Dev/TDM-GCC-32/bin/../lib/gcc/mingw32/5.1.0/../../..\libkernel32.a(dchds00352.o)
                              C:/Dev/msys/local/lib\libSDL.a(SDL_wingl.o) (FreeLibrary@4)
c:/Dev/TDM-GCC-32/bin/../lib/gcc/mingw32/5.1.0/../../..\libkernel32.a(dchds00817.o)
                              C:/Dev/msys/local/lib\libSDL.a(SDL_wingl.o) (LoadLibraryA@4)
c:/Dev/TDM-GCC-32/bin/../lib/gcc/mingw32/5.1.0/../../..\libkernel32.a(dchds00464.o)
                              C:/Dev/msys/local/lib\libSDL.a(SDL_syscdrom.o) (GetDriveTypeA@4)
c:/Dev/TDM-GCC-32/bin/../lib/gcc/mingw32/5.1.0/../../..\libkernel32.a(dchds01215.o)
                              c:/Dev/TDM-GCC-32/bin/../lib/gcc/mingw32/5.1.0/../../..\libmingw32.a(pseudo-reloc.o) (VirtualQuery@12)
c:/Dev/TDM-GCC-32/bin/../lib/gcc/mingw32/5.1.0/../../..\libkernel32.a(dchds01213.o)
                              c:/Dev/TDM-GCC-32/bin/../lib/gcc/mingw32/5.1.0/../../..\libmingw32.a(pseudo-reloc.o) (VirtualProtect@16)
c:/Dev/TDM-GCC-32/bin/../lib/gcc/mingw32/5.1.0/../../..\libkernel32.a(dchds00388.o)
                              c:/Dev/TDM-GCC-32/bin/../lib/gcc/mingw32/5.1.0/../../..\libmingw32.a(main.o) (GetCommandLineA@0)
c:/Dev/TDM-GCC-32/bin/../lib/gcc/mingw32/5.1.0/../../..\libkernel32.a(dchds00606.o)
                              c:/Dev/TDM-GCC-32/bin/../lib/gcc/mingw32/5.1.0/../../..\libmingw32.a(main.o) (GetStartupInfoA@4)
c:/Dev/TDM-GCC-32/bin/../lib/gcc/mingw32/5.1.0/../../..\libkernel32.a(dchds00236.o)
                              c:/Dev/TDM-GCC-32/bin/../lib/gcc/mingw32/5.1.0/../../..\libmingw32.a(tlsthrd.o) (EnterCriticalSection@4)
c:/Dev/TDM-GCC-32/bin/../lib/gcc/mingw32/5.1.0/../../..\libkernel32.a(dchds01173.o)
                              c:/Dev/TDM-GCC-32/bin/../lib/gcc/mingw32/5.1.0/../../..\libmingw32.a(tlsthrd.o) (TlsGetValue@4)
c:/Dev/TDM-GCC-32/bin/../lib/gcc/mingw32/5.1.0/../../..\libkernel32.a(dchds00510.o)
                              c:/Dev/TDM-GCC-32/bin/../lib/gcc/mingw32/5.1.0/../../..\libmingw32.a(tlsthrd.o) (GetLastError@0)
c:/Dev/TDM-GCC-32/bin/../lib/gcc/mingw32/5.1.0/../../..\libkernel32.a(dchds00814.o)
                              c:/Dev/TDM-GCC-32/bin/../lib/gcc/mingw32/5.1.0/../../..\libmingw32.a(tlsthrd.o) (LeaveCriticalSection@4)
c:/Dev/TDM-GCC-32/bin/../lib/gcc/mingw32/5.1.0/../../..\libkernel32.a(dchds00207.o)
                              c:/Dev/TDM-GCC-32/bin/../lib/gcc/mingw32/5.1.0/../../..\libmingw32.a(tlsthrd.o) (DeleteCriticalSection@4)
c:/Dev/TDM-GCC-32/bin/../lib/gcc/mingw32/5.1.0/../../..\libkernel32.a(dchds00734.o)
                              c:/Dev/TDM-GCC-32/bin/../lib/gcc/mingw32/5.1.0/../../..\libmingw32.a(tlsthrd.o) (InitializeCriticalSection@4)
c:/Dev/TDM-GCC-32/bin/../lib/gcc/mingw32/5.1.0/../../..\libkernel32.a(dchds00763.o)
                              c:/Dev/TDM-GCC-32/bin/../lib/gcc/mingw32/5.1.0/../../..\libmingwex.a(mbrtowc.o) (IsDBCSLeadByteEx@8)
c:/Dev/TDM-GCC-32/bin/../lib/gcc/mingw32/5.1.0/../../..\libkernel32.a(dchds00744.o)
                              c:/Dev/TDM-GCC-32/bin/../lib/gcc/mingw32/5.1.0/../../..\libmingwex.a(misc.o) (InterlockedExchange@8)
c:/Dev/TDM-GCC-32/bin/../lib/gcc/mingw32/5.1.0/../../..\libkernel32.a(dchdh.o)
                              c:/Dev/TDM-GCC-32/bin/../lib/gcc/mingw32/5.1.0/../../..\libkernel32.a(dchds01140.o) (_head_libkernel32_a)
c:/Dev/TDM-GCC-32/bin/../lib/gcc/mingw32/5.1.0/../../..\libkernel32.a(dchdt.o)
                              c:/Dev/TDM-GCC-32/bin/../lib/gcc/mingw32/5.1.0/../../..\libkernel32.a(dchdh.o) (_libkernel32_a_iname)
c:/Dev/TDM-GCC-32/bin/../lib/gcc/mingw32/5.1.0\libgcc.a(_udivdi3.o)
                              c:/Dev/TDM-GCC-32/bin/../lib/gcc/mingw32/5.1.0/../../..\libmingwex.a(strtoumax.o) (__udivdi3)
c:/Dev/TDM-GCC-32/bin/../lib/gcc/mingw32/5.1.0\libgcc.a(_umoddi3.o)
                              c:/Dev/TDM-GCC-32/bin/../lib/gcc/mingw32/5.1.0/../../..\libmingwex.a(pformat.o) (__umoddi3)

Allocating common symbols
Common symbol       size              file

gen_running         0x1               obj/genesis.o
work_ram            0x10000           obj/genesis.o
snd                 0x30              obj/system.o
CycloneCPU          0xb0              obj/genesis.o
ToolbarHeight       0x4               obj/main.o
cart_rom            0x400000          obj/genesis.o
_align_11           0x4               obj/render.o
messages            0xa84             obj/msg.o
fm_tat              0x4               obj/sound.o
m68ki_instruction_jump_table
                    0x40000           m68k/m68k.oa(m68kops.o)
SDL_fullscreen_mode
                    0x9c              C:/Dev/msys/local/lib\libSDL.a(SDL_sysevents.o)
lut_base            0x4               obj/render.o
fm_ta               0x4               obj/sound.o
io_reg              0x10              obj/mio.o
flag_usa            0x1               obj/loadrom.o
fm_tb               0x1               obj/sound.o
_align_1            0x4               obj/render.o
object_index_count  0x1               obj/render.o
y_dacout            0x4               obj/fm.o
SDL_ProcessEvents   0x20              C:/Dev/msys/local/lib\libSDL.a(SDL_events.o)
WIN_RealizePalette  0x4               C:/Dev/msys/local/lib\libSDL.a(SDL_sysevents.o)
vdp_rate            0x1               obj/loadrom.o
m68ki_cycles        0x30000           m68k/m68k.oa(m68kops.o)
_x_                 0x4               obj/vdp.o
DrawLine            0x4               obj/main.o
pixel_32_lut        0x1800            obj/render.o
flag_japan          0x1               obj/loadrom.o
sram                0x1c              obj/z80.oa
z80_ICount          0x4               obj/z80.oa
acc_ft              0x4               obj/main.o
cyc_state           0x80              obj/state.o
tzones              0x24              obj/main.o
sfiles              0xa               obj/main.o
zram                0x2000            obj/genesis.o
port                0x18              obj/mio.o
t_error             0xc               obj/error.o
pixel_16            0x200             obj/render.o
int_ft              0x4               obj/main.o
error_log           0x4               obj/error.o
__DTOR_LIST__       0x8               c:/Dev/TDM-GCC-32/bin/../lib/gcc/mingw32/5.1.0\libgcc.a(_ctors.o)
ScreenCache         0x32000           obj/main.o
RenderLine          0x4               obj/render.o
lut                 0x14              obj/render.o
WIN_PaletteChanged  0x4               C:/Dev/msys/local/lib\libSDL.a(SDL_sysevents.o)
sound_sem           0x4               obj/main.o
Buffer              0x96000           obj/render.o
la                  0x4               obj/system.o
zbank               0x4               obj/genesis.o
vdp                 0x10568           obj/vdp.o
SDL_desktop_mode    0x9c              C:/Dev/msys/local/lib\libSDL.a(SDL_sysevents.o)
bitmap              0x38              obj/system.o
UpdateToolbar       0x4               obj/main.o
hw                  0x1               obj/loadrom.o
RomName             0x104             obj/main.o
pcmbuffer           0xfa0             obj/system.o
s_t                 0x8               obj/main.o
temp_tzones         0x24              obj/main.o
SDL_alarm_callback  0x4               C:/Dev/msys/local/lib\libSDL.a(SDL_timer.o)
fm_addr             0x1               obj/sound.o
HandleMouseButton   0x4               obj/main.o
hardware            0x1               obj/loadrom.o
WIN_WinPAINT        0x4               C:/Dev/msys/local/lib\libSDL.a(SDL_sysevents.o)
dummy               0x4               obj/state.o
pcmstep             0x4               obj/system.o
total_cycles        0x4               obj/genesis.o
fm_mode             0x4               obj/sound.o
Cache               0x96000           obj/render.o
m68ki_initial_cycles
                    0x4               m68k/m68k.oa(m68kcpu.o)
fm_regs             0x200             obj/sound.o
m68ki_address_space
                    0x4               m68k/m68k.oa(m68kcpu.o)
input               0x6c              obj/system.o
zbusreq             0x1               obj/genesis.o
sndbuffer           0x1f40            obj/system.o
fm_tbc              0x4               obj/sound.o
tempname            0x104             obj/main.o
object_info         0xa0              obj/render.o
SDL_KeyRepeat       0x24              C:/Dev/msys/local/lib\libSDL.a(SDL_keyboard.o)
e_t                 0x8               obj/main.o
ym2612              0x3378            obj/fm.o
flag_europe         0x1               obj/loadrom.o
sndfmbuffer         0x1f40            obj/system.o
t_res               0x8               obj/main.o
sn                  0xb4              obj/z80.oa
rom_size            0x4               obj/loadrom.o
RomDir              0x104             obj/main.o
sndpsgbuffer        0xfa0             obj/system.o
y_dacen             0x4               obj/fm.o
RomPath             0x104             obj/main.o
ofn                 0x4c              obj/main.o
AltToolbar          0x25800           obj/main.o
__CTOR_LIST__       0x8               c:/Dev/TDM-GCC-32/bin/../lib/gcc/mingw32/5.1.0\libgcc.a(_ctors.o)
MsgBuf              0x25800           obj/msg.o
lines_per_frame     0x4               obj/system.o
SaveDir             0x104             obj/main.o
name_lut            0x400             obj/render.o
vc_table            0x4               obj/vdp.o
fm_status           0x1               obj/sound.o
bg                  0x82804           obj/vdp.o
p_c                 0x8               obj/main.o
pixel_32            0x400             obj/render.o
fm_tbt              0x4               obj/sound.o
screen              0x4               obj/main.o
PrepareToolbar      0x4               obj/main.o
ConfigDir           0x104             obj/main.o
zreset              0x1               obj/genesis.o
fm_tac              0x4               obj/sound.o
pixel_16_lut        0xc00             obj/render.o
WIN_Activate        0x4               C:/Dev/msys/local/lib\libSDL.a(SDL_sysevents.o)
fake_bus            0x2               obj/mem68k_c.o
ra                  0x4               obj/system.o
zbusack             0x1               obj/genesis.o
DrZ80CPU            0x7c              obj/genesis.o
SDL_numcds          0x4               C:/Dev/msys/local/lib\libSDL.a(SDL_cdrom.o)
Toolbar             0x25800           obj/main.o
zirq                0x1               obj/genesis.o
Map                 0x12c00           obj/main.o
num_blocks          0x4               obj/main.o

Discarded input sections

 .drectve       0x00000000       0x64 obj/z80.oa
 .drectve       0x00000000       0xf8 obj/genesis.o
 .drectve       0x00000000       0x9c obj/vdp.o
 .drectve       0x00000000      0x190 obj/render.o
 .drectve       0x00000000      0x154 obj/system.o
 .drectve       0x00000000       0x48 obj/fileio.o
 .drectve       0x00000000       0x60 obj/loadrom.o
 .drectve       0x00000000       0x74 obj/mio.o
 .drectve       0x00000000       0x48 obj/mem68k.o
 .drectve       0x00000000       0x60 obj/mem68k_c.o
 .drectve       0x00000000       0x48 obj/memz80.o
 .drectve       0x00000000       0x48 obj/membnk.o
 .drectve       0x00000000       0x48 obj/memvdp.o
 .drectve       0x00000000       0x78 obj/state.o
 .drectve       0x00000000       0x28 obj/eeprom.o
 .drectve       0x00000000       0xec obj/sound.o
 .drectve       0x00000000       0x90 obj/fm.o
 .drectve       0x00000000       0x48 obj/sn76496.o
 .drectve       0x00000000      0x2fc obj/main.o
 .drectve       0x00000000       0x7c obj/error.o
 .drectve       0x00000000       0x78 obj/msg.o
 .drectve       0x00000000       0x48 obj/options.o
 .drectve       0x00000000       0x4c m68k/m68k.oa(m68kcpu.o)
 .drectve       0x00000000       0x4c m68k/m68k.oa(m68kops.o)
 .drectve       0x00000000       0xe8 C:/Dev/msys/local/lib\libSDL.a(SDL_audio.o)
 .drectve       0x00000000       0xb8 C:/Dev/msys/local/lib\libSDL.a(SDL_syssem.o)
 .drectve       0x00000000      0x11c C:/Dev/msys/local/lib\libSDL.a(SDL_sysevents.o)
 .drectve       0x00000000       0xf0 C:/Dev/msys/local/lib\libSDL.a(SDL_events.o)
 .drectve       0x00000000      0x330 C:/Dev/msys/local/lib\libSDL.a(SDL_video.o)
 .drectve       0x00000000       0x94 C:/Dev/msys/local/lib\libSDL.a(SDL.o)
 .drectve       0x00000000       0x5c C:/Dev/msys/local/lib\libSDL.a(SDL_error.o)
 .drectve       0x00000000       0x2c C:/Dev/msys/local/lib\libSDL.a(SDL_systimer.o)
 .drectve       0x00000000       0x6c C:/Dev/msys/local/lib\libSDL.a(SDL_timer.o)
 .drectve       0x00000000       0x18 C:/Dev/msys/local/lib\libSDL.a(SDL_systhread.o)
 .drectve       0x00000000       0x60 C:/Dev/msys/local/lib\libSDL.a(SDL_sysmutex.o)
 .drectve       0x00000000       0x38 C:/Dev/msys/local/lib\libSDL.a(SDL_audiocvt.o)
 .drectve       0x00000000       0x2c C:/Dev/msys/local/lib\libSDL.a(SDL_string.o)
 .drectve       0x00000000       0x68 C:/Dev/msys/local/lib\libSDL.a(SDL_thread.o)
 .drectve       0x00000000       0x2c C:/Dev/msys/local/lib\libSDL.a(SDL_getenv.o)
 .drectve       0x00000000       0x1c C:/Dev/msys/local/lib\libSDL.a(SDL_active.o)
 .drectve       0x00000000       0x40 C:/Dev/msys/local/lib\libSDL.a(SDL_mouse.o)
 .drectve       0x00000000       0x64 C:/Dev/msys/local/lib\libSDL.a(SDL_iconv.o)
 .drectve       0x00000000      0x1dc C:/Dev/msys/local/lib\libSDL.a(SDL_joystick.o)
 .drectve       0x00000000       0xdc C:/Dev/msys/local/lib\libSDL.a(SDL_keyboard.o)
 .drectve       0x00000000       0x98 C:/Dev/msys/local/lib\libSDL.a(SDL_cursor.o)
 .drectve       0x00000000      0x15c C:/Dev/msys/local/lib\libSDL.a(SDL_surface.o)
 .drectve       0x00000000       0x58 C:/Dev/msys/local/lib\libSDL.a(SDL_pixels.o)
 .drectve       0x00000000      0x114 C:/Dev/msys/local/lib\libSDL.a(SDL_cdrom.o)
 .drectve       0x00000000      0x1ac C:/Dev/msys/local/lib\libSDL.a(SDL_rwops.o)
 .drectve       0x00000000       0xbc C:/Dev/msys/local/lib\libSDL.a(SDL_cpuinfo.o)
 .drectve       0x00000000       0x3c c:/Dev/TDM-GCC-32/bin/../lib/gcc/mingw32/5.1.0\libgcc.a(_ctors.o)
 .text          0x00000000        0x8 c:/Dev/TDM-GCC-32/bin/../lib/gcc/mingw32/5.1.0/../../..\libmsvcrt.a(dsnos00099.o)

Memory Configuration

Name             Origin             Length             Attributes
*default*        0x00000000         0xffffffff

Linker script and memory map

                0x00400000                __image_base__ = 0x400000
                0x00000000                __dll__ = 0x0
                0x00400000                ___ImageBase = 0x400000
                0x00001000                __section_alignment__ = 0x1000
                0x00000200                __file_alignment__ = 0x200
                0x00000004                __major_os_version__ = 0x4
                0x00000000                __minor_os_version__ = 0x0
                0x00000001                __major_image_version__ = 0x1
                0x00000000                __minor_image_version__ = 0x0
                0x00000004                __major_subsystem_version__ = 0x4
                0x00000000                __minor_subsystem_version__ = 0x0
                0x00000003                __subsystem__ = 0x3
                0x00200000                __size_of_stack_reserve__ = 0x200000
                0x00001000                __size_of_stack_commit__ = 0x1000
                0x00100000                __size_of_heap_reserve__ = 0x100000
                0x00001000                __size_of_heap_commit__ = 0x1000
                0x00000000                __loader_flags__ = 0x0
                0x00000000                __dll_characteristics__ = 0x0
LOAD c:/Dev/TDM-GCC-32/bin/../lib/gcc/mingw32/5.1.0/../../../crt2.o
LOAD c:/Dev/TDM-GCC-32/bin/../lib/gcc/mingw32/5.1.0/crtbegin.o
LOAD obj/z80.oa
LOAD obj/genesis.o
LOAD obj/vdp.o
LOAD obj/render.o
LOAD obj/system.o
LOAD obj/unzip.o
LOAD obj/fileio.o
LOAD obj/loadrom.o
LOAD obj/mio.o
LOAD obj/mem68k.o
LOAD obj/mem68k_c.o
LOAD obj/memz80.o
LOAD obj/membnk.o
LOAD obj/memvdp.o
LOAD obj/state.o
LOAD obj/gtkopts.o
LOAD obj/locopts.o
LOAD obj/eeprom.o
LOAD obj/icon.o
LOAD obj/sound.o
LOAD obj/fm.o
LOAD obj/sn76496.o
LOAD obj/main.o
LOAD obj/error.o
LOAD obj/msg.o
LOAD obj/options.o
LOAD obj/xBRZ.o
LOAD m68k/m68k.oa
LOAD C:/Dev/msys/lib\libz.a
LOAD c:/Dev/TDM-GCC-32/bin/../lib/gcc/mingw32/5.1.0/../../..\libm.a
LOAD C:/Dev/msys/local/lib\libSDL.a
LOAD c:/Dev/TDM-GCC-32/bin/../lib/gcc/mingw32/5.1.0/../../..\libwinmm.a
LOAD c:/Dev/TDM-GCC-32/bin/../lib/gcc/mingw32/5.1.0/../../..\libcomdlg32.a
LOAD c:/Dev/TDM-GCC-32/bin/../lib/gcc/mingw32/5.1.0/../../..\libgdi32.a
LOAD c:/Dev/TDM-GCC-32/bin/../lib/gcc/mingw32/5.1.0/../../..\libmingw32.a
LOAD c:/Dev/TDM-GCC-32/bin/../lib/gcc/mingw32/5.1.0\libgcc.a
LOAD c:/Dev/TDM-GCC-32/bin/../lib/gcc/mingw32/5.1.0/../../..\libmoldname.a
LOAD c:/Dev/TDM-GCC-32/bin/../lib/gcc/mingw32/5.1.0/../../..\libmingwex.a
LOAD c:/Dev/TDM-GCC-32/bin/../lib/gcc/mingw32/5.1.0/../../..\libmsvcrt.a
LOAD c:/Dev/TDM-GCC-32/bin/../lib/gcc/mingw32/5.1.0/../../..\libpthread.a
LOAD c:/Dev/TDM-GCC-32/bin/../lib/gcc/mingw32/5.1.0/../../..\libadvapi32.a
LOAD c:/Dev/TDM-GCC-32/bin/../lib/gcc/mingw32/5.1.0/../../..\libshell32.a
LOAD c:/Dev/TDM-GCC-32/bin/../lib/gcc/mingw32/5.1.0/../../..\libuser32.a
LOAD c:/Dev/TDM-GCC-32/bin/../lib/gcc/mingw32/5.1.0/../../..\libkernel32.a
LOAD c:/Dev/TDM-GCC-32/bin/../lib/gcc/mingw32/5.1.0/../../..\libmingw32.a
LOAD c:/Dev/TDM-GCC-32/bin/../lib/gcc/mingw32/5.1.0\libgcc.a
LOAD c:/Dev/TDM-GCC-32/bin/../lib/gcc/mingw32/5.1.0/../../..\libmoldname.a
LOAD c:/Dev/TDM-GCC-32/bin/../lib/gcc/mingw32/5.1.0/../../..\libmingwex.a
LOAD c:/Dev/TDM-GCC-32/bin/../lib/gcc/mingw32/5.1.0/../../..\libmsvcrt.a
LOAD c:/Dev/TDM-GCC-32/bin/../lib/gcc/mingw32/5.1.0/crtend.o
                0x00000470                . = SIZEOF_HEADERS
                0x00001000                . = ALIGN (__section_alignment__)

.text           0x00401000    0xc6800
 *(.init)
 *(.text)
 .text          0x00401000      0x2e0 c:/Dev/TDM-GCC-32/bin/../lib/gcc/mingw32/5.1.0/../../../crt2.o
                0x00401280                mainCRTStartup
                0x004012a0                WinMainCRTStartup
                0x004012c0                atexit
                0x004012d0                _onexit
 .text          0x004012e0       0x70 c:/Dev/TDM-GCC-32/bin/../lib/gcc/mingw32/5.1.0/crtbegin.o
                0x004012e0                __gcc_register_frame
                0x00401340                __gcc_deregister_frame
 .text          0x00401350    0x15230 obj/z80.oa
                0x004136a0                z80_reset
                0x00413b60                z80_exit
                0x00413ba0                z80_end_timeslice
                0x00413bb0                z80_execute
                0x00415ea0                z80_burn
                0x00415ec0                z80_get_context
                0x00415f00                z80_set_context
                0x00415f40                z80_get_cycle_table
                0x00415f60                z80_set_cycle_table
                0x00415f80                z80_get_pc
                0x00415f90                z80_set_pc
                0x00415fa0                z80_get_sp
                0x00415fb0                z80_set_sp
                0x00415fc0                z80_get_reg
                0x004161d0                z80_set_nmi_line
                0x00416200                z80_set_irq_line
                0x00416350                z80_set_reg
                0x00416570                z80_set_irq_callback
 .text          0x00416580      0x370 obj/genesis.o
                0x00416580                z80_irq_callback
                0x004165b0                gen_init
                0x00416610                gen_reset
                0x00416730                gen_shutdown
                0x00416740                gen_busack_r
                0x00416750                gen_busreq_w
                0x00416790                gen_reset_w
                0x004167f0                gen_bank_w
                0x00416810                vdp_int_ack_callback
                0x00416860                C_vdp_int_ack_callback
                0x004168b0                bswap
 .text          0x004168f0      0xf50 obj/vdp.o
                0x004168f0                vdp_init
                0x00416940                vdp_reset
                0x00416b70                vdp_shutdown
                0x00416b80                vdp_ctrl_r
                0x00416bd0                vdp_data_w
                0x00416eb0                vdp_data_r
                0x00416f60                update_irq_line
                0x00416fc0                vdp_reg_w
                0x00417410                vdp_hvc_r
                0x00417460                dma_copy
                0x00417540                dma_vbus
                0x00417600                vdp_ctrl_w
                0x00417830                vdp_test_w
 .text          0x00417840     0x2f60 obj/render.o
                0x00417840                RenderLine_X1_Buffer
                0x00417890                RenderLine_X1S1_Buffer
                0x004178e0                RenderLine_X1S2_Buffer
                0x00417950                RenderLine_X1S3_Buffer
                0x004179c0                RenderLine_X2
                0x00417a30                RenderLine_X2S1
                0x00417aa0                RenderLine_X2S2
                0x00417b30                RenderLine_X2S3
                0x00417bc0                RenderLine_X2S4
                0x00417ee0                set_renderer
                0x00417fd0                render_init
                0x004185e0                make_name_lut
                0x00418700                render_reset
                0x00418830                render_shutdown
                0x00418850                RenderLine_X1
                0x004188a0                xBRZ_2X
                0x004188c0                RenderLine_X2S5
                0x00418940                RenderLine_X2S6
                0x004189e0                render_ntw
                0x00418ad0                render_ntw_im2
                0x00418c00                update_bg_pattern_cache
                0x00418c20                get_hscroll
                0x00418cd0                render_ntx
                0x00418f50                render_ntx_im2
                0x00419250                render_ntx_vs
                0x00419550                window_clip
                0x00419660                make_lut_bg
                0x00419700                make_lut_obj
                0x00419760                make_lut_bg_ste
                0x00419800                make_lut_obj_ste
                0x00419830                make_lut_bgobj_ste
                0x00419950                merge
                0x00419990                color_update_16
                0x00419a20                color_update_32
                0x00419ab0                parse_satb
                0x00419c90                render_obj
                0x00419fb0                render_obj_im2
                0x0041a310                render_line
 .text          0x0041a7a0     0x1340 obj/system.o
                0x0041a7a0                audio_init
                0x0041a8c0                audio_reinit
                0x0041a9b0                audio_shutdown
                0x0041a9e0                system_init
                0x0041aa30                system_reset
                0x0041adb0                system_shutdown
                0x0041add0                m68k_endrun
                0x0041ae10                m68k_total_cycles
                0x0041ae30                audio_update
                0x0041af90                audio_update_f
                0x0041b120                system_frame_gens
 .text          0x0041bae0     0x2140 obj/unzip.o
                0x0041c6d0                unzStringFileNameCompare
                0x0041c750                unzOpen
                0x0041cd10                unzClose
                0x0041cd90                unzGetGlobalInfo
                0x0041cdc0                unzGetCurrentFileInfo
                0x0041ce10                unzGoToFirstFile
                0x0041ce80                unzGoToNextFile
                0x0041cf10                unzLocateFile
                0x0041d110                unzOpenCurrentFile
                0x0041d7d0                unzReadCurrentFile
                0x0041d9d0                unztell
                0x0041d9f0                unzeof
                0x0041da20                unzGetLocalExtrafield
                0x0041dae0                unzCloseCurrentFile
                0x0041db70                unzGetGlobalComment
 .text          0x0041dc20      0x2c0 obj/fileio.o
                0x0041dc20                check_zip
                0x0041dca0                gzsize
                0x0041dd10                load_archive
 .text          0x0041dee0      0x770 obj/loadrom.o
                0x0041dee0                deinterleave_block
                0x0041df20                load_rom
 .text          0x0041e650      0x420 obj/mio.o
                0x0041e650                device_3b_r
                0x0041e6e0                device_6b_w
                0x0041e710                device_6b_r
                0x0041e810                io_reset
                0x0041e890                gen_io_w
                0x0041e920                gen_io_r
                0x0041ea20                pad_2b_r
 .text          0x0041ea70       0x60 obj/mem68k.o
                0x0041ea70                m68k_read_memory_8
                0x0041ea80                m68k_read_memory_16
                0x0041ea90                m68k_read_memory_32
                0x0041eaa0                m68k_write_memory_8
                0x0041eab0                m68k_write_memory_16
                0x0041eac0                m68k_write_memory_32
 .text          0x0041ead0     0x1160 obj/mem68k_c.o
                0x0041ead0                m68k_read_bus_16_c
                0x0041eaf0                m68k_read_bus_8_c
                0x0041eb10                m68k_read_memory_8_c
                0x0041ed90                m68k_read_memory_16_c
                0x0041ef60                m68k_read_memory_32_c
                0x0041f320                m68k_write_memory_8_c
                0x0041f660                m68k_write_memory_16_c
                0x0041f7f0                m68k_write_memory_32_c
 .text          0x0041fc30      0x9d0 obj/memz80.o
                0x0041fc30                drz80_rebasePC
                0x0041fc50                drz80_rebaseSP
                0x0041fc70                drz80_in
                0x0041fc80                drz80_out
                0x0041fc90                drz80_write8
                0x0041fe00                drz80_write16
                0x00420080                cpu_writemem8
                0x00420160                cpu_writemem16
                0x00420240                z80_vdp_r
                0x004202c0                cpu_readmem8
                0x00420340                cpu_readmem16
                0x004203c0                drz80_read8
                0x00420430                drz80_read16
                0x00420570                z80_vdp_w
                0x004205e0                cpu_readport16
                0x004205f0                cpu_writeport16
 .text          0x00420600      0x3b0 obj/membnk.o
                0x00420600                z80_write_banked_memory
                0x00420720                z80_read_banked_memory
                0x00420830                z80bank_vdp_w
                0x004208c0                z80bank_vdp_r
                0x00420970                z80bank_unused_w
                0x00420980                z80bank_unused_r
                0x00420990                z80bank_lockup_w
                0x004209a0                z80bank_lockup_r
 .text          0x004209b0       0x90 obj/memvdp.o
                0x004209b0                vdp_dma_r
 .text          0x00420a40     0x1f00 obj/state.o
                0x00420a40                load_sram
                0x00420ac0                save_sram
                0x00420b40                GetStateFileName
                0x00420b80                state_delete
                0x00420be0                state_load
                0x00421b20                state_save
 .text          0x00422940      0x8a0 obj/gtkopts.o
                0x00422990                gtkopts_load
                0x00422df0                gtkopts_getvalue
                0x00422e90                gtkopts_setvalue
                0x00423030                gtkopts_save
 .text          0x004231e0      0x8e0 obj/locopts.o
                0x00423230                locopts_load
                0x004236f0                locopts_getvalue
                0x00423790                locopts_setvalue
                0x00423930                locopts_save
 .text          0x00423ac0      0x790 obj/eeprom.o
                0x00423ac0                SRAMWriteEEPROM
                0x00423db0                SRAMReadEEPROM
                0x004241e0                SRAMUpdPending
 .text          0x00424250       0xf0 obj/sound.o
                0x00424250                fm_write
                0x004242d0                psg_write
 .text          0x00424340     0x4100 obj/fm.o
                0x004256d0                YM2612UpdateOne
                0x00426890                YM2612Shutdown
                0x004268a0                YM2612ResetChip
                0x004278f0                YM2612Init
                0x00427ad0                YM2612Write
                0x00427b60                YM2612Read
                0x00427b70                YM2612TimerTick
                0x00427d40                YM2612PostLoad
                0x004282a0                YM2612Save
                0x004283d0                YM2612Load
 .text          0x00428440      0xc70 obj/sn76496.o
                0x00428440                SN76496Write
                0x00428660                SN76496Update
                0x004289b0                SN76496_set_clock
                0x00428a00                SN76496_set_gain
                0x00428c30                SN76496_init
                0x00428d50                SN76496_sh_start
 .text          0x004290b0     0x2d30 obj/main.o
                0x004290b0                UpdateToolbarNull
                0x004290c0                my_callbackfunc
                0x00429140                PrepareToolbarLS
                0x00429500                sdl_soundcallback
                0x00429560                Pause
                0x00429590                UnPause
                0x004295d0                UpdateConfigBar
                0x00429650                UpdateToolbarLS
                0x004297e0                HandleMiniToolbar
                0x00429c20                CopyToTemp
                0x00429cf0                CopyFromTemp
                0x00429dc0                LoadConfigBar
                0x00429ed0                HandleKeyConfig
                0x00429ee0                HandleTzConfig
                0x00429ef0                b2s
                0x00429f10                ClearAll
                0x00429f40                SetHandlers
                0x0042a020                ReinitScreen
                0x0042a1d0                ReinitRender
                0x0042a1f0                ExitApp
                0x0042a200                sdl_soundstart
                0x0042a320                HandleToolbar
                0x0042aab0                HandleMouseButtonSQ
                0x0042abd0                HandleMouseButtonPT
                0x0042acf0                HandleMouseButtonLS
                0x0042ae10                sdl_soundstop
                0x0042ae40                WinMain@16
                0x0042bdb0                _GetGAPIBuffer
                0x0042bdc0                _FreeGAPIBuffer
 .text          0x0042bde0       0x30 obj/error.o
                0x0042bde0                error_init
                0x0042bdf0                error_shutdown
                0x0042be00                error
 .text          0x0042be10      0x670 obj/msg.o
                0x0042be10                DrawLine_X
                0x0042bec0                AddMessage
                0x0042bed0                ShiftMessages
                0x0042bf80                ProcessMessages
                0x0042c210                draw_text
                0x0042c310                PutBuffer
                0x0042c380                UpdateFromCache
                0x0042c400                UpdateCache
 .text          0x0042c480     0x1b00 obj/options.o
                0x0042c480                get_num_val
                0x0042c4b0                get_tz
                0x0042c5c0                lget_num_val
                0x0042c600                lget_tz
                0x0042c730                get_global_opts
                0x0042cd40                get_local_opts
                0x0042d4a0                set_local_opts
 .text          0x0042df80     0x3220 obj/xBRZ.o
                0x00431180                xBRZScale_2X
                0x00431190                xBRZScale_Init
 .text          0x004311a0     0x1b10 m68k/m68k.oa(m68kcpu.o)
                0x00431200                m68k_get_reg
                0x00431400                m68k_set_int_ack_callback
                0x00431420                m68k_set_bkpt_ack_callback
                0x00431440                m68k_set_reset_instr_callback
                0x00431460                m68k_set_pc_changed_callback
                0x00431480                m68k_set_fc_callback
                0x004314a0                m68k_set_instr_hook_callback
                0x004314c0                m68k_set_cpu_type
                0x004316d0                m68k_set_reg
                0x00431cf0                m68k_execute
                0x00431dc0                m68k_cycles_run
                0x00431dd0                m68k_cycles_remaining
                0x00431de0                m68k_modify_timeslice
                0x00431e00                m68k_end_timeslice
                0x00431e20                m68k_set_irq
                0x00432490                m68k_pulse_reset
                0x00432650                m68k_pulse_halt
                0x00432660                m68k_context_size
                0x00432670                m68k_get_context
                0x004326a0                m68k_set_context
                0x004326d0                m68k_save_context
                0x004329e0                m68k_load_context
 .text          0x00432cb0      0x8b0 m68k/m68k.oa(m68kops.o)
                0x00432cb0                m68ki_build_opcode_table
 .text          0x00433560    0x1e180 m68k/m68k.oa(m68kopdm.o)
                0x00434060                m68k_op_dbt_16
                0x00434070                m68k_op_dbf_16
                0x004340e0                m68k_op_dbhi_16
                0x00434190                m68k_op_dbls_16
                0x00434240                m68k_op_dbcc_16
                0x004342e0                m68k_op_dbcs_16
                0x00434380                m68k_op_dbne_16
                0x00434430                m68k_op_dbeq_16
                0x004344e0                m68k_op_dbvc_16
                0x00434580                m68k_op_dbvs_16
                0x00434620                m68k_op_dbpl_16
                0x004346c0                m68k_op_dbmi_16
                0x00434760                m68k_op_dbge_16
                0x00434810                m68k_op_dblt_16
                0x004348c0                m68k_op_dbgt_16
                0x00434970                m68k_op_dble_16
                0x00434a30                m68k_op_divs_16_d
                0x00434af0                m68k_op_divs_16_ai
                0x00434bd0                m68k_op_divs_16_pi
                0x00434cc0                m68k_op_divs_16_pd
                0x00434db0                m68k_op_divs_16_di
                0x00434eb0                m68k_op_divs_16_ix
                0x00434f90                m68k_op_divs_16_aw
                0x00435080                m68k_op_divs_16_al
                0x00435170                m68k_op_divs_16_pcdi
                0x00435260                m68k_op_divs_16_pcix
                0x00435340                m68k_op_divs_16_i
                0x00435420                m68k_op_divu_16_d
                0x004354a0                m68k_op_divu_16_ai
                0x00435530                m68k_op_divu_16_pi
                0x004355d0                m68k_op_divu_16_pd
                0x00435670                m68k_op_divu_16_di
                0x00435730                m68k_op_divu_16_ix
                0x004357d0                m68k_op_divu_16_aw
                0x00435880                m68k_op_divu_16_al
                0x00435930                m68k_op_divu_16_pcdi
                0x004359e0                m68k_op_divu_16_pcix
                0x00435a90                m68k_op_divu_16_i
                0x00435b40                m68k_op_divl_32_d
                0x00435e60                m68k_op_divl_32_ai
                0x00436190                m68k_op_divl_32_pi
                0x004364d0                m68k_op_divl_32_pd
                0x00436810                m68k_op_divl_32_di
                0x00436b60                m68k_op_divl_32_ix
                0x00436e90                m68k_op_divl_32_aw
                0x004371d0                m68k_op_divl_32_al
                0x00437510                m68k_op_divl_32_pcdi
                0x00437850                m68k_op_divl_32_pcix
                0x00437b80                m68k_op_divl_32_i
                0x00437eb0                m68k_op_eor_8_d
                0x00437f00                m68k_op_eor_8_ai
                0x00437f80                m68k_op_eor_8_pi
                0x00438000                m68k_op_eor_8_pi7
                0x00438070                m68k_op_eor_8_pd
                0x004380f0                m68k_op_eor_8_pd7
                0x00438160                m68k_op_eor_8_di
                0x00438200                m68k_op_eor_8_ix
                0x00438280                m68k_op_eor_8_aw
                0x00438310                m68k_op_eor_8_al
                0x004383a0                m68k_op_eor_16_d
                0x004383f0                m68k_op_eor_16_ai
                0x00438460                m68k_op_eor_16_pi
                0x004384f0                m68k_op_eor_16_pd
                0x00438580                m68k_op_eor_16_di
                0x00438620                m68k_op_eor_16_ix
                0x004386a0                m68k_op_eor_16_aw
                0x00438730                m68k_op_eor_16_al
                0x004387c0                m68k_op_eor_32_d
                0x00438810                m68k_op_eor_32_ai
                0x00438890                m68k_op_eor_32_pi
                0x00438910                m68k_op_eor_32_pd
                0x00438990                m68k_op_eor_32_di
                0x00438a30                m68k_op_eor_32_ix
                0x00438ab0                m68k_op_eor_32_aw
                0x00438b40                m68k_op_eor_32_al
                0x00438bd0                m68k_op_eori_8_d
                0x00438c30                m68k_op_eori_8_ai
                0x00438cb0                m68k_op_eori_8_pi
                0x00438d40                m68k_op_eori_8_pi7
                0x00438dc0                m68k_op_eori_8_pd
                0x00438e50                m68k_op_eori_8_pd7
                0x00438ed0                m68k_op_eori_8_di
                0x00438f90                m68k_op_eori_8_ix
                0x00439020                m68k_op_eori_8_aw
                0x004390b0                m68k_op_eori_8_al
                0x00439140                m68k_op_eori_16_d
                0x004391a0                m68k_op_eori_16_ai
                0x00439220                m68k_op_eori_16_pi
                0x004392b0                m68k_op_eori_16_pd
                0x00439340                m68k_op_eori_16_di
                0x00439400                m68k_op_eori_16_ix
                0x00439490                m68k_op_eori_16_aw
                0x00439520                m68k_op_eori_16_al
                0x004395b0                m68k_op_eori_32_d
                0x00439610                m68k_op_eori_32_ai
                0x00439690                m68k_op_eori_32_pi
                0x00439720                m68k_op_eori_32_pd
                0x004397b0                m68k_op_eori_32_di
                0x00439870                m68k_op_eori_32_ix
                0x00439900                m68k_op_eori_32_aw
                0x00439990                m68k_op_eori_32_al
                0x00439a20                m68k_op_eori_16_toc
                0x00439ae0                m68k_op_eori_16_tos
                0x00439f90                m68k_op_exg_32_dd
                0x00439fc0                m68k_op_exg_32_aa
                0x0043a000                m68k_op_exg_32_da
                0x0043a040                m68k_op_ext_16
                0x0043a0a0                m68k_op_ext_32
                0x0043a0f0                m68k_op_extb_32
                0x0043a150                m68k_op_illegal
                0x0043a160                m68k_op_jmp_32_ai
                0x0043a190                m68k_op_jmp_32_di
                0x0043a1e0                m68k_op_jmp_32_ix
                0x0043a210                m68k_op_jmp_32_aw
                0x0043a250                m68k_op_jmp_32_al
                0x0043a290                m68k_op_jmp_32_pcdi
                0x0043a2d0                m68k_op_jmp_32_pcix
                0x0043a300                m68k_op_jsr_32_ai
                0x0043a350                m68k_op_jsr_32_di
                0x0043a3c0                m68k_op_jsr_32_ix
                0x0043a410                m68k_op_jsr_32_aw
                0x0043a470                m68k_op_jsr_32_al
                0x0043a4d0                m68k_op_jsr_32_pcdi
                0x0043a530                m68k_op_jsr_32_pcix
                0x0043a580                m68k_op_lea_32_ai
                0x0043a5a0                m68k_op_lea_32_di
                0x0043a600                m68k_op_lea_32_ix
                0x0043a630                m68k_op_lea_32_aw
                0x0043a670                m68k_op_lea_32_al
                0x0043a6b0                m68k_op_lea_32_pcdi
                0x0043a700                m68k_op_lea_32_pcix
                0x0043a730                m68k_op_link_16_a7
                0x0043a790                m68k_op_link_16
                0x0043a810                m68k_op_link_32_a7
                0x0043a880                m68k_op_link_32
                0x0043a910                m68k_op_lsr_8_s
                0x0043a990                m68k_op_lsr_16_s
                0x0043aa10                m68k_op_lsr_32_s
                0x0043aa70                m68k_op_lsr_8_r
                0x0043ab90                m68k_op_lsr_16_r
                0x0043aca0                m68k_op_lsr_32_r
                0x0043adb0                m68k_op_lsr_16_ai
                0x0043ae30                m68k_op_lsr_16_pi
                0x0043aec0                m68k_op_lsr_16_pd
                0x0043af50                m68k_op_lsr_16_di
                0x0043aff0                m68k_op_lsr_16_ix
                0x0043b080                m68k_op_lsr_16_aw
                0x0043b110                m68k_op_lsr_16_al
                0x0043b1a0                m68k_op_lsl_8_s
                0x0043b200                m68k_op_lsl_16_s
                0x0043b270                m68k_op_lsl_32_s
                0x0043b2d0                m68k_op_lsl_8_r
                0x0043b3e0                m68k_op_lsl_16_r
                0x0043b4f0                m68k_op_lsl_32_r
                0x0043b610                m68k_op_lsl_16_ai
                0x0043b690                m68k_op_lsl_16_pi
                0x0043b720                m68k_op_lsl_16_pd
                0x0043b7b0                m68k_op_lsl_16_di
                0x0043b860                m68k_op_lsl_16_ix
                0x0043b8f0                m68k_op_lsl_16_aw
                0x0043b990                m68k_op_lsl_16_al
                0x0043ba30                m68k_op_move_8_d_d
                0x0043ba70                m68k_op_move_8_d_ai
                0x0043bae0                m68k_op_move_8_d_pi
                0x0043bb50                m68k_op_move_8_d_pi7
                0x0043bbb0                m68k_op_move_8_d_pd
                0x0043bc20                m68k_op_move_8_d_pd7
                0x0043bc80                m68k_op_move_8_d_di
                0x0043bd10                m68k_op_move_8_d_ix
                0x0043bd80                m68k_op_move_8_d_aw
                0x0043bdf0                m68k_op_move_8_d_al
                0x0043be60                m68k_op_move_8_d_pcdi
                0x0043bee0                m68k_op_move_8_d_pcix
                0x0043bf40                m68k_op_move_8_d_i
                0x0043bfa0                m68k_op_move_8_ai_d
                0x0043c000                m68k_op_move_8_ai_ai
                0x0043c070                m68k_op_move_8_ai_pi
                0x0043c0f0                m68k_op_move_8_ai_pi7
                0x0043c160                m68k_op_move_8_ai_pd
                0x0043c1e0                m68k_op_move_8_ai_pd7
                0x0043c250                m68k_op_move_8_ai_di
                0x0043c2e0                m68k_op_move_8_ai_ix
                0x0043c360                m68k_op_move_8_ai_aw
                0x0043c3e0                m68k_op_move_8_ai_al
                0x0043c460                m68k_op_move_8_ai_pcdi
                0x0043c4e0                m68k_op_move_8_ai_pcix
                0x0043c550                m68k_op_move_8_ai_i
                0x0043c5c0                m68k_op_move_8_pi7_d
                0x0043c620                m68k_op_move_8_pi_d
                0x0043c690                m68k_op_move_8_pi7_ai
                0x0043c700                m68k_op_move_8_pi7_pi
                0x0043c780                m68k_op_move_8_pi7_pi7
                0x0043c7f0                m68k_op_move_8_pi7_pd
                0x0043c870                m68k_op_move_8_pi7_pd7
                0x0043c8e0                m68k_op_move_8_pi7_di
                0x0043c970                m68k_op_move_8_pi7_ix
                0x0043c9e0                m68k_op_move_8_pi7_aw
                0x0043ca60                m68k_op_move_8_pi7_al
                0x0043cae0                m68k_op_move_8_pi7_pcdi
                0x0043cb60                m68k_op_move_8_pi7_pcix
                0x0043cbd0                m68k_op_move_8_pi7_i
                0x0043cc40                m68k_op_move_8_pi_ai
                0x0043ccc0                m68k_op_move_8_pi_pi
                0x0043cd50                m68k_op_move_8_pi_pi7
                0x0043cdd0                m68k_op_move_8_pi_pd
                0x0043ce60                m68k_op_move_8_pi_pd7
                0x0043cee0                m68k_op_move_8_pi_di
                0x0043cf80                m68k_op_move_8_pi_ix
                0x0043d000                m68k_op_move_8_pi_aw
                0x0043d090                m68k_op_move_8_pi_al
                0x0043d120                m68k_op_move_8_pi_pcdi
                0x0043d1b0                m68k_op_move_8_pi_pcix
                0x0043d230                m68k_op_move_8_pi_i
                0x0043d2b0                m68k_op_move_8_pd7_d
                0x0043d310                m68k_op_move_8_pd_d
                0x0043d380                m68k_op_move_8_pd7_ai
                0x0043d3f0                m68k_op_move_8_pd7_pi
                0x0043d470                m68k_op_move_8_pd7_pi7
                0x0043d4e0                m68k_op_move_8_pd7_pd
                0x0043d560                m68k_op_move_8_pd7_pd7
                0x0043d5d0                m68k_op_move_8_pd7_di
                0x0043d660                m68k_op_move_8_pd7_ix
                0x0043d6d0                m68k_op_move_8_pd7_aw
                0x0043d750                m68k_op_move_8_pd7_al
                0x0043d7d0                m68k_op_move_8_pd7_pcdi
                0x0043d850                m68k_op_move_8_pd7_pcix
                0x0043d8c0                m68k_op_move_8_pd7_i
                0x0043d930                m68k_op_move_8_pd_ai
                0x0043d9b0                m68k_op_move_8_pd_pi
                0x0043da40                m68k_op_move_8_pd_pi7
                0x0043dac0                m68k_op_move_8_pd_pd
                0x0043db50                m68k_op_move_8_pd_pd7
                0x0043dbd0                m68k_op_move_8_pd_di
                0x0043dc70                m68k_op_move_8_pd_ix
                0x0043dcf0                m68k_op_move_8_pd_aw
                0x0043dd80                m68k_op_move_8_pd_al
                0x0043de10                m68k_op_move_8_pd_pcdi
                0x0043dea0                m68k_op_move_8_pd_pcix
                0x0043df20                m68k_op_move_8_pd_i
                0x0043dfa0                m68k_op_move_8_di_d
                0x0043e020                m68k_op_move_8_di_ai
                0x0043e0b0                m68k_op_move_8_di_pi
                0x0043e150                m68k_op_move_8_di_pi7
                0x0043e1e0                m68k_op_move_8_di_pd
                0x0043e280                m68k_op_move_8_di_pd7
                0x0043e310                m68k_op_move_8_di_di
                0x0043e3c0                m68k_op_move_8_di_ix
                0x0043e460                m68k_op_move_8_di_aw
                0x0043e500                m68k_op_move_8_di_al
                0x0043e5a0                m68k_op_move_8_di_pcdi
                0x0043e640                m68k_op_move_8_di_pcix
                0x0043e6d0                m68k_op_move_8_di_i
                0x0043e760                m68k_op_move_8_ix_d
                0x0043e7c0                m68k_op_move_8_ix_ai
                0x0043e830                m68k_op_move_8_ix_pi
                0x0043e8b0                m68k_op_move_8_ix_pi7
                0x0043e920                m68k_op_move_8_ix_pd
                0x0043e9a0                m68k_op_move_8_ix_pd7
                0x0043ea10                m68k_op_move_8_ix_di
                0x0043eab0                m68k_op_move_8_ix_ix
                0x0043eb30                m68k_op_move_8_ix_aw
                0x0043ebc0                m68k_op_move_8_ix_al
                0x0043ec40                m68k_op_move_8_ix_pcdi
                0x0043ecd0                m68k_op_move_8_ix_pcix
                0x0043ed40                m68k_op_move_8_ix_i
                0x0043edb0                m68k_op_move_8_aw_d
                0x0043ee20                m68k_op_move_8_aw_ai
                0x0043eea0                m68k_op_move_8_aw_pi
                0x0043ef30                m68k_op_move_8_aw_pi7
                0x0043efb0                m68k_op_move_8_aw_pd
                0x0043f040                m68k_op_move_8_aw_pd7
                0x0043f0c0                m68k_op_move_8_aw_di
                0x0043f160                m68k_op_move_8_aw_ix
                0x0043f1e0                m68k_op_move_8_aw_aw
                0x0043f270                m68k_op_move_8_aw_al
                0x0043f300                m68k_op_move_8_aw_pcdi
                0x0043f390                m68k_op_move_8_aw_pcix
                0x0043f410                m68k_op_move_8_aw_i
                0x0043f490                m68k_op_move_8_al_d
                0x0043f500                m68k_op_move_8_al_ai
                0x0043f580                m68k_op_move_8_al_pi
                0x0043f610                m68k_op_move_8_al_pi7
                0x0043f690                m68k_op_move_8_al_pd
                0x0043f720                m68k_op_move_8_al_pd7
                0x0043f7a0                m68k_op_move_8_al_di
                0x0043f840                m68k_op_move_8_al_ix
                0x0043f8c0                m68k_op_move_8_al_aw
                0x0043f950                m68k_op_move_8_al_al
                0x0043f9e0                m68k_op_move_8_al_pcdi
                0x0043fa70                m68k_op_move_8_al_pcix
                0x0043faf0                m68k_op_move_8_al_i
                0x0043fb70                m68k_op_move_16_d_d
                0x0043fbb0                m68k_op_move_16_d_a
                0x0043fbf0                m68k_op_move_16_d_ai
                0x0043fc60                m68k_op_move_16_d_pi
                0x0043fce0                m68k_op_move_16_d_pd
                0x0043fd60                m68k_op_move_16_d_di
                0x0043fdf0                m68k_op_move_16_d_ix
                0x0043fe60                m68k_op_move_16_d_aw
                0x0043fee0                m68k_op_move_16_d_al
                0x0043ff60                m68k_op_move_16_d_pcdi
                0x0043ffe0                m68k_op_move_16_d_pcix
                0x00440050                m68k_op_move_16_d_i
                0x004400c0                m68k_op_move_16_ai_d
                0x00440120                m68k_op_move_16_ai_a
                0x00440180                m68k_op_move_16_ai_ai
                0x004401f0                m68k_op_move_16_ai_pi
                0x00440270                m68k_op_move_16_ai_pd
                0x004402f0                m68k_op_move_16_ai_di
                0x00440390                m68k_op_move_16_ai_ix
                0x00440410                m68k_op_move_16_ai_aw
                0x004404a0                m68k_op_move_16_ai_al
                0x00440520                m68k_op_move_16_ai_pcdi
                0x004405b0                m68k_op_move_16_ai_pcix
                0x00440620                m68k_op_move_16_ai_i
                0x00440690                m68k_op_move_16_pi_d
                0x00440700                m68k_op_move_16_pi_a
                0x00440770                m68k_op_move_16_pi_ai
                0x004407f0                m68k_op_move_16_pi_pi
                0x00440880                m68k_op_move_16_pi_pd
                0x00440910                m68k_op_move_16_pi_di
                0x004409b0                m68k_op_move_16_pi_ix
                0x00440a40                m68k_op_move_16_pi_aw
                0x00440ad0                m68k_op_move_16_pi_al
                0x00440b60                m68k_op_move_16_pi_pcdi
                0x00440bf0                m68k_op_move_16_pi_pcix
                0x00440c70                m68k_op_move_16_pi_i
                0x00440cf0                m68k_op_move_16_pd_d
                0x00440d60                m68k_op_move_16_pd_a
                0x00440dd0                m68k_op_move_16_pd_ai
                0x00440e50                m68k_op_move_16_pd_pi
                0x00440ee0                m68k_op_move_16_pd_pd
                0x00440f70                m68k_op_move_16_pd_di
                0x00441010                m68k_op_move_16_pd_ix
                0x004410a0                m68k_op_move_16_pd_aw
                0x00441130                m68k_op_move_16_pd_al
                0x004411c0                m68k_op_move_16_pd_pcdi
                0x00441250                m68k_op_move_16_pd_pcix
                0x004412d0                m68k_op_move_16_pd_i
                0x00441350                m68k_op_move_16_di_d
                0x004413d0                m68k_op_move_16_di_a
                0x00441450                m68k_op_move_16_di_ai
                0x004414e0                m68k_op_move_16_di_pi
                0x00441580                m68k_op_move_16_di_pd
                0x00441620                m68k_op_move_16_di_di
                0x004416e0                m68k_op_move_16_di_ix
                0x00441780                m68k_op_move_16_di_aw
                0x00441830                m68k_op_move_16_di_al
                0x004418e0                m68k_op_move_16_di_pcdi
                0x00441990                m68k_op_move_16_di_pcix
                0x00441a20                m68k_op_move_16_di_i
                0x00441ab0                m68k_op_move_16_ix_d
                0x00441b20                m68k_op_move_16_ix_a
                0x00441b90                m68k_op_move_16_ix_ai
                0x00441c10                m68k_op_move_16_ix_pi
                0x00441ca0                m68k_op_move_16_ix_pd
                0x00441d30                m68k_op_move_16_ix_di
                0x00441dd0                m68k_op_move_16_ix_ix
                0x00441e50                m68k_op_move_16_ix_aw
                0x00441ee0                m68k_op_move_16_ix_al
                0x00441f70                m68k_op_move_16_ix_pcdi
                0x00442000                m68k_op_move_16_ix_pcix
                0x00442070                m68k_op_move_16_ix_i
                0x004420f0                m68k_op_move_16_aw_d
                0x00442160                m68k_op_move_16_aw_a
                0x004421d0                m68k_op_move_16_aw_ai
                0x00442250                m68k_op_move_16_aw_pi
                0x004422e0                m68k_op_move_16_aw_pd
                0x00442370                m68k_op_move_16_aw_di
                0x00442410                m68k_op_move_16_aw_ix
                0x004424a0                m68k_op_move_16_aw_aw
                0x00442530                m68k_op_move_16_aw_al
                0x004425c0                m68k_op_move_16_aw_pcdi
                0x00442650                m68k_op_move_16_aw_pcix
                0x004426d0                m68k_op_move_16_aw_i
                0x00442750                m68k_op_move_16_al_d
                0x004427c0                m68k_op_move_16_al_a
                0x00442830                m68k_op_move_16_al_ai
                0x004428b0                m68k_op_move_16_al_pi
                0x00442940                m68k_op_move_16_al_pd
                0x004429d0                m68k_op_move_16_al_di
                0x00442a70                m68k_op_move_16_al_ix
                0x00442b00                m68k_op_move_16_al_aw
                0x00442b90                m68k_op_move_16_al_al
                0x00442c20                m68k_op_move_16_al_pcdi
                0x00442cb0                m68k_op_move_16_al_pcix
                0x00442d30                m68k_op_move_16_al_i
                0x00442db0                m68k_op_move_32_d_d
                0x00442df0                m68k_op_move_32_d_a
                0x00442e30                m68k_op_move_32_d_ai
                0x00442e90                m68k_op_move_32_d_pi
                0x00442f00                m68k_op_move_32_d_pd
                0x00442f70                m68k_op_move_32_d_di
                0x00442ff0                m68k_op_move_32_d_ix
                0x00443050                m68k_op_move_32_d_aw
                0x004430c0                m68k_op_move_32_d_al
                0x00443130                m68k_op_move_32_d_pcdi
                0x004431a0                m68k_op_move_32_d_pcix
                0x00443200                m68k_op_move_32_d_i
                0x00443260                m68k_op_move_32_ai_d
                0x004432c0                m68k_op_move_32_ai_a
                0x00443320                m68k_op_move_32_ai_ai
                0x00443390                m68k_op_move_32_ai_pi
                0x00443410                m68k_op_move_32_ai_pd
                0x00443490                m68k_op_move_32_ai_di
                0x00443530                m68k_op_move_32_ai_ix
                0x004435b0                m68k_op_move_32_ai_aw
                0x00443640                m68k_op_move_32_ai_al
                0x004436c0                m68k_op_move_32_ai_pcdi
                0x00443750                m68k_op_move_32_ai_pcix
                0x004437c0                m68k_op_move_32_ai_i
                0x00443830                m68k_op_move_32_pi_d
                0x004438a0                m68k_op_move_32_pi_a
                0x00443910                m68k_op_move_32_pi_ai
                0x00443990                m68k_op_move_32_pi_pi
                0x00443a20                m68k_op_move_32_pi_pd
                0x00443ab0                m68k_op_move_32_pi_di
                0x00443b50                m68k_op_move_32_pi_ix
                0x00443be0                m68k_op_move_32_pi_aw
                0x00443c70                m68k_op_move_32_pi_al
                0x00443d00                m68k_op_move_32_pi_pcdi
                0x00443d90                m68k_op_move_32_pi_pcix
                0x00443e10                m68k_op_move_32_pi_i
                0x00443e90                m68k_op_move_32_pd_d
                0x00443f20                m68k_op_move_32_pd_a
                0x00443fb0                m68k_op_move_32_pd_ai
                0x00444050                m68k_op_move_32_pd_pi
                0x00444100                m68k_op_move_32_pd_pd
                0x004441b0                m68k_op_move_32_pd_di
                0x00444270                m68k_op_move_32_pd_ix
                0x00444320                m68k_op_move_32_pd_aw
                0x004443d0                m68k_op_move_32_pd_al
                0x00444480                m68k_op_move_32_pd_pcdi
                0x00444530                m68k_op_move_32_pd_pcix
                0x004445d0                m68k_op_move_32_pd_i
                0x00444670                m68k_op_move_32_di_d
                0x004446f0                m68k_op_move_32_di_a
                0x00444770                m68k_op_move_32_di_ai
                0x00444800                m68k_op_move_32_di_pi
                0x004448a0                m68k_op_move_32_di_pd
                0x00444940                m68k_op_move_32_di_di
                0x00444a00                m68k_op_move_32_di_ix
                0x00444aa0                m68k_op_move_32_di_aw
                0x00444b50                m68k_op_move_32_di_al
                0x00444c00                m68k_op_move_32_di_pcdi
                0x00444cb0                m68k_op_move_32_di_pcix
                0x00444d40                m68k_op_move_32_di_i
                0x00444dd0                m68k_op_move_32_ix_d
                0x00444e30                m68k_op_move_32_ix_a
                0x00444e90                m68k_op_move_32_ix_ai
                0x00444f10                m68k_op_move_32_ix_pi
                0x00444fa0                m68k_op_move_32_ix_pd
                0x00445030                m68k_op_move_32_ix_di
                0x004450d0                m68k_op_move_32_ix_ix
                0x00445150                m68k_op_move_32_ix_aw
                0x004451e0                m68k_op_move_32_ix_al
                0x00445270                m68k_op_move_32_ix_pcdi
                0x00445300                m68k_op_move_32_ix_pcix
                0x00445370                m68k_op_move_32_ix_i
                0x004453f0                m68k_op_move_32_aw_d
                0x00445460                m68k_op_move_32_aw_a
                0x004454d0                m68k_op_move_32_aw_ai
                0x00445550                m68k_op_move_32_aw_pi
                0x004455e0                m68k_op_move_32_aw_pd
                0x00445670                m68k_op_move_32_aw_di
                0x00445710                m68k_op_move_32_aw_ix
                0x004457a0                m68k_op_move_32_aw_aw
                0x00445830                m68k_op_move_32_aw_al
                0x004458c0                m68k_op_move_32_aw_pcdi
                0x00445950                m68k_op_move_32_aw_pcix
                0x004459d0                m68k_op_move_32_aw_i
                0x00445a50                m68k_op_move_32_al_d
                0x00445ac0                m68k_op_move_32_al_a
                0x00445b30                m68k_op_move_32_al_ai
                0x00445bb0                m68k_op_move_32_al_pi
                0x00445c40                m68k_op_move_32_al_pd
                0x00445cd0                m68k_op_move_32_al_di
                0x00445d70                m68k_op_move_32_al_ix
                0x00445e00                m68k_op_move_32_al_aw
                0x00445e90                m68k_op_move_32_al_al
                0x00445f20                m68k_op_move_32_al_pcdi
                0x00445fb0                m68k_op_move_32_al_pcix
                0x00446030                m68k_op_move_32_al_i
                0x004460b0                m68k_op_movea_16_d
                0x004460d0                m68k_op_movea_16_a
                0x004460f0                m68k_op_movea_16_ai
                0x00446130                m68k_op_movea_16_pi
                0x00446180                m68k_op_movea_16_pd
                0x004461d0                m68k_op_movea_16_di
                0x00446240                m68k_op_movea_16_ix
                0x00446280                m68k_op_movea_16_aw
                0x004462e0                m68k_op_movea_16_al
                0x00446330                m68k_op_movea_16_pcdi
                0x00446390                m68k_op_movea_16_pcix
                0x004463d0                m68k_op_movea_16_i
                0x00446410                m68k_op_movea_32_d
                0x00446430                m68k_op_movea_32_a
                0x00446450                m68k_op_movea_32_ai
                0x00446490                m68k_op_movea_32_pi
                0x004464e0                m68k_op_movea_32_pd
                0x00446530                m68k_op_movea_32_di
                0x004465a0                m68k_op_movea_32_ix
                0x004465e0                m68k_op_movea_32_aw
                0x00446630                m68k_op_movea_32_al
                0x00446680                m68k_op_movea_32_pcdi
                0x004466e0                m68k_op_movea_32_pcix
                0x00446720                m68k_op_movea_32_i
                0x00446760                m68k_op_move_16_frc_d
                0x004467f0                m68k_op_move_16_frc_ai
                0x00446880                m68k_op_move_16_frc_pi
                0x00446920                m68k_op_move_16_frc_pd
                0x004469c0                m68k_op_move_16_frc_di
                0x00446a80                m68k_op_move_16_frc_ix
                0x00446b20                m68k_op_move_16_frc_aw
                0x00446bd0                m68k_op_move_16_frc_al
                0x00446c70                m68k_op_move_16_toc_d
                0x00446cd0                m68k_op_move_16_toc_ai
                0x00446d40                m68k_op_move_16_toc_pi
                0x00446dc0                m68k_op_move_16_toc_pd
                0x00446e40                m68k_op_move_16_toc_di
                0x00446ed0                m68k_op_move_16_toc_ix
                0x00446f50                m68k_op_move_16_toc_aw
                0x00446fd0                m68k_op_move_16_toc_al
                0x00447050                m68k_op_move_16_toc_pcdi
                0x004470d0                m68k_op_move_16_toc_pcix
                0x00447140                m68k_op_move_16_toc_i
                0x004471b0                m68k_op_move_16_frs_d
                0x004472a0                m68k_op_move_16_frs_ai
                0x004473a0                m68k_op_move_16_frs_pi
                0x004474a0                m68k_op_move_16_frs_pd
                0x004475a0                m68k_op_move_16_frs_di
                0x004476c0                m68k_op_move_16_frs_ix
                0x004477c0                m68k_op_move_16_frs_aw
                0x004478d0                m68k_op_move_16_frs_al
                0x004479e0                m68k_op_move_16_tos_d
                0x00447a10                m68k_op_move_16_tos_ai
                0x00447a50                m68k_op_move_16_tos_pi
                0x00447aa0                m68k_op_move_16_tos_pd
                0x00447af0                m68k_op_move_16_tos_di
                0x00447b50                m68k_op_move_16_tos_ix
                0x00447b90                m68k_op_move_16_tos_aw
                0x00447fd0                m68k_op_move_16_tos_al
                0x00448020                m68k_op_move_16_tos_pcdi
                0x00448070                m68k_op_move_16_tos_pcix
                0x004480b0                m68k_op_move_16_tos_i
                0x004480f0                m68k_op_move_32_fru
                0x00448120                m68k_op_move_32_tou
                0x00448150                m68k_op_movec_32_cr
                0x00448320                m68k_op_movec_32_rc
                0x004484f0                m68k_op_movem_16_re_pd
                0x00448850                m68k_op_movem_16_re_ai
                0x00448ba0                m68k_op_movem_16_re_di
                0x00448f70                m68k_op_movem_16_re_ix
                0x004492d0                m68k_op_movem_16_re_aw
                0x00449630                m68k_op_movem_16_re_al
                0x00449990                m68k_op_movem_32_re_pd
                0x00449a70                m68k_op_movem_32_re_ai
                0x00449da0                m68k_op_movem_32_re_di
                0x0044a150                m68k_op_movem_32_re_ix
                0x0044a490                m68k_op_movem_32_re_aw
                0x0044a7d0                m68k_op_movem_32_re_al
                0x0044ab10                m68k_op_movem_16_er_pi
                0x0044ae20                m68k_op_movem_16_er_ai
                0x0044b120                m68k_op_movem_16_er_di
                0x0044b4a0                m68k_op_movem_16_er_ix
                0x0044b7b0                m68k_op_movem_16_er_aw
                0x0044bac0                m68k_op_movem_16_er_al
                0x0044bdd0                m68k_op_movem_16_er_pcdi
                0x0044c140                m68k_op_movem_16_er_pcix
                0x0044c440                m68k_op_movem_32_er_pi
                0x0044c740                m68k_op_movem_32_er_ai
                0x0044ca30                m68k_op_movem_32_er_di
                0x0044cda0                m68k_op_movem_32_er_ix
                0x0044d0a0                m68k_op_movem_32_er_aw
                0x0044d3a0                m68k_op_movem_32_er_al
                0x0044d6a0                m68k_op_movem_32_er_pcdi
                0x0044da00                m68k_op_movem_32_er_pcix
                0x0044dcf0                m68k_op_movep_16_re
                0x0044dd80                m68k_op_movep_32_re
                0x0044de40                m68k_op_movep_16_er
                0x0044def0                m68k_op_movep_32_er
                0x0044dfc0                m68k_op_moves_8_ai
                0x0044e0e0                m68k_op_moves_8_pi
                0x0044e210                m68k_op_moves_8_pi7
                0x0044e330                m68k_op_moves_8_pd
                0x0044e460                m68k_op_moves_8_pd7
                0x0044e580                m68k_op_moves_8_di
                0x0044e6c0                m68k_op_moves_8_ix
                0x0044e7e0                m68k_op_moves_8_aw
                0x0044e910                m68k_op_moves_8_al
                0x0044ea40                m68k_op_moves_16_ai
                0x0044eb60                m68k_op_moves_16_pi
                0x0044ec90                m68k_op_moves_16_pd
                0x0044edc0                m68k_op_moves_16_di
                0x0044ef00                m68k_op_moves_16_ix
                0x0044f020                m68k_op_moves_16_aw
                0x0044f150                m68k_op_moves_16_al
                0x0044f280                m68k_op_moves_32_ai
                0x0044f340                m68k_op_moves_32_pi
                0x0044f420                m68k_op_moves_32_pd
                0x0044f500                m68k_op_moves_32_di
                0x0044f600                m68k_op_moves_32_ix
                0x0044f6d0                m68k_op_moves_32_aw
                0x0044f7b0                m68k_op_moves_32_al
                0x0044f890                m68k_op_moveq_32
                0x0044f8d0                m68k_op_muls_16_d
                0x0044f920                m68k_op_muls_16_ai
                0x0044f980                m68k_op_muls_16_pi
                0x0044f9f0                m68k_op_muls_16_pd
                0x0044fa60                m68k_op_muls_16_di
                0x0044faf0                m68k_op_muls_16_ix
                0x0044fb60                m68k_op_muls_16_aw
                0x0044fbe0                m68k_op_muls_16_al
                0x0044fc60                m68k_op_muls_16_pcdi
                0x0044fce0                m68k_op_muls_16_pcix
                0x0044fd40                m68k_op_muls_16_i
                0x0044fdb0                m68k_op_mulu_16_d
                0x0044fe00                m68k_op_mulu_16_ai
                0x0044fe60                m68k_op_mulu_16_pi
                0x0044fed0                m68k_op_mulu_16_pd
                0x0044ff40                m68k_op_mulu_16_di
                0x0044ffd0                m68k_op_mulu_16_ix
                0x00450040                m68k_op_mulu_16_aw
                0x004500c0                m68k_op_mulu_16_al
                0x00450140                m68k_op_mulu_16_pcdi
                0x004501c0                m68k_op_mulu_16_pcix
                0x00450220                m68k_op_mulu_16_i
                0x00450290                m68k_op_mull_32_d
                0x00450450                m68k_op_mull_32_ai
                0x00450620                m68k_op_mull_32_pi
                0x00450800                m68k_op_mull_32_pd
                0x004509e0                m68k_op_mull_32_di
                0x00450bd0                m68k_op_mull_32_ix
                0x00450da0                m68k_op_mull_32_aw
                0x00450f80                m68k_op_mull_32_al
                0x00451160                m68k_op_mull_32_pcdi
                0x00451340                m68k_op_mull_32_pcix
                0x00451510                m68k_op_mull_32_i
 .text          0x004516e0    0x1cfb0 m68k/m68k.oa(m68kopac.o)
                0x00451c50                m68k_op_1010
                0x00451de0                m68k_op_1111
                0x00451f70                m68k_op_abcd_8_rr
                0x00452010                m68k_op_abcd_8_mm_ax7
                0x004520e0                m68k_op_abcd_8_mm_ay7
                0x004521b0                m68k_op_abcd_8_mm_axy7
                0x00452270                m68k_op_abcd_8_mm
                0x00452350                m68k_op_add_8_er_d
                0x004523c0                m68k_op_add_8_er_ai
                0x00452440                m68k_op_add_8_er_pi
                0x004524d0                m68k_op_add_8_er_pi7
                0x00452550                m68k_op_add_8_er_pd
                0x004525e0                m68k_op_add_8_er_pd7
                0x00452660                m68k_op_add_8_er_di
                0x00452700                m68k_op_add_8_er_ix
                0x00452780                m68k_op_add_8_er_aw
                0x00452810                m68k_op_add_8_er_al
                0x004528a0                m68k_op_add_8_er_pcdi
                0x00452930                m68k_op_add_8_er_pcix
                0x004529b0                m68k_op_add_8_er_i
                0x00452a30                m68k_op_add_16_er_d
                0x00452ab0                m68k_op_add_16_er_a
                0x00452b30                m68k_op_add_16_er_ai
                0x00452bd0                m68k_op_add_16_er_pi
                0x00452c70                m68k_op_add_16_er_pd
                0x00452d10                m68k_op_add_16_er_di
                0x00452dd0                m68k_op_add_16_er_ix
                0x00452e70                m68k_op_add_16_er_aw
                0x00452f20                m68k_op_add_16_er_al
                0x00452fd0                m68k_op_add_16_er_pcdi
                0x00453080                m68k_op_add_16_er_pcix
                0x00453110                m68k_op_add_16_er_i
                0x004531b0                m68k_op_add_32_er_d
                0x00453240                m68k_op_add_32_er_a
                0x004532d0                m68k_op_add_32_er_ai
                0x00453370                m68k_op_add_32_er_pi
                0x00453420                m68k_op_add_32_er_pd
                0x004534d0                m68k_op_add_32_er_di
                0x00453590                m68k_op_add_32_er_ix
                0x00453630                m68k_op_add_32_er_aw
                0x004536e0                m68k_op_add_32_er_al
                0x00453790                m68k_op_add_32_er_pcdi
                0x00453840                m68k_op_add_32_er_pcix
                0x004538e0                m68k_op_add_32_er_i
                0x00453980                m68k_op_add_8_re_ai
                0x00453a00                m68k_op_add_8_re_pi
                0x00453a90                m68k_op_add_8_re_pi7
                0x00453b10                m68k_op_add_8_re_pd
                0x00453ba0                m68k_op_add_8_re_pd7
                0x00453c20                m68k_op_add_8_re_di
                0x00453cc0                m68k_op_add_8_re_ix
                0x00453d40                m68k_op_add_8_re_aw
                0x00453dd0                m68k_op_add_8_re_al
                0x00453e60                m68k_op_add_16_re_ai
                0x00453ee0                m68k_op_add_16_re_pi
                0x00453f70                m68k_op_add_16_re_pd
                0x00454000                m68k_op_add_16_re_di
                0x004540b0                m68k_op_add_16_re_ix
                0x00454140                m68k_op_add_16_re_aw
                0x004541e0                m68k_op_add_16_re_al
                0x00454280                m68k_op_add_32_re_ai
                0x00454330                m68k_op_add_32_re_pi
                0x004543f0                m68k_op_add_32_re_pd
                0x004544b0                m68k_op_add_32_re_di
                0x00454570                m68k_op_add_32_re_ix
                0x00454620                m68k_op_add_32_re_aw
                0x004546e0                m68k_op_add_32_re_al
                0x004547a0                m68k_op_adda_16_d
                0x004547d0                m68k_op_adda_16_a
                0x00454800                m68k_op_adda_16_ai
                0x00454860                m68k_op_adda_16_pi
                0x004548d0                m68k_op_adda_16_pd
                0x00454940                m68k_op_adda_16_di
                0x004549c0                m68k_op_adda_16_ix
                0x00454c00                m68k_op_adda_16_aw
                0x00454c70                m68k_op_adda_16_al
                0x00454ce0                m68k_op_adda_16_pcdi
                0x00454d50                m68k_op_adda_16_pcix
                0x00454fa0                m68k_op_adda_16_i
                0x00455000                m68k_op_adda_32_d
                0x00455020                m68k_op_adda_32_a
                0x00455040                m68k_op_adda_32_ai
                0x004550a0                m68k_op_adda_32_pi
                0x00455110                m68k_op_adda_32_pd
                0x00455180                m68k_op_adda_32_di
                0x00455200                m68k_op_adda_32_ix
                0x00455440                m68k_op_adda_32_aw
                0x004554b0                m68k_op_adda_32_al
                0x00455520                m68k_op_adda_32_pcdi
                0x00455590                m68k_op_adda_32_pcix
                0x004557e0                m68k_op_adda_32_i
                0x00455840                m68k_op_addi_8_d
                0x004558c0                m68k_op_addi_8_ai
                0x00455950                m68k_op_addi_8_pi
                0x004559f0                m68k_op_addi_8_pi7
                0x00455a80                m68k_op_addi_8_pd
                0x00455b20                m68k_op_addi_8_pd7
                0x00455bb0                m68k_op_addi_8_di
                0x00455c70                m68k_op_addi_8_ix
                0x00455d00                m68k_op_addi_8_aw
                0x00455da0                m68k_op_addi_8_al
                0x00455e40                m68k_op_addi_16_d
                0x00455ee0                m68k_op_addi_16_ai
                0x00455f70                m68k_op_addi_16_pi
                0x00456010                m68k_op_addi_16_pd
                0x004560b0                m68k_op_addi_16_di
                0x00456180                m68k_op_addi_16_ix
                0x00456220                m68k_op_addi_16_aw
                0x004562c0                m68k_op_addi_16_al
                0x00456360                m68k_op_addi_32_d
                0x00456400                m68k_op_addi_32_ai
                0x004564c0                m68k_op_addi_32_pi
                0x00456590                m68k_op_addi_32_pd
                0x00456660                m68k_op_addi_32_di
                0x00456730                m68k_op_addi_32_ix
                0x004567f0                m68k_op_addi_32_aw
                0x004568c0                m68k_op_addi_32_al
                0x00456990                m68k_op_addq_8_d
                0x004569f0                m68k_op_addq_8_ai
                0x00456a60                m68k_op_addq_8_pi
                0x00456ae0                m68k_op_addq_8_pi7
                0x00456b60                m68k_op_addq_8_pd
                0x00456be0                m68k_op_addq_8_pd7
                0x00456c60                m68k_op_addq_8_di
                0x00456d10                m68k_op_addq_8_ix
                0x00456d90                m68k_op_addq_8_aw
                0x00456e20                m68k_op_addq_8_al
                0x00456eb0                m68k_op_addq_16_d
                0x00456f30                m68k_op_addq_16_a
                0x00456f50                m68k_op_addq_16_ai
                0x00456fd0                m68k_op_addq_16_pi
                0x00457060                m68k_op_addq_16_pd
                0x004570f0                m68k_op_addq_16_di
                0x004571a0                m68k_op_addq_16_ix
                0x00457220                m68k_op_addq_16_aw
                0x004572b0                m68k_op_addq_16_al
                0x00457340                m68k_op_addq_32_d
                0x004573a0                m68k_op_addq_32_a
                0x004573c0                m68k_op_addq_32_ai
                0x00457440                m68k_op_addq_32_pi
                0x004574d0                m68k_op_addq_32_pd
                0x00457560                m68k_op_addq_32_di
                0x00457620                m68k_op_addq_32_ix
                0x004576b0                m68k_op_addq_32_aw
                0x00457750                m68k_op_addq_32_al
                0x004577f0                m68k_op_addx_8_rr
                0x00457880                m68k_op_addx_16_rr
                0x00457910                m68k_op_addx_32_rr
                0x004579b0                m68k_op_addx_8_mm_ax7
                0x00457a60                m68k_op_addx_8_mm_ay7
                0x00457b10                m68k_op_addx_8_mm_axy7
                0x00457bb0                m68k_op_addx_8_mm
                0x00457c70                m68k_op_addx_16_mm
                0x00457d30                m68k_op_addx_32_mm
                0x00457e10                m68k_op_and_8_er_d
                0x00457e60                m68k_op_and_8_er_ai
                0x00457ed0                m68k_op_and_8_er_pi
                0x00457f50                m68k_op_and_8_er_pi7
                0x00457fc0                m68k_op_and_8_er_pd
                0x00458030                m68k_op_and_8_er_pd7
                0x00458090                m68k_op_and_8_er_di
                0x00458120                m68k_op_and_8_er_ix
                0x00458370                m68k_op_and_8_er_aw
                0x004583f0                m68k_op_and_8_er_al
                0x00458470                m68k_op_and_8_er_pcdi
                0x004584f0                m68k_op_and_8_er_pcix
                0x00458730                m68k_op_and_8_er_i
                0x004587a0                m68k_op_and_16_er_d
                0x004587f0                m68k_op_and_16_er_ai
                0x00458860                m68k_op_and_16_er_pi
                0x004588e0                m68k_op_and_16_er_pd
                0x00458960                m68k_op_and_16_er_di
                0x004589f0                m68k_op_and_16_er_ix
                0x00458c50                m68k_op_and_16_er_aw
                0x00458cd0                m68k_op_and_16_er_al
                0x00458d50                m68k_op_and_16_er_pcdi
                0x00458dd0                m68k_op_and_16_er_pcix
                0x00459020                m68k_op_and_16_er_i
                0x00459090                m68k_op_and_32_er_d
                0x004590e0                m68k_op_and_32_er_ai
                0x00459140                m68k_op_and_32_er_pi
                0x004591b0                m68k_op_and_32_er_pd
                0x00459220                m68k_op_and_32_er_di
                0x004592a0                m68k_op_and_32_er_ix
                0x004594f0                m68k_op_and_32_er_aw
                0x00459560                m68k_op_and_32_er_al
                0x004595d0                m68k_op_and_32_er_pcdi
                0x00459640                m68k_op_and_32_er_pcix
                0x00459880                m68k_op_and_32_er_i
                0x004598e0                m68k_op_and_8_re_ai
                0x00459960                m68k_op_and_8_re_pi
                0x004599e0                m68k_op_and_8_re_pi7
                0x00459a50                m68k_op_and_8_re_pd
                0x00459ad0                m68k_op_and_8_re_pd7
                0x00459b40                m68k_op_and_8_re_di
                0x00459bd0                m68k_op_and_8_re_ix
                0x00459c50                m68k_op_and_8_re_aw
                0x00459cd0                m68k_op_and_8_re_al
                0x00459d50                m68k_op_and_16_re_ai
                0x00459dd0                m68k_op_and_16_re_pi
                0x00459e60                m68k_op_and_16_re_pd
                0x00459ef0                m68k_op_and_16_re_di
                0x00459f90                m68k_op_and_16_re_ix
                0x0045a010                m68k_op_and_16_re_aw
                0x0045a0a0                m68k_op_and_16_re_al
                0x0045a130                m68k_op_and_32_re_ai
                0x0045a1b0                m68k_op_and_32_re_pi
                0x0045a230                m68k_op_and_32_re_pd
                0x0045a2b0                m68k_op_and_32_re_di
                0x0045a350                m68k_op_and_32_re_ix
                0x0045a3d0                m68k_op_and_32_re_aw
                0x0045a460                m68k_op_and_32_re_al
                0x0045a4f0                m68k_op_andi_8_d
                0x0045a550                m68k_op_andi_8_ai
                0x0045a5d0                m68k_op_andi_8_pi
                0x0045a660                m68k_op_andi_8_pi7
                0x0045a6e0                m68k_op_andi_8_pd
                0x0045a770                m68k_op_andi_8_pd7
                0x0045a7f0                m68k_op_andi_8_di
                0x0045a8b0                m68k_op_andi_8_ix
                0x0045a940                m68k_op_andi_8_aw
                0x0045a9d0                m68k_op_andi_8_al
                0x0045aa60                m68k_op_andi_16_d
                0x0045aad0                m68k_op_andi_16_ai
                0x0045ab50                m68k_op_andi_16_pi
                0x0045abe0                m68k_op_andi_16_pd
                0x0045ac70                m68k_op_andi_16_di
                0x0045ad30                m68k_op_andi_16_ix
                0x0045adc0                m68k_op_andi_16_aw
                0x0045ae60                m68k_op_andi_16_al
                0x0045aef0                m68k_op_andi_32_d
                0x0045af50                m68k_op_andi_32_ai
                0x0045afd0                m68k_op_andi_32_pi
                0x0045b060                m68k_op_andi_32_pd
                0x0045b0f0                m68k_op_andi_32_di
                0x0045b1b0                m68k_op_andi_32_ix
                0x0045b240                m68k_op_andi_32_aw
                0x0045b2e0                m68k_op_andi_32_al
                0x0045b370                m68k_op_andi_16_toc
                0x0045b430                m68k_op_andi_16_tos
                0x0045ba40                m68k_op_asr_8_s
                0x0045bad0                m68k_op_asr_16_s
                0x0045bb60                m68k_op_asr_32_s
                0x0045bbd0                m68k_op_asr_8_r
                0x0045bd50                m68k_op_asr_16_r
                0x0045bed0                m68k_op_asr_32_r
                0x0045c030                m68k_op_asr_16_ai
                0x0045c0c0                m68k_op_asr_16_pi
                0x0045c160                m68k_op_asr_16_pd
                0x0045c200                m68k_op_asr_16_di
                0x0045c2b0                m68k_op_asr_16_ix
                0x0045c350                m68k_op_asr_16_aw
                0x0045c3f0                m68k_op_asr_16_al
                0x0045c490                m68k_op_asl_8_s
                0x0045c530                m68k_op_asl_16_s
                0x0045c5d0                m68k_op_asl_32_s
                0x0045c650                m68k_op_asl_8_r
                0x0045c790                m68k_op_asl_16_r
                0x0045c8e0                m68k_op_asl_32_r
                0x0045c9f0                m68k_op_asl_16_ai
                0x0045ca90                m68k_op_asl_16_pi
                0x0045cb40                m68k_op_asl_16_pd
                0x0045cbf0                m68k_op_asl_16_di
                0x0045ccb0                m68k_op_asl_16_ix
                0x0045cd50                m68k_op_asl_16_aw
                0x0045ce00                m68k_op_asl_16_al
                0x0045ceb0                m68k_op_bhi_8
                0x0045cee0                m68k_op_bls_8
                0x0045cf10                m68k_op_bcc_8
                0x0045cf40                m68k_op_bcs_8
                0x0045cf70                m68k_op_bne_8
                0x0045cfa0                m68k_op_beq_8
                0x0045cfd0                m68k_op_bvc_8
                0x0045d000                m68k_op_bvs_8
                0x0045d030                m68k_op_bpl_8
                0x0045d060                m68k_op_bmi_8
                0x0045d090                m68k_op_bge_8
                0x0045d0c0                m68k_op_blt_8
                0x0045d0f0                m68k_op_bgt_8
                0x0045d130                m68k_op_ble_8
                0x0045d170                m68k_op_bhi_16
                0x0045d1e0                m68k_op_bls_16
                0x0045d250                m68k_op_bcc_16
                0x0045d2b0                m68k_op_bcs_16
                0x0045d310                m68k_op_bne_16
                0x0045d370                m68k_op_beq_16
                0x0045d3d0                m68k_op_bvc_16
                0x0045d430                m68k_op_bvs_16
                0x0045d490                m68k_op_bpl_16
                0x0045d4f0                m68k_op_bmi_16
                0x0045d550                m68k_op_bge_16
                0x0045d5b0                m68k_op_blt_16
                0x0045d610                m68k_op_bgt_16
                0x0045d680                m68k_op_ble_16
                0x0045d6f0                m68k_op_bhi_32
                0x0045d760                m68k_op_bls_32
                0x0045d7d0                m68k_op_bcc_32
                0x0045d830                m68k_op_bcs_32
                0x0045d890                m68k_op_bne_32
                0x0045d8f0                m68k_op_beq_32
                0x0045d950                m68k_op_bvc_32
                0x0045d9b0                m68k_op_bvs_32
                0x0045da10                m68k_op_bpl_32
                0x0045da70                m68k_op_bmi_32
                0x0045dad0                m68k_op_bge_32
                0x0045db40                m68k_op_blt_32
                0x0045dbb0                m68k_op_bgt_32
                0x0045dc20                m68k_op_ble_32
                0x0045dca0                m68k_op_bchg_32_r_d
                0x0045dce0                m68k_op_bchg_8_r_ai
                0x0045dd50                m68k_op_bchg_8_r_pi
                0x0045ddd0                m68k_op_bchg_8_r_pi7
                0x0045de40                m68k_op_bchg_8_r_pd
                0x0045deb0                m68k_op_bchg_8_r_pd7
                0x0045df20                m68k_op_bchg_8_r_di
                0x0045dfb0                m68k_op_bchg_8_r_ix
                0x0045e020                m68k_op_bchg_8_r_aw
                0x0045e0a0                m68k_op_bchg_8_r_al
                0x0045e120                m68k_op_bchg_32_s_d
                0x0045e180                m68k_op_bchg_8_s_ai
                0x0045e200                m68k_op_bchg_8_s_pi
                0x0045e290                m68k_op_bchg_8_s_pi7
                0x0045e310                m68k_op_bchg_8_s_pd
                0x0045e3a0                m68k_op_bchg_8_s_pd7
                0x0045e420                m68k_op_bchg_8_s_di
                0x0045e4d0                m68k_op_bchg_8_s_ix
                0x0045e550                m68k_op_bchg_8_s_aw
                0x0045e5e0                m68k_op_bchg_8_s_al
                0x0045e670                m68k_op_bclr_32_r_d
                0x0045e6b0                m68k_op_bclr_8_r_ai
                0x0045e720                m68k_op_bclr_8_r_pi
                0x0045e7a0                m68k_op_bclr_8_r_pi7
                0x0045e810                m68k_op_bclr_8_r_pd
                0x0045e890                m68k_op_bclr_8_r_pd7
                0x0045e900                m68k_op_bclr_8_r_di
                0x0045e990                m68k_op_bclr_8_r_ix
                0x0045ea00                m68k_op_bclr_8_r_aw
                0x0045ea80                m68k_op_bclr_8_r_al
                0x0045eb00                m68k_op_bclr_32_s_d
                0x0045eb60                m68k_op_bclr_8_s_ai
                0x0045ebe0                m68k_op_bclr_8_s_pi
                0x0045ec70                m68k_op_bclr_8_s_pi7
                0x0045ecf0                m68k_op_bclr_8_s_pd
                0x0045ed80                m68k_op_bclr_8_s_pd7
                0x0045ee00                m68k_op_bclr_8_s_di
                0x0045eeb0                m68k_op_bclr_8_s_ix
                0x0045ef30                m68k_op_bclr_8_s_aw
                0x0045efc0                m68k_op_bclr_8_s_al
                0x0045f050                m68k_op_bfchg_32_d
                0x0045f140                m68k_op_bfchg_32_ai
                0x0045f2c0                m68k_op_bfchg_32_di
                0x0045f460                m68k_op_bfchg_32_ix
                0x0045f5f0                m68k_op_bfchg_32_aw
                0x0045f780                m68k_op_bfchg_32_al
                0x0045f910                m68k_op_bfclr_32_d
                0x0045fa10                m68k_op_bfclr_32_ai
                0x0045fb90                m68k_op_bfclr_32_di
                0x0045fd30                m68k_op_bfclr_32_ix
                0x0045fec0                m68k_op_bfclr_32_aw
                0x00460050                m68k_op_bfclr_32_al
                0x004601e0                m68k_op_bfexts_32_d
                0x004602d0                m68k_op_bfexts_32_ai
                0x00460420                m68k_op_bfexts_32_di
                0x004605a0                m68k_op_bfexts_32_ix
                0x00460700                m68k_op_bfexts_32_aw
                0x00460870                m68k_op_bfexts_32_al
                0x004609e0                m68k_op_bfexts_32_pcdi
                0x00460b40                m68k_op_bfexts_32_pcix
                0x00460ca0                m68k_op_bfextu_32_d
                0x00460d90                m68k_op_bfextu_32_ai
                0x00460ee0                m68k_op_bfextu_32_di
                0x00461060                m68k_op_bfextu_32_ix
                0x004611c0                m68k_op_bfextu_32_aw
                0x00461330                m68k_op_bfextu_32_al
                0x004614a0                m68k_op_bfextu_32_pcdi
                0x00461600                m68k_op_bfextu_32_pcix
                0x00461760                m68k_op_bfffo_32_d
                0x00461880                m68k_op_bfffo_32_ai
                0x00461a00                m68k_op_bfffo_32_di
                0x00461ba0                m68k_op_bfffo_32_ix
                0x00461d20                m68k_op_bfffo_32_aw
                0x00461eb0                m68k_op_bfffo_32_al
                0x00462040                m68k_op_bfffo_32_pcdi
                0x004621d0                m68k_op_bfffo_32_pcix
                0x00462340                m68k_op_bfins_32_d
                0x00462490                m68k_op_bfins_32_ai
                0x00462640                m68k_op_bfins_32_di
                0x00462820                m68k_op_bfins_32_ix
                0x004629e0                m68k_op_bfins_32_aw
                0x00462ba0                m68k_op_bfins_32_al
                0x00462d60                m68k_op_bfset_32_d
                0x00462e50                m68k_op_bfset_32_ai
                0x00462fd0                m68k_op_bfset_32_di
                0x00463170                m68k_op_bfset_32_ix
                0x00463300                m68k_op_bfset_32_aw
                0x00463490                m68k_op_bfset_32_al
                0x00463620                m68k_op_bftst_32_d
                0x00463710                m68k_op_bftst_32_ai
                0x00463860                m68k_op_bftst_32_di
                0x004639e0                m68k_op_bftst_32_ix
                0x00463b40                m68k_op_bftst_32_aw
                0x00463cb0                m68k_op_bftst_32_al
                0x00463e20                m68k_op_bftst_32_pcdi
                0x00463f90                m68k_op_bftst_32_pcix
                0x004640f0                m68k_op_bkpt
                0x00464280                m68k_op_bra_8
                0x004642b0                m68k_op_bra_16
                0x00464300                m68k_op_bra_32
                0x00464360                m68k_op_bset_32_r_d
                0x004643a0                m68k_op_bset_8_r_ai
                0x00464410                m68k_op_bset_8_r_pi
                0x00464490                m68k_op_bset_8_r_pi7
                0x00464500                m68k_op_bset_8_r_pd
                0x00464570                m68k_op_bset_8_r_pd7
                0x004645e0                m68k_op_bset_8_r_di
                0x00464670                m68k_op_bset_8_r_ix
                0x004646e0                m68k_op_bset_8_r_aw
                0x00464760                m68k_op_bset_8_r_al
                0x004647e0                m68k_op_bset_32_s_d
                0x00464840                m68k_op_bset_8_s_ai
                0x004648c0                m68k_op_bset_8_s_pi
                0x00464950                m68k_op_bset_8_s_pi7
                0x004649d0                m68k_op_bset_8_s_pd
                0x00464a60                m68k_op_bset_8_s_pd7
                0x00464ae0                m68k_op_bset_8_s_di
                0x00464b90                m68k_op_bset_8_s_ix
                0x00464c10                m68k_op_bset_8_s_aw
                0x00464ca0                m68k_op_bset_8_s_al
                0x00464d30                m68k_op_bsr_8
                0x00464d70                m68k_op_bsr_16
                0x00464de0                m68k_op_bsr_32
                0x00464e50                m68k_op_btst_32_r_d
                0x00464e80                m68k_op_btst_8_r_ai
                0x00464ed0                m68k_op_btst_8_r_pi
                0x00464f30                m68k_op_btst_8_r_pi7
                0x00464f80                m68k_op_btst_8_r_pd
                0x00464fe0                m68k_op_btst_8_r_pd7
                0x00465030                m68k_op_btst_8_r_di
                0x004650a0                m68k_op_btst_8_r_ix
                0x004652d0                m68k_op_btst_8_r_aw
                0x00465330                m68k_op_btst_8_r_al
                0x00465390                m68k_op_btst_8_r_pcdi
                0x004653f0                m68k_op_btst_8_r_pcix
                0x00465610                m68k_op_btst_8_r_i
                0x00465660                m68k_op_btst_32_s_d
                0x004656b0                m68k_op_btst_8_s_ai
                0x00465710                m68k_op_btst_8_s_pi
                0x00465780                m68k_op_btst_8_s_pi7
                0x004657e0                m68k_op_btst_8_s_pd
                0x00465850                m68k_op_btst_8_s_pd7
                0x004658b0                m68k_op_btst_8_s_di
                0x00465930                m68k_op_btst_8_s_ix
                0x00465b80                m68k_op_btst_8_s_aw
                0x00465bf0                m68k_op_btst_8_s_al
                0x00465c60                m68k_op_btst_8_s_pcdi
                0x00465cd0                m68k_op_btst_8_s_pcix
                0x00465f10                m68k_op_callm_32_ai
                0x00465f30                m68k_op_callm_32_di
                0x00465f70                m68k_op_callm_32_ix
                0x00465fb0                m68k_op_callm_32_aw
                0x00465ff0                m68k_op_callm_32_al
                0x00466030                m68k_op_callm_32_pcdi
                0x00466070                m68k_op_callm_32_pcix
                0x004660a0                m68k_op_cas_8_ai
                0x004661b0                m68k_op_cas_8_pi
                0x004662d0                m68k_op_cas_8_pi7
                0x004663e0                m68k_op_cas_8_pd
                0x00466500                m68k_op_cas_8_pd7
                0x00466610                m68k_op_cas_8_di
                0x00466740                m68k_op_cas_8_ix
                0x00466850                m68k_op_cas_8_aw
                0x00466970                m68k_op_cas_8_al
                0x00466a90                m68k_op_cas_16_ai
                0x00466ba0                m68k_op_cas_16_pi
                0x00466cc0                m68k_op_cas_16_pd
                0x00466de0                m68k_op_cas_16_di
                0x00466f10                m68k_op_cas_16_ix
                0x00467020                m68k_op_cas_16_aw
                0x00467140                m68k_op_cas_16_al
                0x00467260                m68k_op_cas_32_ai
                0x00467370                m68k_op_cas_32_pi
                0x00467490                m68k_op_cas_32_pd
                0x004675b0                m68k_op_cas_32_di
                0x004676e0                m68k_op_cas_32_ix
                0x004677f0                m68k_op_cas_32_aw
                0x00467910                m68k_op_cas_32_al
                0x00467a30                m68k_op_cas2_16
                0x00467c40                m68k_op_cas2_32
                0x00467e00                m68k_op_chk_16_d
                0x00467e60                m68k_op_chk_16_ai
                0x00467ed0                m68k_op_chk_16_pi
                0x00467f50                m68k_op_chk_16_pd
                0x00467fd0                m68k_op_chk_16_di
                0x00468060                m68k_op_chk_16_ix
                0x004680d0                m68k_op_chk_16_aw
                0x00468150                m68k_op_chk_16_al
                0x004681d0                m68k_op_chk_16_pcdi
                0x00468250                m68k_op_chk_16_pcix
                0x004682c0                m68k_op_chk_16_i
                0x00468330                m68k_op_chk_32_d
                0x00468390                m68k_op_chk_32_ai
                0x00468400                m68k_op_chk_32_pi
                0x00468480                m68k_op_chk_32_pd
                0x00468500                m68k_op_chk_32_di
                0x004685b0                m68k_op_chk_32_ix
                0x00468630                m68k_op_chk_32_aw
                0x004686c0                m68k_op_chk_32_al
                0x00468750                m68k_op_chk_32_pcdi
                0x004687f0                m68k_op_chk_32_pcix
                0x00468860                m68k_op_chk_32_i
                0x004688e0                m68k_op_chk2cmp2_8_ai
                0x004689e0                m68k_op_chk2cmp2_8_di
                0x00468b00                m68k_op_chk2cmp2_8_ix
                0x00468c10                m68k_op_chk2cmp2_8_aw
                0x00468d20                m68k_op_chk2cmp2_8_al
                0x00468e30                m68k_op_chk2cmp2_8_pcdi
                0x00468f40                m68k_op_chk2cmp2_8_pcix
                0x00469040                m68k_op_chk2cmp2_16_ai
                0x00469150                m68k_op_chk2cmp2_16_di
                0x00469280                m68k_op_chk2cmp2_16_ix
                0x00469390                m68k_op_chk2cmp2_16_aw
                0x004694b0                m68k_op_chk2cmp2_16_al
                0x004695d0                m68k_op_chk2cmp2_16_pcdi
                0x004696f0                m68k_op_chk2cmp2_16_pcix
                0x004697f0                m68k_op_chk2cmp2_32_ai
                0x00469900                m68k_op_chk2cmp2_32_di
                0x00469a40                m68k_op_chk2cmp2_32_ix
                0x00469b60                m68k_op_chk2cmp2_32_aw
                0x00469c90                m68k_op_chk2cmp2_32_al
                0x00469db0                m68k_op_chk2cmp2_32_pcdi
                0x00469ee0                m68k_op_chk2cmp2_32_pcix
                0x00469ff0                m68k_op_clr_8_d
                0x0046a030                m68k_op_clr_8_ai
                0x0046a080                m68k_op_clr_8_pi
                0x0046a0e0                m68k_op_clr_8_pi7
                0x0046a130                m68k_op_clr_8_pd
                0x0046a190                m68k_op_clr_8_pd7
                0x0046a1e0                m68k_op_clr_8_di
                0x0046a250                m68k_op_clr_8_ix
                0x0046a2a0                m68k_op_clr_8_aw
                0x0046a300                m68k_op_clr_8_al
                0x0046a360                m68k_op_clr_16_d
                0x0046a3a0                m68k_op_clr_16_ai
                0x0046a3f0                m68k_op_clr_16_pi
                0x0046a450                m68k_op_clr_16_pd
                0x0046a4b0                m68k_op_clr_16_di
                0x0046a520                m68k_op_clr_16_ix
                0x0046a570                m68k_op_clr_16_aw
                0x0046a5d0                m68k_op_clr_16_al
                0x0046a630                m68k_op_clr_32_d
                0x0046a660                m68k_op_clr_32_ai
                0x0046a6b0                m68k_op_clr_32_pi
                0x0046a710                m68k_op_clr_32_pd
                0x0046a770                m68k_op_clr_32_di
                0x0046a7e0                m68k_op_clr_32_ix
                0x0046a830                m68k_op_clr_32_aw
                0x0046a890                m68k_op_clr_32_al
                0x0046a8f0                m68k_op_cmp_8_d
                0x0046a960                m68k_op_cmp_8_ai
                0x0046a9d0                m68k_op_cmp_8_pi
                0x0046aa40                m68k_op_cmp_8_pi7
                0x0046aaa0                m68k_op_cmp_8_pd
                0x0046ab10                m68k_op_cmp_8_pd7
                0x0046ab70                m68k_op_cmp_8_di
                0x0046ac00                m68k_op_cmp_8_ix
                0x0046ae50                m68k_op_cmp_8_aw
                0x0046aed0                m68k_op_cmp_8_al
                0x0046af40                m68k_op_cmp_8_pcdi
                0x0046afc0                m68k_op_cmp_8_pcix
                0x0046b020                m68k_op_cmp_8_i
                0x0046b090                m68k_op_cmp_16_d
                0x0046b100                m68k_op_cmp_16_a
                0x0046b170                m68k_op_cmp_16_ai
                0x0046b1e0                m68k_op_cmp_16_pi
                0x0046b260                m68k_op_cmp_16_pd
                0x0046b2e0                m68k_op_cmp_16_di
                0x0046b370                m68k_op_cmp_16_ix
                0x0046b3e0                m68k_op_cmp_16_aw
                0x0046b460                m68k_op_cmp_16_al
                0x0046b4e0                m68k_op_cmp_16_pcdi
                0x0046b560                m68k_op_cmp_16_pcix
                0x0046b5d0                m68k_op_cmp_16_i
                0x0046b640                m68k_op_cmp_32_d
                0x0046b6a0                m68k_op_cmp_32_a
                0x0046b700                m68k_op_cmp_32_ai
                0x0046b780                m68k_op_cmp_32_pi
                0x0046b810                m68k_op_cmp_32_pd
                0x0046b8a0                m68k_op_cmp_32_di
                0x0046b940                m68k_op_cmp_32_ix
                0x0046b9c0                m68k_op_cmp_32_aw
                0x0046ba50                m68k_op_cmp_32_al
                0x0046bae0                m68k_op_cmp_32_pcdi
                0x0046bb70                m68k_op_cmp_32_pcix
                0x0046bbf0                m68k_op_cmp_32_i
                0x0046bc70                m68k_op_cmpa_16_d
                0x0046bcd0                m68k_op_cmpa_16_a
                0x0046bd30                m68k_op_cmpa_16_ai
                0x0046bdb0                m68k_op_cmpa_16_pi
                0x0046be40                m68k_op_cmpa_16_pd
                0x0046bed0                m68k_op_cmpa_16_di
                0x0046bf70                m68k_op_cmpa_16_ix
                0x0046bff0                m68k_op_cmpa_16_aw
                0x0046c080                m68k_op_cmpa_16_al
                0x0046c110                m68k_op_cmpa_16_pcdi
                0x0046c1a0                m68k_op_cmpa_16_pcix
                0x0046c220                m68k_op_cmpa_16_i
                0x0046c2a0                m68k_op_cmpa_32_d
                0x0046c300                m68k_op_cmpa_32_a
                0x0046c360                m68k_op_cmpa_32_ai
                0x0046c3e0                m68k_op_cmpa_32_pi
                0x0046c470                m68k_op_cmpa_32_pd
                0x0046c500                m68k_op_cmpa_32_di
                0x0046c5a0                m68k_op_cmpa_32_ix
                0x0046c620                m68k_op_cmpa_32_aw
                0x0046c6b0                m68k_op_cmpa_32_al
                0x0046c740                m68k_op_cmpa_32_pcdi
                0x0046c7d0                m68k_op_cmpa_32_pcix
                0x0046c850                m68k_op_cmpa_32_i
                0x0046c8d0                m68k_op_cmpi_8_d
                0x0046c940                m68k_op_cmpi_8_ai
                0x0046c9b0                m68k_op_cmpi_8_pi
                0x0046ca30                m68k_op_cmpi_8_pi7
                0x0046caa0                m68k_op_cmpi_8_pd
                0x0046cb20                m68k_op_cmpi_8_pd7
                0x0046cb90                m68k_op_cmpi_8_di
                0x0046cc20                m68k_op_cmpi_8_ix
                0x0046cca0                m68k_op_cmpi_8_aw
                0x0046cd20                m68k_op_cmpi_8_al
                0x0046cda0                m68k_op_cmpi_8_pcdi
                0x0046ce40                m68k_op_cmpi_8_pcix
                0x0046cec0                m68k_op_cmpi_16_d
                0x0046cf30                m68k_op_cmpi_16_ai
                0x0046cfb0                m68k_op_cmpi_16_pi
                0x0046d040                m68k_op_cmpi_16_pd
                0x0046d0d0                m68k_op_cmpi_16_di
                0x0046d170                m68k_op_cmpi_16_ix
                0x0046d1f0                m68k_op_cmpi_16_aw
                0x0046d280                m68k_op_cmpi_16_al
                0x0046d310                m68k_op_cmpi_16_pcdi
                0x0046d3c0                m68k_op_cmpi_16_pcix
                0x0046d450                m68k_op_cmpi_32_d
                0x0046d4d0                m68k_op_cmpi_32_ai
                0x0046d560                m68k_op_cmpi_32_pi
                0x0046d600                m68k_op_cmpi_32_pd
                0x0046d6a0                m68k_op_cmpi_32_di
                0x0046d750                m68k_op_cmpi_32_ix
                0x0046d7e0                m68k_op_cmpi_32_aw
                0x0046d880                m68k_op_cmpi_32_al
                0x0046d920                m68k_op_cmpi_32_pcdi
                0x0046d9e0                m68k_op_cmpi_32_pcix
                0x0046da80                m68k_op_cmpm_8_ax7
                0x0046db00                m68k_op_cmpm_8_ay7
                0x0046db80                m68k_op_cmpm_8_axy7
                0x0046dbf0                m68k_op_cmpm_8
                0x0046dc80                m68k_op_cmpm_16
                0x0046dd20                m68k_op_cmpm_32
                0x0046ddd0                m68k_op_cpbcc_32
                0x0046df90                m68k_op_cpdbcc_32
                0x0046e150                m68k_op_cpgen_32
                0x0046e310                m68k_op_cpscc_32
                0x0046e4d0                m68k_op_cptrapcc_32
 .text          0x0046e690    0x16340 m68k/m68k.oa(m68kopnz.o)
                0x0046eda0                m68k_op_nbcd_8_d
                0x0046ee40                m68k_op_nbcd_8_ai
                0x0046ef00                m68k_op_nbcd_8_pi
                0x0046efd0                m68k_op_nbcd_8_pi7
                0x0046f090                m68k_op_nbcd_8_pd
                0x0046f160                m68k_op_nbcd_8_pd7
                0x0046f220                m68k_op_nbcd_8_di
                0x0046f310                m68k_op_nbcd_8_ix
                0x0046f3d0                m68k_op_nbcd_8_aw
                0x0046f4a0                m68k_op_nbcd_8_al
                0x0046f570                m68k_op_neg_8_d
                0x0046f5c0                m68k_op_neg_8_ai
                0x0046f620                m68k_op_neg_8_pi
                0x0046f690                m68k_op_neg_8_pi7
                0x0046f6f0                m68k_op_neg_8_pd
                0x0046f760                m68k_op_neg_8_pd7
                0x0046f7c0                m68k_op_neg_8_di
                0x0046f850                m68k_op_neg_8_ix
                0x0046f8c0                m68k_op_neg_8_aw
                0x0046f940                m68k_op_neg_8_al
                0x0046f9c0                m68k_op_neg_16_d
                0x0046fa20                m68k_op_neg_16_ai
                0x0046fa90                m68k_op_neg_16_pi
                0x0046fb10                m68k_op_neg_16_pd
                0x0046fb90                m68k_op_neg_16_di
                0x0046fc20                m68k_op_neg_16_ix
                0x0046fc90                m68k_op_neg_16_aw
                0x0046fd10                m68k_op_neg_16_al
                0x0046fd90                m68k_op_neg_32_d
                0x0046fde0                m68k_op_neg_32_ai
                0x0046fe50                m68k_op_neg_32_pi
                0x0046fed0                m68k_op_neg_32_pd
                0x0046ff50                m68k_op_neg_32_di
                0x0046fff0                m68k_op_neg_32_ix
                0x00470070                m68k_op_neg_32_aw
                0x004700f0                m68k_op_neg_32_al
                0x00470170                m68k_op_negx_8_d
                0x004701d0                m68k_op_negx_8_ai
                0x00470240                m68k_op_negx_8_pi
                0x004702c0                m68k_op_negx_8_pi7
                0x00470330                m68k_op_negx_8_pd
                0x004703b0                m68k_op_negx_8_pd7
                0x00470420                m68k_op_negx_8_di
                0x004704c0                m68k_op_negx_8_ix
                0x00470540                m68k_op_negx_8_aw
                0x004705c0                m68k_op_negx_8_al
                0x00470640                m68k_op_negx_16_d
                0x004706b0                m68k_op_negx_16_ai
                0x00470730                m68k_op_negx_16_pi
                0x004707c0                m68k_op_negx_16_pd
                0x00470850                m68k_op_negx_16_di
                0x004708f0                m68k_op_negx_16_ix
                0x00470970                m68k_op_negx_16_aw
                0x00470a00                m68k_op_negx_16_al
                0x00470a90                m68k_op_negx_32_d
                0x00470af0                m68k_op_negx_32_ai
                0x00470b70                m68k_op_negx_32_pi
                0x00470c00                m68k_op_negx_32_pd
                0x00470c90                m68k_op_negx_32_di
                0x00470d30                m68k_op_negx_32_ix
                0x00470db0                m68k_op_negx_32_aw
                0x00470e40                m68k_op_negx_32_al
                0x00470ed0                m68k_op_nop
                0x00470ee0                m68k_op_not_8_d
                0x00470f30                m68k_op_not_8_ai
                0x00470fa0                m68k_op_not_8_pi
                0x00471020                m68k_op_not_8_pi7
                0x00471090                m68k_op_not_8_pd
                0x00471110                m68k_op_not_8_pd7
                0x00471180                m68k_op_not_8_di
                0x00471210                m68k_op_not_8_ix
                0x00471280                m68k_op_not_8_aw
                0x004712f0                m68k_op_not_8_al
                0x00471360                m68k_op_not_16_d
                0x004713b0                m68k_op_not_16_ai
                0x00471420                m68k_op_not_16_pi
                0x00471490                m68k_op_not_16_pd
                0x00471500                m68k_op_not_16_di
                0x00471590                m68k_op_not_16_ix
                0x00471600                m68k_op_not_16_aw
                0x00471680                m68k_op_not_16_al
                0x00471700                m68k_op_not_32_d
                0x00471740                m68k_op_not_32_ai
                0x004717b0                m68k_op_not_32_pi
                0x00471830                m68k_op_not_32_pd
                0x004718b0                m68k_op_not_32_di
                0x00471940                m68k_op_not_32_ix
                0x004719c0                m68k_op_not_32_aw
                0x00471a40                m68k_op_not_32_al
                0x00471ac0                m68k_op_or_8_er_d
                0x00471b10                m68k_op_or_8_er_ai
                0x00471b70                m68k_op_or_8_er_pi
                0x00471be0                m68k_op_or_8_er_pi7
                0x00471c40                m68k_op_or_8_er_pd
                0x00471cb0                m68k_op_or_8_er_pd7
                0x00471d10                m68k_op_or_8_er_di
                0x00471d90                m68k_op_or_8_er_ix
                0x00471fe0                m68k_op_or_8_er_aw
                0x00472050                m68k_op_or_8_er_al
                0x004720c0                m68k_op_or_8_er_pcdi
                0x00472130                m68k_op_or_8_er_pcix
                0x00472190                m68k_op_or_8_er_i
                0x004721f0                m68k_op_or_16_er_d
                0x00472240                m68k_op_or_16_er_ai
                0x004722b0                m68k_op_or_16_er_pi
                0x00472330                m68k_op_or_16_er_pd
                0x004723b0                m68k_op_or_16_er_di
                0x00472440                m68k_op_or_16_er_ix
                0x004724b0                m68k_op_or_16_er_aw
                0x00472530                m68k_op_or_16_er_al
                0x004725b0                m68k_op_or_16_er_pcdi
                0x00472630                m68k_op_or_16_er_pcix
                0x00472690                m68k_op_or_16_er_i
                0x00472700                m68k_op_or_32_er_d
                0x00472750                m68k_op_or_32_er_ai
                0x004727b0                m68k_op_or_32_er_pi
                0x00472820                m68k_op_or_32_er_pd
                0x00472890                m68k_op_or_32_er_di
                0x00472920                m68k_op_or_32_er_ix
                0x00472990                m68k_op_or_32_er_aw
                0x00472a00                m68k_op_or_32_er_al
                0x00472a70                m68k_op_or_32_er_pcdi
                0x00472af0                m68k_op_or_32_er_pcix
                0x00472d30                m68k_op_or_32_er_i
                0x00472d90                m68k_op_or_8_re_ai
                0x00472e10                m68k_op_or_8_re_pi
                0x00472e90                m68k_op_or_8_re_pi7
                0x00472f00                m68k_op_or_8_re_pd
                0x00472f80                m68k_op_or_8_re_pd7
                0x00472ff0                m68k_op_or_8_re_di
                0x00473090                m68k_op_or_8_re_ix
                0x00473110                m68k_op_or_8_re_aw
                0x004731a0                m68k_op_or_8_re_al
                0x00473230                m68k_op_or_16_re_ai
                0x004732a0                m68k_op_or_16_re_pi
                0x00473330                m68k_op_or_16_re_pd
                0x004733c0                m68k_op_or_16_re_di
                0x00473460                m68k_op_or_16_re_ix
                0x004734e0                m68k_op_or_16_re_aw
                0x00473570                m68k_op_or_16_re_al
                0x00473600                m68k_op_or_32_re_ai
                0x00473680                m68k_op_or_32_re_pi
                0x00473700                m68k_op_or_32_re_pd
                0x00473780                m68k_op_or_32_re_di
                0x00473820                m68k_op_or_32_re_ix
                0x004738a0                m68k_op_or_32_re_aw
                0x00473930                m68k_op_or_32_re_al
                0x004739c0                m68k_op_ori_8_d
                0x00473a20                m68k_op_ori_8_ai
                0x00473aa0                m68k_op_ori_8_pi
                0x00473b30                m68k_op_ori_8_pi7
                0x00473bb0                m68k_op_ori_8_pd
                0x00473c40                m68k_op_ori_8_pd7
                0x00473cc0                m68k_op_ori_8_di
                0x00473d80                m68k_op_ori_8_ix
                0x00473e10                m68k_op_ori_8_aw
                0x00473ea0                m68k_op_ori_8_al
                0x00473f30                m68k_op_ori_16_d
                0x00473f90                m68k_op_ori_16_ai
                0x00474020                m68k_op_ori_16_pi
                0x004740c0                m68k_op_ori_16_pd
                0x00474160                m68k_op_ori_16_di
                0x00474220                m68k_op_ori_16_ix
                0x004742b0                m68k_op_ori_16_aw
                0x00474350                m68k_op_ori_16_al
                0x004743e0                m68k_op_ori_32_d
                0x00474440                m68k_op_ori_32_ai
                0x004744c0                m68k_op_ori_32_pi
                0x00474550                m68k_op_ori_32_pd
                0x004745e0                m68k_op_ori_32_di
                0x004746a0                m68k_op_ori_32_ix
                0x00474730                m68k_op_ori_32_aw
                0x004747c0                m68k_op_ori_32_al
                0x00474850                m68k_op_ori_16_toc
                0x00474910                m68k_op_ori_16_tos
                0x00474e40                m68k_op_pack_16_rr
                0x00474ec0                m68k_op_pack_16_mm_ax7
                0x00474fa0                m68k_op_pack_16_mm_ay7
                0x00475070                m68k_op_pack_16_mm_axy7
                0x00475130                m68k_op_pack_16_mm
                0x00475220                m68k_op_pea_32_ai
                0x00475260                m68k_op_pea_32_di
                0x004752c0                m68k_op_pea_32_ix
                0x00475300                m68k_op_pea_32_aw
                0x00475350                m68k_op_pea_32_al
                0x004753a0                m68k_op_pea_32_pcdi
                0x004753f0                m68k_op_pea_32_pcix
                0x00475600                m68k_op_reset
                0x004757b0                m68k_op_ror_8_s
                0x00475850                m68k_op_ror_16_s
                0x004758e0                m68k_op_ror_32_s
                0x00475930                m68k_op_ror_8_r
                0x00475a10                m68k_op_ror_16_r
                0x00475af0                m68k_op_ror_32_r
                0x00475bc0                m68k_op_ror_16_ai
                0x00475c50                m68k_op_ror_16_pi
                0x00475ce0                m68k_op_ror_16_pd
                0x00475d70                m68k_op_ror_16_di
                0x00475e20                m68k_op_ror_16_ix
                0x00475eb0                m68k_op_ror_16_aw
                0x00475f50                m68k_op_ror_16_al
                0x00475ff0                m68k_op_rol_8_s
                0x00476090                m68k_op_rol_16_s
                0x00476120                m68k_op_rol_32_s
                0x00476170                m68k_op_rol_8_r
                0x00476260                m68k_op_rol_16_r
                0x00476320                m68k_op_rol_32_r
                0x00476400                m68k_op_rol_16_ai
                0x00476480                m68k_op_rol_16_pi
                0x00476510                m68k_op_rol_16_pd
                0x004765a0                m68k_op_rol_16_di
                0x00476650                m68k_op_rol_16_ix
                0x004766e0                m68k_op_rol_16_aw
                0x00476780                m68k_op_rol_16_al
                0x00476820                m68k_op_roxr_8_s
                0x004768b0                m68k_op_roxr_16_s
                0x00476950                m68k_op_roxr_32_s
                0x00476a10                m68k_op_roxr_8_r
                0x00476b10                m68k_op_roxr_16_r
                0x00476c20                m68k_op_roxr_32_r
                0x00476d50                m68k_op_roxr_16_ai
                0x00476dd0                m68k_op_roxr_16_pi
                0x00476e60                m68k_op_roxr_16_pd
                0x00476ef0                m68k_op_roxr_16_di
                0x00476fa0                m68k_op_roxr_16_ix
                0x00477030                m68k_op_roxr_16_aw
                0x004770d0                m68k_op_roxr_16_al
                0x00477170                m68k_op_roxl_8_s
                0x00477200                m68k_op_roxl_16_s
                0x004772a0                m68k_op_roxl_32_s
                0x00477370                m68k_op_roxl_8_r
                0x00477470                m68k_op_roxl_16_r
                0x00477580                m68k_op_roxl_32_r
                0x004776b0                m68k_op_roxl_16_ai
                0x00477730                m68k_op_roxl_16_pi
                0x004777c0                m68k_op_roxl_16_pd
                0x00477850                m68k_op_roxl_16_di
                0x00477900                m68k_op_roxl_16_ix
                0x00477990                m68k_op_roxl_16_aw
                0x00477a30                m68k_op_roxl_16_al
                0x00477ad0                m68k_op_rtd_32
                0x00477b50                m68k_op_rte_32
                0x00478be0                m68k_op_rtm_32
                0x00478c00                m68k_op_rtr_32
                0x00478c90                m68k_op_rts_32
                0x00478cc0                m68k_op_sbcd_8_rr
                0x00478d60                m68k_op_sbcd_8_mm_ax7
                0x00478e30                m68k_op_sbcd_8_mm_ay7
                0x00478f00                m68k_op_sbcd_8_mm_axy7
                0x00478fc0                m68k_op_sbcd_8_mm
                0x004790a0                m68k_op_st_8_d
                0x004790c0                m68k_op_st_8_ai
                0x004790f0                m68k_op_st_8_pi
                0x00479130                m68k_op_st_8_pi7
                0x00479160                m68k_op_st_8_pd
                0x004791a0                m68k_op_st_8_pd7
                0x004791d0                m68k_op_st_8_di
                0x00479230                m68k_op_st_8_ix
                0x00479270                m68k_op_st_8_aw
                0x004792b0                m68k_op_st_8_al
                0x004792f0                m68k_op_sf_8_d
                0x00479310                m68k_op_sf_8_ai
                0x00479340                m68k_op_sf_8_pi
                0x00479380                m68k_op_sf_8_pi7
                0x004793b0                m68k_op_sf_8_pd
                0x004793f0                m68k_op_sf_8_pd7
                0x00479420                m68k_op_sf_8_di
                0x00479470                m68k_op_sf_8_ix
                0x004794b0                m68k_op_sf_8_aw
                0x004794f0                m68k_op_sf_8_al
                0x00479530                m68k_op_shi_8_d
                0x00479570                m68k_op_sls_8_d
                0x004795b0                m68k_op_scc_8_d
                0x004795e0                m68k_op_scs_8_d
                0x00479610                m68k_op_sne_8_d
                0x00479640                m68k_op_seq_8_d
                0x00479670                m68k_op_svc_8_d
                0x004796a0                m68k_op_svs_8_d
                0x004796d0                m68k_op_spl_8_d
                0x00479700                m68k_op_smi_8_d
                0x00479730                m68k_op_sge_8_d
                0x00479770                m68k_op_slt_8_d
                0x004797b0                m68k_op_sgt_8_d
                0x00479800                m68k_op_sle_8_d
                0x00479850                m68k_op_shi_8_ai
                0x004798a0                m68k_op_shi_8_pi
                0x00479900                m68k_op_shi_8_pi7
                0x00479950                m68k_op_shi_8_pd
                0x004799b0                m68k_op_shi_8_pd7
                0x00479a00                m68k_op_shi_8_di
                0x00479a70                m68k_op_shi_8_ix
                0x00479ac0                m68k_op_shi_8_aw
                0x00479b20                m68k_op_shi_8_al
                0x00479b80                m68k_op_sls_8_ai
                0x00479be0                m68k_op_sls_8_pi
                0x00479c50                m68k_op_sls_8_pi7
                0x00479ca0                m68k_op_sls_8_pd
                0x00479d00                m68k_op_sls_8_pd7
                0x00479d60                m68k_op_sls_8_di
                0x00479de0                m68k_op_sls_8_ix
                0x00479e40                m68k_op_sls_8_aw
                0x00479eb0                m68k_op_sls_8_al
                0x00479f20                m68k_op_scc_8_ai
                0x00479f60                m68k_op_scc_8_pi
                0x00479fb0                m68k_op_scc_8_pi7
                0x00479ff0                m68k_op_scc_8_pd
                0x0047a040                m68k_op_scc_8_pd7
                0x0047a080                m68k_op_scc_8_di
                0x0047a0f0                m68k_op_scc_8_ix
                0x0047a140                m68k_op_scc_8_aw
                0x0047a190                m68k_op_scc_8_al
                0x0047a1e0                m68k_op_scs_8_ai
                0x0047a220                m68k_op_scs_8_pi
                0x0047a270                m68k_op_scs_8_pi7
                0x0047a2b0                m68k_op_scs_8_pd
                0x0047a300                m68k_op_scs_8_pd7
                0x0047a340                m68k_op_scs_8_di
                0x0047a3b0                m68k_op_scs_8_ix
                0x0047a400                m68k_op_scs_8_aw
                0x0047a450                m68k_op_scs_8_al
                0x0047a4a0                m68k_op_sne_8_ai
                0x0047a4e0                m68k_op_sne_8_pi
                0x0047a530                m68k_op_sne_8_pi7
                0x0047a570                m68k_op_sne_8_pd
                0x0047a5c0                m68k_op_sne_8_pd7
                0x0047a600                m68k_op_sne_8_di
                0x0047a670                m68k_op_sne_8_ix
                0x0047a6c0                m68k_op_sne_8_aw
                0x0047a710                m68k_op_sne_8_al
                0x0047a760                m68k_op_seq_8_ai
                0x0047a7a0                m68k_op_seq_8_pi
                0x0047a7f0                m68k_op_seq_8_pi7
                0x0047a830                m68k_op_seq_8_pd
                0x0047a880                m68k_op_seq_8_pd7
                0x0047a8c0                m68k_op_seq_8_di
                0x0047a930                m68k_op_seq_8_ix
                0x0047a970                m68k_op_seq_8_aw
                0x0047a9c0                m68k_op_seq_8_al
                0x0047aa10                m68k_op_svc_8_ai
                0x0047aa50                m68k_op_svc_8_pi
                0x0047aaa0                m68k_op_svc_8_pi7
                0x0047aae0                m68k_op_svc_8_pd
                0x0047ab30                m68k_op_svc_8_pd7
                0x0047ab70                m68k_op_svc_8_di
                0x0047abe0                m68k_op_svc_8_ix
                0x0047ac30                m68k_op_svc_8_aw
                0x0047ac80                m68k_op_svc_8_al
                0x0047acd0                m68k_op_svs_8_ai
                0x0047ad10                m68k_op_svs_8_pi
                0x0047ad60                m68k_op_svs_8_pi7
                0x0047ada0                m68k_op_svs_8_pd
                0x0047adf0                m68k_op_svs_8_pd7
                0x0047ae30                m68k_op_svs_8_di
                0x0047aea0                m68k_op_svs_8_ix
                0x0047aef0                m68k_op_svs_8_aw
                0x0047af40                m68k_op_svs_8_al
                0x0047af90                m68k_op_spl_8_ai
                0x0047afd0                m68k_op_spl_8_pi
                0x0047b020                m68k_op_spl_8_pi7
                0x0047b060                m68k_op_spl_8_pd
                0x0047b0b0                m68k_op_spl_8_pd7
                0x0047b0f0                m68k_op_spl_8_di
                0x0047b160                m68k_op_spl_8_ix
                0x0047b1b0                m68k_op_spl_8_aw
                0x0047b200                m68k_op_spl_8_al
                0x0047b250                m68k_op_smi_8_ai
                0x0047b290                m68k_op_smi_8_pi
                0x0047b2e0                m68k_op_smi_8_pi7
                0x0047b320                m68k_op_smi_8_pd
                0x0047b370                m68k_op_smi_8_pd7
                0x0047b3b0                m68k_op_smi_8_di
                0x0047b420                m68k_op_smi_8_ix
                0x0047b470                m68k_op_smi_8_aw
                0x0047b4c0                m68k_op_smi_8_al
                0x0047b510                m68k_op_sge_8_ai
                0x0047b560                m68k_op_sge_8_pi
                0x0047b5c0                m68k_op_sge_8_pi7
                0x0047b610                m68k_op_sge_8_pd
                0x0047b670                m68k_op_sge_8_pd7
                0x0047b6c0                m68k_op_sge_8_di
                0x0047b730                m68k_op_sge_8_ix
                0x0047b780                m68k_op_sge_8_aw
                0x0047b7e0                m68k_op_sge_8_al
                0x0047b840                m68k_op_slt_8_ai
                0x0047b890                m68k_op_slt_8_pi
                0x0047b8f0                m68k_op_slt_8_pi7
                0x0047b940                m68k_op_slt_8_pd
                0x0047b9a0                m68k_op_slt_8_pd7
                0x0047b9f0                m68k_op_slt_8_di
                0x0047ba60                m68k_op_slt_8_ix
                0x0047bab0                m68k_op_slt_8_aw
                0x0047bb10                m68k_op_slt_8_al
                0x0047bb70                m68k_op_sgt_8_ai
                0x0047bbc0                m68k_op_sgt_8_pi
                0x0047bc20                m68k_op_sgt_8_pi7
                0x0047bc70                m68k_op_sgt_8_pd
                0x0047bcd0                m68k_op_sgt_8_pd7
                0x0047bd20                m68k_op_sgt_8_di
                0x0047bda0                m68k_op_sgt_8_ix
                0x0047be00                m68k_op_sgt_8_aw
                0x0047be60                m68k_op_sgt_8_al
                0x0047bec0                m68k_op_sle_8_ai
                0x0047bf20                m68k_op_sle_8_pi
                0x0047bf90                m68k_op_sle_8_pi7
                0x0047bff0                m68k_op_sle_8_pd
                0x0047c060                m68k_op_sle_8_pd7
                0x0047c0c0                m68k_op_sle_8_di
                0x0047c140                m68k_op_sle_8_ix
                0x0047c1b0                m68k_op_sle_8_aw
                0x0047c220                m68k_op_sle_8_al
                0x0047c290                m68k_op_stop
                0x0047c750                m68k_op_sub_8_er_d
                0x0047c7d0                m68k_op_sub_8_er_ai
                0x0047c850                m68k_op_sub_8_er_pi
                0x0047c8e0                m68k_op_sub_8_er_pi7
                0x0047c960                m68k_op_sub_8_er_pd
                0x0047c9f0                m68k_op_sub_8_er_pd7
                0x0047ca70                m68k_op_sub_8_er_di
                0x0047cb10                m68k_op_sub_8_er_ix
                0x0047cb90                m68k_op_sub_8_er_aw
                0x0047cc20                m68k_op_sub_8_er_al
                0x0047ccb0                m68k_op_sub_8_er_pcdi
                0x0047cd40                m68k_op_sub_8_er_pcix
                0x0047cdc0                m68k_op_sub_8_er_i
                0x0047ce60                m68k_op_sub_16_er_d
                0x0047cef0                m68k_op_sub_16_er_a
                0x0047cf80                m68k_op_sub_16_er_ai
                0x0047d020                m68k_op_sub_16_er_pi
                0x0047d0d0                m68k_op_sub_16_er_pd
                0x0047d180                m68k_op_sub_16_er_di
                0x0047d240                m68k_op_sub_16_er_ix
                0x0047d2e0                m68k_op_sub_16_er_aw
                0x0047d390                m68k_op_sub_16_er_al
                0x0047d440                m68k_op_sub_16_er_pcdi
                0x0047d4f0                m68k_op_sub_16_er_pcix
                0x0047d590                m68k_op_sub_16_er_i
                0x0047d630                m68k_op_sub_32_er_d
                0x0047d6c0                m68k_op_sub_32_er_a
                0x0047d750                m68k_op_sub_32_er_ai
                0x0047d7f0                m68k_op_sub_32_er_pi
                0x0047d8a0                m68k_op_sub_32_er_pd
                0x0047d950                m68k_op_sub_32_er_di
                0x0047da10                m68k_op_sub_32_er_ix
                0x0047dab0                m68k_op_sub_32_er_aw
                0x0047db60                m68k_op_sub_32_er_al
                0x0047dc10                m68k_op_sub_32_er_pcdi
                0x0047dcc0                m68k_op_sub_32_er_pcix
                0x0047dd60                m68k_op_sub_32_er_i
                0x0047de00                m68k_op_sub_8_re_ai
                0x0047de80                m68k_op_sub_8_re_pi
                0x0047df10                m68k_op_sub_8_re_pi7
                0x0047df90                m68k_op_sub_8_re_pd
                0x0047e020                m68k_op_sub_8_re_pd7
                0x0047e0a0                m68k_op_sub_8_re_di
                0x0047e140                m68k_op_sub_8_re_ix
                0x0047e1c0                m68k_op_sub_8_re_aw
                0x0047e250                m68k_op_sub_8_re_al
                0x0047e2e0                m68k_op_sub_16_re_ai
                0x0047e380                m68k_op_sub_16_re_pi
                0x0047e430                m68k_op_sub_16_re_pd
                0x0047e4e0                m68k_op_sub_16_re_di
                0x0047e5a0                m68k_op_sub_16_re_ix
                0x0047e640                m68k_op_sub_16_re_aw
                0x0047e6f0                m68k_op_sub_16_re_al
                0x0047e7a0                m68k_op_sub_32_re_ai
                0x0047e850                m68k_op_sub_32_re_pi
                0x0047e910                m68k_op_sub_32_re_pd
                0x0047e9d0                m68k_op_sub_32_re_di
                0x0047ea90                m68k_op_sub_32_re_ix
                0x0047eb40                m68k_op_sub_32_re_aw
                0x0047ec00                m68k_op_sub_32_re_al
                0x0047ecc0                m68k_op_suba_16_d
                0x0047ecf0                m68k_op_suba_16_a
                0x0047ed20                m68k_op_suba_16_ai
                0x0047ed80                m68k_op_suba_16_pi
                0x0047edf0                m68k_op_suba_16_pd
                0x0047ee60                m68k_op_suba_16_di
                0x0047eee0                m68k_op_suba_16_ix
                0x0047f120                m68k_op_suba_16_aw
                0x0047f190                m68k_op_suba_16_al
                0x0047f200                m68k_op_suba_16_pcdi
                0x0047f270                m68k_op_suba_16_pcix
                0x0047f4c0                m68k_op_suba_16_i
                0x0047f520                m68k_op_suba_32_d
                0x0047f540                m68k_op_suba_32_a
                0x0047f560                m68k_op_suba_32_ai
                0x0047f5c0                m68k_op_suba_32_pi
                0x0047f630                m68k_op_suba_32_pd
                0x0047f6a0                m68k_op_suba_32_di
                0x0047f720                m68k_op_suba_32_ix
                0x0047f960                m68k_op_suba_32_aw
                0x0047f9d0                m68k_op_suba_32_al
                0x0047fa40                m68k_op_suba_32_pcdi
                0x0047fab0                m68k_op_suba_32_pcix
                0x0047fd00                m68k_op_suba_32_i
                0x0047fd60                m68k_op_subi_8_d
                0x0047fe00                m68k_op_subi_8_ai
                0x0047fe90                m68k_op_subi_8_pi
                0x0047ff30                m68k_op_subi_8_pi7
                0x0047ffc0                m68k_op_subi_8_pd
                0x00480060                m68k_op_subi_8_pd7
                0x004800f0                m68k_op_subi_8_di
                0x004801b0                m68k_op_subi_8_ix
                0x00480240                m68k_op_subi_8_aw
                0x004802e0                m68k_op_subi_8_al
                0x00480380                m68k_op_subi_16_d
                0x00480420                m68k_op_subi_16_ai
                0x004804d0                m68k_op_subi_16_pi
                0x00480590                m68k_op_subi_16_pd
                0x00480650                m68k_op_subi_16_di
                0x00480720                m68k_op_subi_16_ix
                0x004807d0                m68k_op_subi_16_aw
                0x00480890                m68k_op_subi_16_al
                0x00480950                m68k_op_subi_32_d
                0x004809f0                m68k_op_subi_32_ai
                0x00480ab0                m68k_op_subi_32_pi
                0x00480b80                m68k_op_subi_32_pd
                0x00480c50                m68k_op_subi_32_di
                0x00480d20                m68k_op_subi_32_ix
                0x00480de0                m68k_op_subi_32_aw
                0x00480eb0                m68k_op_subi_32_al
                0x00480f80                m68k_op_subq_8_d
                0x00481000                m68k_op_subq_8_ai
                0x00481070                m68k_op_subq_8_pi
                0x004810f0                m68k_op_subq_8_pi7
                0x00481170                m68k_op_subq_8_pd
                0x004811f0                m68k_op_subq_8_pd7
                0x00481270                m68k_op_subq_8_di
                0x00481320                m68k_op_subq_8_ix
                0x004813a0                m68k_op_subq_8_aw
                0x00481430                m68k_op_subq_8_al
                0x004814c0                m68k_op_subq_16_d
                0x00481550                m68k_op_subq_16_a
                0x00481570                m68k_op_subq_16_ai
                0x00481600                m68k_op_subq_16_pi
                0x004816a0                m68k_op_subq_16_pd
                0x00481740                m68k_op_subq_16_di
                0x004817f0                m68k_op_subq_16_ix
                0x00481890                m68k_op_subq_16_aw
                0x00481940                m68k_op_subq_16_al
                0x004819f0                m68k_op_subq_32_d
                0x00481a50                m68k_op_subq_32_a
                0x00481a70                m68k_op_subq_32_ai
                0x00481af0                m68k_op_subq_32_pi
                0x00481b80                m68k_op_subq_32_pd
                0x00481c10                m68k_op_subq_32_di
                0x00481cd0                m68k_op_subq_32_ix
                0x00481d60                m68k_op_subq_32_aw
                0x00481e00                m68k_op_subq_32_al
                0x00481ea0                m68k_op_subx_8_rr
                0x00481f30                m68k_op_subx_16_rr
                0x00481fd0                m68k_op_subx_32_rr
                0x00482070                m68k_op_subx_8_mm_ax7
                0x00482120                m68k_op_subx_8_mm_ay7
                0x004821d0                m68k_op_subx_8_mm_axy7
                0x00482270                m68k_op_subx_8_mm
                0x00482330                m68k_op_subx_16_mm
                0x004823f0                m68k_op_subx_32_mm
                0x004824d0                m68k_op_swap_32
                0x00482510                m68k_op_tas_8_d
                0x00482550                m68k_op_tas_8_ai
                0x00482590                m68k_op_tas_8_pi
                0x004825e0                m68k_op_tas_8_pi7
                0x00482620                m68k_op_tas_8_pd
                0x00482670                m68k_op_tas_8_pd7
                0x004826b0                m68k_op_tas_8_di
                0x00482720                m68k_op_tas_8_ix
                0x00482770                m68k_op_tas_8_aw
                0x004827c0                m68k_op_tas_8_al
                0x00482810                m68k_op_trap
                0x004829f0                m68k_op_trapt
                0x00482a10                m68k_op_trapt_16
                0x00482be0                m68k_op_trapt_32
                0x00482c00                m68k_op_trapf
                0x00482c20                m68k_op_trapf_16
                0x00482c40                m68k_op_trapf_32
                0x00482c60                m68k_op_traphi
                0x00482c90                m68k_op_trapls
                0x00482cc0                m68k_op_trapcc
                0x00482cf0                m68k_op_trapcs
                0x00482d20                m68k_op_trapne
                0x00482d50                m68k_op_trapeq
                0x00482d80                m68k_op_trapvc
                0x00482db0                m68k_op_trapvs
                0x00482de0                m68k_op_trappl
                0x00482e10                m68k_op_trapmi
                0x00482e40                m68k_op_trapge
                0x00482e70                m68k_op_traplt
                0x00482ea0                m68k_op_trapgt
                0x00482ee0                m68k_op_traple
                0x00482f20                m68k_op_traphi_16
                0x00482f60                m68k_op_trapls_16
                0x00482fa0                m68k_op_trapcc_16
                0x00482fd0                m68k_op_trapcs_16
                0x00483000                m68k_op_trapne_16
                0x00483030                m68k_op_trapeq_16
                0x00483060                m68k_op_trapvc_16
                0x00483090                m68k_op_trapvs_16
                0x004830c0                m68k_op_trappl_16
                0x004830f0                m68k_op_trapmi_16
                0x00483120                m68k_op_trapge_16
                0x00483160                m68k_op_traplt_16
                0x004831a0                m68k_op_trapgt_16
                0x004831e0                m68k_op_traple_16
                0x00483230                m68k_op_traphi_32
                0x00483270                m68k_op_trapls_32
                0x004832b0                m68k_op_trapcc_32
                0x004832e0                m68k_op_trapcs_32
                0x00483310                m68k_op_trapne_32
                0x00483340                m68k_op_trapeq_32
                0x00483370                m68k_op_trapvc_32
                0x004833a0                m68k_op_trapvs_32
                0x004833d0                m68k_op_trappl_32
                0x00483400                m68k_op_trapmi_32
                0x00483430                m68k_op_trapge_32
                0x00483470                m68k_op_traplt_32
                0x004834b0                m68k_op_trapgt_32
                0x004834f0                m68k_op_traple_32
                0x00483540                m68k_op_trapv
                0x00483560                m68k_op_tst_8_d
                0x00483590                m68k_op_tst_8_ai
                0x004835d0                m68k_op_tst_8_pi
                0x00483620                m68k_op_tst_8_pi7
                0x00483660                m68k_op_tst_8_pd
                0x004836b0                m68k_op_tst_8_pd7
                0x004836f0                m68k_op_tst_8_di
                0x00483760                m68k_op_tst_8_ix
                0x004837b0                m68k_op_tst_8_aw
                0x00483800                m68k_op_tst_8_al
                0x00483850                m68k_op_tst_8_pcdi
                0x004838c0                m68k_op_tst_8_pcix
                0x00483910                m68k_op_tst_8_i
                0x00483970                m68k_op_tst_16_d
                0x004839a0                m68k_op_tst_16_a
                0x004839f0                m68k_op_tst_16_ai
                0x00483a40                m68k_op_tst_16_pi
                0x00483aa0                m68k_op_tst_16_pd
                0x00483b00                m68k_op_tst_16_di
                0x00483b70                m68k_op_tst_16_ix
                0x00483da0                m68k_op_tst_16_aw
                0x00483e00                m68k_op_tst_16_al
                0x00483e60                m68k_op_tst_16_pcdi
                0x00483ed0                m68k_op_tst_16_pcix
                0x00483f20                m68k_op_tst_16_i
                0x00483f80                m68k_op_tst_32_d
                0x00483fb0                m68k_op_tst_32_a
                0x00484000                m68k_op_tst_32_ai
                0x00484050                m68k_op_tst_32_pi
                0x004840b0                m68k_op_tst_32_pd
                0x00484110                m68k_op_tst_32_di
                0x00484180                m68k_op_tst_32_ix
                0x004843b0                m68k_op_tst_32_aw
                0x00484410                m68k_op_tst_32_al
                0x00484470                m68k_op_tst_32_pcdi
                0x004844e0                m68k_op_tst_32_pcix
                0x00484530                m68k_op_tst_32_i
                0x00484590                m68k_op_unlk_32_a7
                0x004845c0                m68k_op_unlk_32
                0x00484600                m68k_op_unpk_16_rr
                0x00484690                m68k_op_unpk_16_mm_ax7
                0x00484750                m68k_op_unpk_16_mm_ay7
                0x00484830                m68k_op_unpk_16_mm_axy7
                0x004848e0                m68k_op_unpk_16_mm
 .text          0x004849d0     0x33d0 C:/Dev/msys/lib\libz.a(inflate.o)
                0x004849d0                inflateResetKeep
                0x00484a70                inflateReset
                0x00484b30                inflateReset2
                0x00484c70                inflateInit2_
                0x00484e40                inflateInit_
                0x00484fb0                inflatePrime
                0x00485020                inflate
                0x00487570                inflateEnd
                0x004875d0                inflateGetDictionary
                0x00487650                inflateSetDictionary
                0x00487820                inflateGetHeader
                0x00487860                inflateSync
                0x00487af0                inflateSyncPoint
                0x00487b30                inflateCopy
                0x00487d10                inflateUndermine
                0x00487d40                inflateMark
 .text          0x00487da0      0x4b0 C:/Dev/msys/lib\libz.a(crc32.o)
                0x00487f10                get_crc_table
                0x00487f20                crc32
                0x00488210                crc32_combine
                0x00488230                crc32_combine64
 .text          0x00488250     0x1590 C:/Dev/msys/lib\libz.a(gzlib.o)
                0x00488250                gzopen
                0x00488520                gzopen64
                0x004887f0                gzdopen
                0x00488c50                gzopen_w
                0x00488f70                gzbuffer
                0x00488fc0                gzrewind
                0x00489090                gzseek64
                0x004892b0                gzseek
                0x004894d0                gztell64
                0x00489510                gztell
                0x00489550                gzoffset64
                0x004895c0                gzoffset
                0x00489630                gzeof
                0x00489650                gzerror
                0x004896a0                gzclearerr
                0x00489710                gz_error
 .text          0x004897e0      0xd00 C:/Dev/msys/lib\libz.a(gzread.o)
                0x00489da0                gzread
                0x0048a000                gzgetc
                0x0048a070                gzgetc_
                0x0048a0e0                gzungetc
                0x0048a250                gzgets
                0x0048a3d0                gzdirect
                0x0048a420                gzclose_r
 .text          0x0048a4e0       0x30 C:/Dev/msys/lib\libz.a(gzclose.o)
                0x0048a4e0                gzclose
 .text          0x0048a510     0x11b0 C:/Dev/msys/lib\libz.a(gzwrite.o)
                0x0048abf0                gzwrite
                0x0048ac20                gzputc
                0x0048ad00                gzputs
                0x0048ad60                gzvprintf
                0x0048af80                gzprintf
                0x0048b050                gzflush
                0x0048b2d0                gzsetparams
                0x0048b480                gzclose_w
 .text          0x0048b6c0       0x70 C:/Dev/msys/lib\libz.a(zutil.o)
                0x0048b6c0                zlibVersion
                0x0048b6d0                zlibCompileFlags
                0x0048b6e0                zError
                0x0048b700                zcalloc
                0x0048b720                zcfree
 .text          0x0048b730      0x680 C:/Dev/msys/lib\libz.a(adler32.o)
                0x0048b730                adler32
                0x0048bc50                adler32_combine
                0x0048bd00                adler32_combine64
 .text          0x0048bdb0      0xbd0 C:/Dev/msys/lib\libz.a(inftrees.o)
                0x0048bdb0                inflate_table
 .text          0x0048c980      0xb30 C:/Dev/msys/lib\libz.a(inffast.o)
                0x0048c980                inflate_fast
 .text          0x0048d4b0     0x3b40 C:/Dev/msys/lib\libz.a(deflate.o)
                0x0048e840                deflateSetDictionary
                0x0048ea60                deflateResetKeep
                0x0048eb40                deflateReset
                0x0048ece0                deflateSetHeader
                0x0048ed10                deflatePending
                0x0048ed50                deflatePrime
                0x0048ede0                deflateTune
                0x0048ee30                deflateBound
                0x0048ef50                deflate
                0x00490330                deflateParams
                0x00490460                deflateEnd
                0x00490550                deflateInit2_
                0x004909a0                deflateInit_
                0x00490d70                deflateCopy
 .text          0x00490ff0     0x2430 C:/Dev/msys/lib\libz.a(trees.o)
                0x00492540                _tr_init
                0x00492620                _tr_stored_block
                0x004927b0                _tr_flush_bits
                0x00492840                _tr_align
                0x004929a0                _tr_flush_block
                0x00493380                _tr_tally
 .text          0x00493420      0xb70 C:/Dev/msys/local/lib\libSDL.a(SDL_audio.o)
                0x004934a0                SDL_RunAudio
                0x00493650                SDL_AudioDriverName
                0x00493690                SDL_OpenAudio
                0x00493be0                SDL_GetAudioStatus
                0x00493c10                SDL_PauseAudio
                0x00493c30                SDL_LockAudio
                0x00493c50                SDL_UnlockAudio
                0x00493c70                SDL_CloseAudio
                0x00493c90                SDL_AudioQuit
                0x00493d40                SDL_AudioInit
                0x00493e30                SDL_FirstAudioFormat
                0x00493ee0                SDL_NextAudioFormat
                0x00493f20                SDL_CalculateAudioSpec
                0x00493f60                SDL_Audio_SetCaption
 .text          0x00493f90      0x240 C:/Dev/msys/local/lib\libSDL.a(SDL_syssem.o)
                0x00493f90                SDL_CreateSemaphore
                0x00494010                SDL_DestroySemaphore
                0x00494050                SDL_SemWaitTimeout
                0x004940e0                SDL_SemTryWait
                0x00494100                SDL_SemWait
                0x00494120                SDL_SemValue
                0x00494150                SDL_SemPost
 .text          0x004941d0     0x1080 C:/Dev/msys/local/lib\libSDL.a(SDL_sysevents.o)
                0x004942d0                WinMessage@16
                0x00494e80                WIN_FlushMessageQueue
                0x00494ef0                SDL_SetModuleHandle
                0x00494f00                SDL_GetModuleHandle
                0x00494f30                SDL_RegisterApp
                0x004951d0                SDL_UnregisterApp
 .text          0x00495250      0x9f0 C:/Dev/msys/local/lib\libSDL.a(SDL_events.o)
                0x00495320                SDL_Lock_EventThread
                0x00495370                SDL_Unlock_EventThread
                0x004953a0                SDL_EventThreadID
                0x004953b0                SDL_StopEventLoop
                0x00495450                SDL_StartEventLoop
                0x004955a0                SDL_PeepEvents
                0x00495960                SDL_PumpEvents
                0x004959b0                SDL_PollEvent
                0x004959f0                SDL_WaitEvent
                0x00495a40                SDL_PushEvent
                0x00495a80                SDL_SetEventFilter
                0x00495ab0                SDL_GetEventFilter
                0x00495ac0                SDL_EventState
                0x00495bb0                SDL_PrivateSysWMEvent
 .text          0x00495c40     0x31a0 C:/Dev/msys/local/lib\libSDL.a(SDL_video.o)
                0x00495f70                SDL_VideoDriverName
                0x00495fb0                SDL_GetVideoSurface
                0x00495fd0                SDL_GetVideoInfo
                0x00495ff0                SDL_ListModes
                0x00496030                SDL_VideoModeOK
                0x00496170                SDL_DisplayFormat
                0x004961e0                SDL_DisplayFormatAlpha
                0x00496340                SDL_UpdateRects
                0x004965c0                SDL_UpdateRect
                0x00496810                SDL_Flip
                0x004969b0                SDL_SetPalette
                0x00496b80                SDL_SetColors
                0x00496bc0                SDL_VideoQuit
                0x00496d00                SDL_VideoInit
                0x00497000                SDL_GL_LoadLibrary
                0x00497050                SDL_GL_GetProcAddress
                0x004970a0                SDL_GL_SetAttribute
                0x00497200                SDL_GL_GetAttribute
                0x00497250                SDL_GL_SwapBuffers
                0x00497280                SDL_GL_UpdateRects
                0x00497530                SDL_GL_UpdateRectsLock
                0x00497590                SDL_GL_Lock
                0x004975b0                SDL_GL_Unlock
                0x004975d0                SDL_WM_SetCaption
                0x00497670                SDL_WM_GetCaption
                0x004976a0                SDL_WM_SetIcon
                0x00497a10                SDL_WM_GrabInput
                0x00497a60                SDL_SetVideoMode
                0x00498cb0                SDL_WM_IconifyWindow
                0x00498ce0                SDL_WM_ToggleFullScreen
                0x00498da0                SDL_GetWMInfo
 .text          0x00498de0      0x2b0 C:/Dev/msys/local/lib\libSDL.a(SDL.o)
                0x00498de0                SDL_InitSubSystem
                0x00498f50                SDL_Init
                0x00498f90                SDL_QuitSubSystem
                0x00499040                SDL_WasInit
                0x00499060                SDL_Quit
                0x00499080                SDL_Linked_Version
 .text          0x00499090      0x3c0 C:/Dev/msys/local/lib\libSDL.a(SDL_error.o)
                0x00499090                SDL_SetError
                0x00499210                SDL_GetErrorMsg
                0x004993b0                SDL_GetError
                0x004993d0                SDL_ClearError
                0x004993f0                SDL_Error
 .text          0x00499450      0x1e0 C:/Dev/msys/local/lib\libSDL.a(SDL_systimer.o)
                0x00499460                SDL_StartTicks
                0x00499490                SDL_GetTicks
                0x00499510                SDL_Delay
                0x00499530                SDL_SYS_TimerInit
                0x004995d0                SDL_SYS_TimerQuit
                0x00499600                SDL_SYS_StartTimer
                0x00499620                SDL_SYS_StopTimer
 .text          0x00499630      0x4e0 C:/Dev/msys/local/lib\libSDL.a(SDL_timer.o)
                0x004996b0                SDL_SetTimerThreaded
                0x004996f0                SDL_ThreadedTimerCheck
                0x00499810                SDL_AddTimer
                0x004998a0                SDL_RemoveTimer
                0x00499930                SDL_SetTimer
                0x00499a50                SDL_TimerQuit
                0x00499ab0                SDL_TimerInit
 .text          0x00499b10      0x670 C:/Dev/msys/local/lib\libSDL.a(SDL_dibaudio.o)
 .text          0x0049a180      0x2f0 C:/Dev/msys/local/lib\libSDL.a(SDL_diskaudio.o)
 .text          0x0049a470      0x240 C:/Dev/msys/local/lib\libSDL.a(SDL_dummyaudio.o)
 .text          0x0049a6b0      0x160 C:/Dev/msys/local/lib\libSDL.a(SDL_systhread.o)
                0x0049a6f0                SDL_SYS_CreateThread
                0x0049a780                SDL_SYS_SetupThread
                0x0049a790                SDL_ThreadID
                0x0049a7a0                SDL_SYS_WaitThread
                0x0049a7e0                SDL_SYS_KillThread
 .text          0x0049a810      0x160 C:/Dev/msys/local/lib\libSDL.a(SDL_sysmutex.o)
                0x0049a810                SDL_CreateMutex
                0x0049a880                SDL_DestroyMutex
                0x0049a8c0                SDL_mutexP
                0x0049a920                SDL_mutexV
 .text          0x0049a970     0x24d0 C:/Dev/msys/local/lib\libSDL.a(SDL_audiocvt.o)
                0x0049a970                SDL_ConvertMono
                0x0049ac00                SDL_ConvertStrip
                0x0049aea0                SDL_ConvertStrip_2
                0x0049b110                SDL_ConvertStereo
                0x0049b1d0                SDL_ConvertSurround
                0x0049b620                SDL_ConvertSurround_4
                0x0049ba10                SDL_Convert16LSB
                0x0049ba80                SDL_Convert16MSB
                0x0049bb00                SDL_Convert8
                0x0049bb90                SDL_ConvertSign
                0x0049bc20                SDL_ConvertEndian
                0x0049bc90                SDL_RateMUL2
                0x0049bd70                SDL_RateMUL2_c2
                0x0049be80                SDL_RateMUL2_c4
                0x0049c010                SDL_RateMUL2_c6
                0x0049c200                SDL_RateDIV2
                0x0049c2e0                SDL_RateDIV2_c2
                0x0049c3d0                SDL_RateDIV2_c4
                0x0049c4e0                SDL_RateDIV2_c6
                0x0049c620                SDL_RateSLOW
                0x0049c820                SDL_ConvertAudio
                0x0049c870                SDL_BuildAudioCVT
 .text          0x0049ce40       0xa0 C:/Dev/msys/local/lib\libSDL.a(SDL_string.o)
                0x0049ce40                SDL_strlcpy
                0x0049ce90                SDL_strlcat
 .text          0x0049cee0      0x420 C:/Dev/msys/local/lib\libSDL.a(SDL_thread.o)
                0x0049cf70                SDL_ThreadsInit
                0x0049cf90                SDL_ThreadsQuit
                0x0049cfc0                SDL_GetErrBuf
                0x0049d050                SDL_RunThread
                0x0049d090                SDL_CreateThread
                0x0049d250                SDL_WaitThread
                0x0049d2b0                SDL_GetThreadID
                0x0049d2d0                SDL_KillThread
 .text          0x0049d300      0x140 C:/Dev/msys/local/lib\libSDL.a(SDL_getenv.o)
                0x0049d300                SDL_putenv
                0x0049d3c0                SDL_getenv
 .text          0x0049d440      0x590 C:/Dev/msys/local/lib\libSDL.a(SDL_sysmouse.o)
                0x0049d440                WIN_FreeWMCursor
                0x0049d4b0                WIN_CreateWMCursor
                0x0049d7e0                WIN_ShowWMCursor
                0x0049d870                WIN_WarpWMCursor
                0x0049d930                WIN_UpdateMouse
                0x0049d9a0                WIN_CheckMouseMode
 .text          0x0049d9d0      0x140 C:/Dev/msys/local/lib\libSDL.a(SDL_active.o)
                0x0049d9d0                SDL_AppActiveInit
                0x0049d9e0                SDL_AppActiveQuit
                0x0049d9f0                SDL_GetAppState
                0x0049da00                SDL_PrivateAppActive
 .text          0x0049db10     0x1fa0 C:/Dev/msys/local/lib\libSDL.a(SDL_dibvideo.o)
                0x0049e660                DIB_GetGammaRamp
                0x0049e6b0                DIB_SetGammaRamp
                0x0049f000                DIB_SetVideoMode
                0x0049f7f0                DIB_SwapGamma
                0x0049f870                DIB_QuitGamma
                0x0049faa0                DX5_SoundFocus
 .text          0x0049fab0       0x80 C:/Dev/msys/local/lib\libSDL.a(SDL_expose.o)
                0x0049fab0                SDL_PrivateExpose
 .text          0x0049fb30      0x150 C:/Dev/msys/local/lib\libSDL.a(SDL_quit.o)
                0x0049fba0                SDL_QuitInit
                0x0049fc00                SDL_QuitQuit
                0x0049fc60                SDL_PrivateQuit
 .text          0x0049fc80      0x520 C:/Dev/msys/local/lib\libSDL.a(SDL_mouse.o)
                0x0049fcd0                SDL_MouseInit
                0x0049fd10                SDL_MouseQuit
                0x0049fd20                SDL_GetMouseState
                0x0049fd50                SDL_GetRelativeMouseState
                0x0049fd90                SDL_SetMouseRange
                0x0049fdb0                SDL_PrivateMouseMotion
                0x0049ff30                SDL_PrivateMouseButton
                0x004a0140                SDL_ResetMouse
 .text          0x004a01a0       0xe0 C:/Dev/msys/local/lib\libSDL.a(SDL_resize.o)
                0x004a01a0                SDL_PrivateResize
 .text          0x004a0280      0x6b0 C:/Dev/msys/local/lib\libSDL.a(SDL_syswm.o)
                0x004a0280                WIN_SetWMIcon
                0x004a06b0                WIN_SetWMCaption
                0x004a07a0                WIN_IconifyWindow
                0x004a07d0                WIN_GrabInput
                0x004a08b0                WIN_GetWMInfo
 .text          0x004a0930      0xe00 C:/Dev/msys/local/lib\libSDL.a(SDL_iconv.o)
                0x004a0a10                SDL_iconv_open
                0x004a0b20                SDL_iconv
                0x004a1560                SDL_iconv_close
                0x004a1580                SDL_iconv_string
 .text          0x004a1730      0xa00 C:/Dev/msys/local/lib\libSDL.a(SDL_joystick.o)
                0x004a1730                SDL_JoystickInit
                0x004a17a0                SDL_NumJoysticks
                0x004a17b0                SDL_JoystickName
                0x004a17f0                SDL_JoystickOpened
                0x004a1830                SDL_JoystickIndex
                0x004a1860                SDL_JoystickNumAxes
                0x004a1890                SDL_JoystickNumHats
                0x004a18c0                SDL_JoystickNumBalls
                0x004a18f0                SDL_JoystickNumButtons
                0x004a1920                SDL_JoystickGetAxis
                0x004a1970                SDL_JoystickGetHat
                0x004a19c0                SDL_JoystickGetBall
                0x004a1a40                SDL_JoystickGetButton
                0x004a1a90                SDL_JoystickClose
                0x004a1ba0                SDL_JoystickOpen
                0x004a1dd0                SDL_JoystickQuit
                0x004a1e60                SDL_PrivateJoystickAxis
                0x004a1ed0                SDL_PrivateJoystickHat
                0x004a1f40                SDL_PrivateJoystickBall
                0x004a1fd0                SDL_PrivateJoystickButton
                0x004a2060                SDL_JoystickUpdate
                0x004a20a0                SDL_JoystickEventState
 .text          0x004a2130      0xf90 C:/Dev/msys/local/lib\libSDL.a(SDL_keyboard.o)
                0x004a2130                SDL_KeyboardInit
                0x004a2b20                SDL_KeyboardQuit
                0x004a2b30                SDL_EnableUNICODE
                0x004a2b50                SDL_GetKeyState
                0x004a2b70                SDL_GetModState
                0x004a2b80                SDL_SetModState
                0x004a2b90                SDL_GetKeyName
                0x004a2bc0                SDL_PrivateKeyboard
                0x004a2f50                SDL_ResetKeyboard
                0x004a2fc0                SDL_CheckKeyRepeat
                0x004a3040                SDL_EnableKeyRepeat
                0x004a30a0                SDL_GetKeyRepeat
 .text          0x004a30c0     0x14e0 C:/Dev/msys/local/lib\libSDL.a(SDL_cursor.o)
                0x004a30c0                SDL_GetCursor
                0x004a30d0                SDL_WarpMouse
                0x004a31c0                SDL_CursorPaletteChanged
                0x004a31d0                SDL_MouseRect
                0x004a3280                SDL_DrawCursorNoLock
                0x004a3b90                SDL_DrawCursor
                0x004a3c40                SDL_EraseCursorNoLock
                0x004a3e10                SDL_EraseCursor
                0x004a3ec0                SDL_SetCursor
                0x004a4080                SDL_FreeCursor
                0x004a4110                SDL_CursorQuit
                0x004a4190                SDL_CreateCursor
                0x004a4390                SDL_CursorInit
                0x004a4410                SDL_ShowCursor
                0x004a44a0                SDL_MoveCursor
                0x004a4550                SDL_ResetCursor
 .text          0x004a45a0      0x3a0 C:/Dev/msys/local/lib\libSDL.a(SDL_nullvideo.o)
 .text          0x004a4940     0x1460 C:/Dev/msys/local/lib\libSDL.a(SDL_surface.o)
                0x004a4940                SDL_SetColorKey
                0x004a4a50                SDL_SetAlpha
                0x004a4c40                SDL_SetClipRect
                0x004a4cf0                SDL_GetClipRect
                0x004a4d10                SDL_LowerBlit
                0x004a4e10                SDL_UpperBlit
                0x004a5050                SDL_LockSurface
                0x004a50c0                SDL_UnlockSurface
                0x004a5120                SDL_SetAlphaChannel
                0x004a51e0                SDL_FillRect
                0x004a5620                SDL_FreeSurface
                0x004a5700                SDL_CreateRGBSurface
                0x004a5960                SDL_CreateRGBSurfaceFrom
                0x004a59f0                SDL_ConvertSurface
 .text          0x004a5da0     0x1030 C:/Dev/msys/local/lib\libSDL.a(SDL_pixels.o)
                0x004a5e10                SDL_FormatChanged
                0x004a5e80                SDL_FreeFormat
                0x004a5ed0                SDL_AllocFormat
                0x004a63a0                SDL_ReallocFormat
                0x004a6400                SDL_DitherColors
                0x004a6420                SDL_CalculatePitch
                0x004a6460                SDL_FindColor
                0x004a6610                SDL_MapRGB
                0x004a6690                SDL_MapRGBA
                0x004a6730                SDL_GetRGBA
                0x004a6840                SDL_GetRGB
                0x004a6910                SDL_ApplyGamma
                0x004a6970                SDL_InvalidateMap
                0x004a69b0                SDL_MapSurface
                0x004a6d10                SDL_FreeBlitMap
                0x004a6d70                SDL_AllocBlitMap
 .text          0x004a6dd0      0x5e0 C:/Dev/msys/local/lib\libSDL.a(SDL_cdrom.o)
                0x004a6e30                SDL_CDROMInit
                0x004a6e60                SDL_CDNumDrives
                0x004a6e90                SDL_CDName
                0x004a6ef0                SDL_CDOpen
                0x004a6f90                SDL_CDStatus
                0x004a7060                SDL_CDPlayTracks
                0x004a71f0                SDL_CDPlay
                0x004a7230                SDL_CDPause
                0x004a7280                SDL_CDResume
                0x004a72d0                SDL_CDStop
                0x004a7320                SDL_CDEject
                0x004a7350                SDL_CDClose
                0x004a7390                SDL_CDROMQuit
 .text          0x004a73b0       0xf0 C:/Dev/msys/local/lib\libSDL.a(SDL_fatal.o)
                0x004a73e0                SDL_InstallParachute
                0x004a7440                SDL_UninstallParachute
 .text          0x004a74a0      0xf10 C:/Dev/msys/local/lib\libSDL.a(SDL_rwops.o)
                0x004a7af0                SDL_AllocRW
                0x004a7b30                SDL_RWFromFP
                0x004a7b70                SDL_RWFromMem
                0x004a7bb0                SDL_RWFromConstMem
                0x004a7bf0                SDL_RWFromFile
                0x004a80f0                SDL_FreeRW
                0x004a8100                SDL_ReadLE16
                0x004a8130                SDL_ReadBE16
                0x004a8160                SDL_ReadLE32
                0x004a8190                SDL_ReadBE32
                0x004a81c0                SDL_ReadLE64
                0x004a8200                SDL_ReadBE64
                0x004a8240                SDL_WriteLE16
                0x004a8280                SDL_WriteBE16
                0x004a82c0                SDL_WriteLE32
                0x004a82f0                SDL_WriteBE32
                0x004a8330                SDL_WriteLE64
                0x004a8370                SDL_WriteBE64
 .text          0x004a83b0      0xfb0 C:/Dev/msys/local/lib\libSDL.a(SDL_wingl.o)
                0x004a8660                WIN_GL_ShutDown
                0x004a8700                WIN_GL_MakeCurrent
                0x004a8750                WIN_GL_GetAttribute
                0x004a89d0                WIN_GL_SwapBuffers
                0x004a89f0                WIN_GL_UnloadLibrary
                0x004a8a10                WIN_GL_LoadLibrary
                0x004a8be0                WIN_GL_GetProcAddress
                0x004a8c30                WIN_GL_SetupWindow
 .text          0x004a9360      0xe70 C:/Dev/msys/local/lib\libSDL.a(SDL_dibevents.o)
                0x004a95d0                DIB_HandleMessage
                0x004a99a0                DIB_PumpEvents
                0x004a9b30                DIB_InitOSKeymap
                0x004aa010                DIB_CreateWindow
                0x004aa170                DIB_DestroyWindow
 .text          0x004aa1d0      0x930 C:/Dev/msys/local/lib\libSDL.a(SDL_mmjoystick.o)
                0x004aa1d0                SDL_SYS_JoystickInit
                0x004aa520                SDL_SYS_JoystickName
                0x004aa540                SDL_SYS_JoystickOpen
                0x004aa6c0                SDL_SYS_JoystickUpdate
                0x004aaa90                SDL_SYS_JoystickClose
                0x004aaac0                SDL_SYS_JoystickQuit
 .text          0x004aab00       0x20 C:/Dev/msys/local/lib\libSDL.a(SDL_nullevents.o)
                0x004aab00                DUMMY_PumpEvents
                0x004aab10                DUMMY_InitOSKeymap
 .text          0x004aab20     0x4780 C:/Dev/msys/local/lib\libSDL.a(SDL_RLEaccel.o)
                0x004ab0d0                SDL_RLEBlit
                0x004ad940                SDL_RLEAlphaBlit
                0x004ae390                SDL_UnRLESurface
                0x004ae600                SDL_RLESurface
 .text          0x004af2a0      0x820 C:/Dev/msys/local/lib\libSDL.a(SDL_blit.o)
                0x004af780                SDL_CalculateBlit
 .text          0x004afac0      0x780 C:/Dev/msys/local/lib\libSDL.a(SDL_syscdrom.o)
                0x004b00f0                SDL_SYS_CDInit
                0x004b01f0                SDL_SYS_CDQuit
 .text          0x004b0240      0x2d0 C:/Dev/msys/local/lib\libSDL.a(SDL_cpuinfo.o)
                0x004b0490                SDL_HasRDTSC
                0x004b04a0                SDL_HasMMX
                0x004b04b0                SDL_HasMMXExt
                0x004b04c0                SDL_Has3DNow
                0x004b04d0                SDL_Has3DNowExt
                0x004b04e0                SDL_HasSSE
                0x004b04f0                SDL_HasSSE2
                0x004b0500                SDL_HasAltiVec
 .text          0x004b0510     0x7650 C:/Dev/msys/local/lib\libSDL.a(SDL_blit_N.o)
                0x004b7940                SDL_CalculateBlitN
 .text          0x004b7b60      0xdf0 C:/Dev/msys/local/lib\libSDL.a(SDL_blit_0.o)
                0x004b88d0                SDL_CalculateBlit0
 .text          0x004b8950     0x2a80 C:/Dev/msys/local/lib\libSDL.a(SDL_blit_1.o)
                0x004bb350                SDL_CalculateBlit1
 .text          0x004bb3d0     0x6070 C:/Dev/msys/local/lib\libSDL.a(SDL_blit_A.o)
                0x004c1260                SDL_CalculateAlphaBlit
 .text          0x004c1440        0x8 c:/Dev/TDM-GCC-32/bin/../lib/gcc/mingw32/5.1.0/../../..\libwinmm.a(dopcs00144.o)
                0x004c1440                timeBeginPeriod@4
 .text          0x004c1448        0x8 c:/Dev/TDM-GCC-32/bin/../lib/gcc/mingw32/5.1.0/../../..\libwinmm.a(dopcs00148.o)
                0x004c1448                timeGetTime@0
 .text          0x004c1450        0x8 c:/Dev/TDM-GCC-32/bin/../lib/gcc/mingw32/5.1.0/../../..\libwinmm.a(dopcs00150.o)
                0x004c1450                timeSetEvent@20
 .text          0x004c1458        0x8 c:/Dev/TDM-GCC-32/bin/../lib/gcc/mingw32/5.1.0/../../..\libwinmm.a(dopcs00149.o)
                0x004c1458                timeKillEvent@4
 .text          0x004c1460        0x8 c:/Dev/TDM-GCC-32/bin/../lib/gcc/mingw32/5.1.0/../../..\libwinmm.a(dopcs00145.o)
                0x004c1460                timeEndPeriod@4
 .text          0x004c1468        0x8 c:/Dev/TDM-GCC-32/bin/../lib/gcc/mingw32/5.1.0/../../..\libwinmm.a(dopcs00168.o)
                0x004c1468                waveOutClose@4
 .text          0x004c1470        0x8 c:/Dev/TDM-GCC-32/bin/../lib/gcc/mingw32/5.1.0/../../..\libwinmm.a(dopcs00188.o)
                0x004c1470                waveOutUnprepareHeader@12
 .text          0x004c1478        0x8 c:/Dev/TDM-GCC-32/bin/../lib/gcc/mingw32/5.1.0/../../..\libwinmm.a(dopcs00189.o)
                0x004c1478                waveOutWrite@12
 .text          0x004c1480        0x8 c:/Dev/TDM-GCC-32/bin/../lib/gcc/mingw32/5.1.0/../../..\libwinmm.a(dopcs00171.o)
                0x004c1480                waveOutGetErrorTextA@12
 .text          0x004c1488        0x8 c:/Dev/TDM-GCC-32/bin/../lib/gcc/mingw32/5.1.0/../../..\libwinmm.a(dopcs00180.o)
                0x004c1488                waveOutOpen@24
 .text          0x004c1490        0x8 c:/Dev/TDM-GCC-32/bin/../lib/gcc/mingw32/5.1.0/../../..\libwinmm.a(dopcs00182.o)
                0x004c1490                waveOutPrepareHeader@12
 .text          0x004c1498        0x8 c:/Dev/TDM-GCC-32/bin/../lib/gcc/mingw32/5.1.0/../../..\libwinmm.a(dopcs00025.o)
                0x004c1498                joyGetNumDevs@0
 .text          0x004c14a0        0x8 c:/Dev/TDM-GCC-32/bin/../lib/gcc/mingw32/5.1.0/../../..\libwinmm.a(dopcs00027.o)
                0x004c14a0                joyGetPosEx@8
 .text          0x004c14a8        0x8 c:/Dev/TDM-GCC-32/bin/../lib/gcc/mingw32/5.1.0/../../..\libwinmm.a(dopcs00023.o)
                0x004c14a8                joyGetDevCapsA@12
 .text          0x004c14b0        0x8 c:/Dev/TDM-GCC-32/bin/../lib/gcc/mingw32/5.1.0/../../..\libwinmm.a(dopcs00047.o)
                0x004c14b0                mciSendCommandA@16
 .text          0x004c14b8        0x8 c:/Dev/TDM-GCC-32/bin/../lib/gcc/mingw32/5.1.0/../../..\libwinmm.a(dopcs00043.o)
                0x004c14b8                mciGetErrorStringA@12
 .text          0x004c14c0        0x0 c:/Dev/TDM-GCC-32/bin/../lib/gcc/mingw32/5.1.0/../../..\libwinmm.a(dopch.o)
 .text          0x004c14c0        0x0 c:/Dev/TDM-GCC-32/bin/../lib/gcc/mingw32/5.1.0/../../..\libwinmm.a(dopct.o)
 .text          0x004c14c0        0x8 c:/Dev/TDM-GCC-32/bin/../lib/gcc/mingw32/5.1.0/../../..\libcomdlg32.a(demds00009.o)
                0x004c14c0                GetOpenFileNameA@4
 .text          0x004c14c8        0x0 c:/Dev/TDM-GCC-32/bin/../lib/gcc/mingw32/5.1.0/../../..\libcomdlg32.a(demdh.o)
 .text          0x004c14c8        0x0 c:/Dev/TDM-GCC-32/bin/../lib/gcc/mingw32/5.1.0/../../..\libcomdlg32.a(demdt.o)
 .text          0x004c14c8        0x8 c:/Dev/TDM-GCC-32/bin/../lib/gcc/mingw32/5.1.0/../../..\libgdi32.a(dkfhs00282.o)
                0x004c14c8                SelectPalette@12
 .text          0x004c14d0        0x8 c:/Dev/TDM-GCC-32/bin/../lib/gcc/mingw32/5.1.0/../../..\libgdi32.a(dkfhs00034.o)
                0x004c14d0                CreateCompatibleDC@4
 .text          0x004c14d8        0x8 c:/Dev/TDM-GCC-32/bin/../lib/gcc/mingw32/5.1.0/../../..\libgdi32.a(dkfhs00281.o)
                0x004c14d8                SelectObject@8
 .text          0x004c14e0        0x8 c:/Dev/TDM-GCC-32/bin/../lib/gcc/mingw32/5.1.0/../../..\libgdi32.a(dkfhs00012.o)
                0x004c14e0                BitBlt@36
 .text          0x004c14e8        0x8 c:/Dev/TDM-GCC-32/bin/../lib/gcc/mingw32/5.1.0/../../..\libgdi32.a(dkfhs00070.o)
                0x004c14e8                DeleteDC@4
 .text          0x004c14f0        0x8 c:/Dev/TDM-GCC-32/bin/../lib/gcc/mingw32/5.1.0/../../..\libgdi32.a(dkfhs00342.o)
                0x004c14f0                UnrealizeObject@4
 .text          0x004c14f8        0x8 c:/Dev/TDM-GCC-32/bin/../lib/gcc/mingw32/5.1.0/../../..\libgdi32.a(dkfhs00260.o)
                0x004c14f8                RealizePalette@4
 .text          0x004c1500        0x8 c:/Dev/TDM-GCC-32/bin/../lib/gcc/mingw32/5.1.0/../../..\libgdi32.a(dkfhs00320.o)
                0x004c1500                SetSystemPaletteUse@8
 .text          0x004c1508        0x8 c:/Dev/TDM-GCC-32/bin/../lib/gcc/mingw32/5.1.0/../../..\libgdi32.a(dkfhs00204.o)
                0x004c1508                GetSystemPaletteUse@4
 .text          0x004c1510        0x8 c:/Dev/TDM-GCC-32/bin/../lib/gcc/mingw32/5.1.0/../../..\libgdi32.a(dkfhs00311.o)
                0x004c1510                SetPaletteEntries@16
 .text          0x004c1518        0x8 c:/Dev/TDM-GCC-32/bin/../lib/gcc/mingw32/5.1.0/../../..\libgdi32.a(dkfhs00295.o)
                0x004c1518                SetDIBColorTable@16
 .text          0x004c1520        0x8 c:/Dev/TDM-GCC-32/bin/../lib/gcc/mingw32/5.1.0/../../..\libgdi32.a(dkfhs00033.o)
                0x004c1520                CreateCompatibleBitmap@12
 .text          0x004c1528        0x8 c:/Dev/TDM-GCC-32/bin/../lib/gcc/mingw32/5.1.0/../../..\libgdi32.a(dkfhs00147.o)
                0x004c1528                GetDIBits@28
 .text          0x004c1530        0x8 c:/Dev/TDM-GCC-32/bin/../lib/gcc/mingw32/5.1.0/../../..\libgdi32.a(dkfhs00073.o)
                0x004c1530                DeleteObject@4
 .text          0x004c1538        0x8 c:/Dev/TDM-GCC-32/bin/../lib/gcc/mingw32/5.1.0/../../..\libgdi32.a(dkfhs00149.o)
                0x004c1538                GetDeviceGammaRamp@8
 .text          0x004c1540        0x8 c:/Dev/TDM-GCC-32/bin/../lib/gcc/mingw32/5.1.0/../../..\libgdi32.a(dkfhs00298.o)
                0x004c1540                SetDeviceGammaRamp@8
 .text          0x004c1548        0x8 c:/Dev/TDM-GCC-32/bin/../lib/gcc/mingw32/5.1.0/../../..\libgdi32.a(dkfhs00203.o)
                0x004c1548                GetSystemPaletteEntries@16
 .text          0x004c1550        0x8 c:/Dev/TDM-GCC-32/bin/../lib/gcc/mingw32/5.1.0/../../..\libgdi32.a(dkfhs00056.o)
                0x004c1550                CreatePalette@4
 .text          0x004c1558        0x8 c:/Dev/TDM-GCC-32/bin/../lib/gcc/mingw32/5.1.0/../../..\libgdi32.a(dkfhs00039.o)
                0x004c1558                CreateDIBSection@24
 .text          0x004c1560        0x8 c:/Dev/TDM-GCC-32/bin/../lib/gcc/mingw32/5.1.0/../../..\libgdi32.a(dkfhs00015.o)
                0x004c1560                ChoosePixelFormat@8
 .text          0x004c1568        0x8 c:/Dev/TDM-GCC-32/bin/../lib/gcc/mingw32/5.1.0/../../..\libgdi32.a(dkfhs00313.o)
                0x004c1568                SetPixelFormat@12
 .text          0x004c1570        0x8 c:/Dev/TDM-GCC-32/bin/../lib/gcc/mingw32/5.1.0/../../..\libgdi32.a(dkfhs00338.o)
                0x004c1570                SwapBuffers@4
 .text          0x004c1578        0x8 c:/Dev/TDM-GCC-32/bin/../lib/gcc/mingw32/5.1.0/../../..\libgdi32.a(dkfhs00074.o)
                0x004c1578                DescribePixelFormat@16
 .text          0x004c1580        0x0 c:/Dev/TDM-GCC-32/bin/../lib/gcc/mingw32/5.1.0/../../..\libgdi32.a(dkfhh.o)
 .text          0x004c1580        0x0 c:/Dev/TDM-GCC-32/bin/../lib/gcc/mingw32/5.1.0/../../..\libgdi32.a(dkfht.o)
 .text          0x004c1580       0xf0 c:/Dev/TDM-GCC-32/bin/../lib/gcc/mingw32/5.1.0/../../..\libmingw32.a(tlssup.o)
                0x004c15d0                __dyn_tls_init@12
                0x004c1660                __tlregdtor
 .text          0x004c1670        0x0 c:/Dev/TDM-GCC-32/bin/../lib/gcc/mingw32/5.1.0/../../..\libmingw32.a(CRTglob.o)
 .text          0x004c1670        0x0 c:/Dev/TDM-GCC-32/bin/../lib/gcc/mingw32/5.1.0/../../..\libmingw32.a(CRTfmode.o)
 .text          0x004c1670        0x0 c:/Dev/TDM-GCC-32/bin/../lib/gcc/mingw32/5.1.0/../../..\libmingw32.a(txtmode.o)
 .text          0x004c1670       0xe0 c:/Dev/TDM-GCC-32/bin/../lib/gcc/mingw32/5.1.0/../../..\libmingw32.a(cpu_features.o)
                0x004c1670                __cpu_features_init
 .text          0x004c1750       0x10 c:/Dev/TDM-GCC-32/bin/../lib/gcc/mingw32/5.1.0/../../..\libmingw32.a(CRT_fp10.o)
                0x004c1750                fpreset
                0x004c1750                _fpreset
 .text          0x004c1760      0x350 c:/Dev/TDM-GCC-32/bin/../lib/gcc/mingw32/5.1.0/../../..\libmingw32.a(pseudo-reloc.o)
                0x004c18d0                _pei386_runtime_relocator
 .text          0x004c1ab0       0xa0 c:/Dev/TDM-GCC-32/bin/../lib/gcc/mingw32/5.1.0/../../..\libmingw32.a(gccmain.o)
                0x004c1ab0                __do_global_dtors
                0x004c1ae0                __do_global_ctors
                0x004c1b30                __main
 .text          0x004c1b50        0x0 c:/Dev/TDM-GCC-32/bin/../lib/gcc/mingw32/5.1.0/../../..\libmingw32.a(main.o)
 .text          0x004c1b50        0x0 c:/Dev/TDM-GCC-32/bin/../lib/gcc/mingw32/5.1.0/../../..\libmingw32.a(crtst.o)
 .text          0x004c1b50      0x220 c:/Dev/TDM-GCC-32/bin/../lib/gcc/mingw32/5.1.0/../../..\libmingw32.a(tlsthrd.o)
                0x004c1bb0                ___w64_mingwthr_add_key_dtor
                0x004c1c40                ___w64_mingwthr_remove_key_dtor
                0x004c1cd0                __mingw_TLScallback
 .text          0x004c1d70        0x0 c:/Dev/TDM-GCC-32/bin/../lib/gcc/mingw32/5.1.0/../../..\libmingw32.a(pseudo-reloc-list.o)
 .text          0x004c1d70       0x2c c:/Dev/TDM-GCC-32/bin/../lib/gcc/mingw32/5.1.0\libgcc.a(_chkstk_ms.o)
                0x004c1d70                __chkstk_ms
 *fill*         0x004c1d9c        0x4 
 .text          0x004c1da0      0x140 c:/Dev/TDM-GCC-32/bin/../lib/gcc/mingw32/5.1.0\libgcc.a(_divdi3.o)
                0x004c1da0                __divdi3
 .text          0x004c1ee0        0x0 c:/Dev/TDM-GCC-32/bin/../lib/gcc/mingw32/5.1.0\libgcc.a(_ctors.o)
 .text          0x004c1ee0        0x8 c:/Dev/TDM-GCC-32/bin/../lib/gcc/mingw32/5.1.0/../../..\libmoldname.a(dofms00097.o)
                0x004c1ee0                unlink
 .text          0x004c1ee8        0x8 c:/Dev/TDM-GCC-32/bin/../lib/gcc/mingw32/5.1.0/../../..\libmoldname.a(dofms00037.o)
                0x004c1ee8                getcwd
 .text          0x004c1ef0        0x8 c:/Dev/TDM-GCC-32/bin/../lib/gcc/mingw32/5.1.0/../../..\libmoldname.a(dofms00081.o)
                0x004c1ef0                stricmp
 .text          0x004c1ef8        0x8 c:/Dev/TDM-GCC-32/bin/../lib/gcc/mingw32/5.1.0/../../..\libmoldname.a(dofms00058.o)
                0x004c1ef8                open
 .text          0x004c1f00        0x8 c:/Dev/TDM-GCC-32/bin/../lib/gcc/mingw32/5.1.0/../../..\libmoldname.a(dofms00064.o)
                0x004c1f00                read
 .text          0x004c1f08        0x8 c:/Dev/TDM-GCC-32/bin/../lib/gcc/mingw32/5.1.0/../../..\libmoldname.a(dofms00006.o)
                0x004c1f08                close
 .text          0x004c1f10        0x8 c:/Dev/TDM-GCC-32/bin/../lib/gcc/mingw32/5.1.0/../../..\libmoldname.a(dofms00109.o)
                0x004c1f10                write
 .text          0x004c1f18        0x8 c:/Dev/TDM-GCC-32/bin/../lib/gcc/mingw32/5.1.0/../../..\libmoldname.a(dofms00080.o)
                0x004c1f18                strdup
 .text          0x004c1f20        0x0 c:/Dev/TDM-GCC-32/bin/../lib/gcc/mingw32/5.1.0/../../..\libmoldname.a(dofmh.o)
 .text          0x004c1f20        0x0 c:/Dev/TDM-GCC-32/bin/../lib/gcc/mingw32/5.1.0/../../..\libmoldname.a(dofmt.o)
 .text          0x004c1f20       0x40 c:/Dev/TDM-GCC-32/bin/../lib/gcc/mingw32/5.1.0/../../..\libmingwex.a(vfprintf.o)
                0x004c1f20                __mingw_vfprintf
 .text          0x004c1f60       0x40 c:/Dev/TDM-GCC-32/bin/../lib/gcc/mingw32/5.1.0/../../..\libmingwex.a(vprintf.o)
                0x004c1f60                __mingw_vprintf
 .text          0x004c1fa0       0x30 c:/Dev/TDM-GCC-32/bin/../lib/gcc/mingw32/5.1.0/../../..\libmingwex.a(snprintf.o)
                0x004c1fa0                __mingw_snprintf
                0x004c1fa0                snprintf
 .text          0x004c1fd0       0x90 c:/Dev/TDM-GCC-32/bin/../lib/gcc/mingw32/5.1.0/../../..\libmingwex.a(vsnprintf.o)
                0x004c1fd0                __mingw_vsnprintf
                0x004c1fd0                vsnprintf
 .text          0x004c2060      0x3d0 c:/Dev/TDM-GCC-32/bin/../lib/gcc/mingw32/5.1.0/../../..\libmingwex.a(strtoumax.o)
                0x004c2060                strtoull
                0x004c2060                strtoumax
 .text          0x004c2430     0x1ec0 c:/Dev/TDM-GCC-32/bin/../lib/gcc/mingw32/5.1.0/../../..\libmingwex.a(pformat.o)
                0x004c39e0                __mingw_pformat
 .text          0x004c42f0     0x15c0 c:/Dev/TDM-GCC-32/bin/../lib/gcc/mingw32/5.1.0/../../..\libmingwex.a(gdtoa.o)
                0x004c42f0                __gdtoa
 .text          0x004c58b0      0x270 c:/Dev/TDM-GCC-32/bin/../lib/gcc/mingw32/5.1.0/../../..\libmingwex.a(wcrtomb.o)
                0x004c5950                wcrtomb
                0x004c59e0                wcsrtombs
 .text          0x004c5b20      0x450 c:/Dev/TDM-GCC-32/bin/../lib/gcc/mingw32/5.1.0/../../..\libmingwex.a(mbrtowc.o)
                0x004c5cc0                mbrtowc
                0x004c5d70                mbsrtowcs
                0x004c5ee0                mbrlen
 .text          0x004c5f70      0x2d0 c:/Dev/TDM-GCC-32/bin/../lib/gcc/mingw32/5.1.0/../../..\libmingwex.a(dmisc.o)
                0x004c5f70                __rv_alloc_D2A
                0x004c5fb0                __nrv_alloc_D2A
                0x004c6000                __freedtoa
                0x004c6020                __quorem_D2A
 .text          0x004c6240      0xb40 c:/Dev/TDM-GCC-32/bin/../lib/gcc/mingw32/5.1.0/../../..\libmingwex.a(misc.o)
                0x004c6380                __Balloc_D2A
                0x004c6440                __Bfree_D2A
                0x004c6490                __multadd_D2A
                0x004c6590                __i2b_D2A
                0x004c65c0                __mult_D2A
                0x004c6720                __pow5mult_D2A
                0x004c6840                __lshift_D2A
                0x004c6940                __cmp_D2A
                0x004c69b0                __diff_D2A
                0x004c6b40                __b2d_D2A
                0x004c6c50                __d2b_D2A
                0x004c6d50                __strcp_D2A
 .text          0x004c6d80      0x150 c:/Dev/TDM-GCC-32/bin/../lib/gcc/mingw32/5.1.0/../../..\libmingwex.a(gmisc.o)
                0x004c6d80                __rshift_D2A
                0x004c6e90                __trailz_D2A
 .text          0x004c6ed0        0x0 c:/Dev/TDM-GCC-32/bin/../lib/gcc/mingw32/5.1.0/../../..\libmsvcrt.a(dsnos00266.o)
 .text          0x004c6ed0        0x0 c:/Dev/TDM-GCC-32/bin/../lib/gcc/mingw32/5.1.0/../../..\libmsvcrt.a(dsnos00590.o)
 .text          0x004c6ed0        0x0 c:/Dev/TDM-GCC-32/bin/../lib/gcc/mingw32/5.1.0/../../..\libmsvcrt.a(dsnos00383.o)
 .text          0x004c6ed0        0x8 c:/Dev/TDM-GCC-32/bin/../lib/gcc/mingw32/5.1.0/../../..\libmsvcrt.a(dsnos00055.o)
                0x004c6ed0                __getmainargs
 .text          0x004c6ed8        0x8 c:/Dev/TDM-GCC-32/bin/../lib/gcc/mingw32/5.1.0/../../..\libmsvcrt.a(dsnos00426.o)
                0x004c6ed8                _setmode
 .text          0x004c6ee0        0x8 c:/Dev/TDM-GCC-32/bin/../lib/gcc/mingw32/5.1.0/../../..\libmsvcrt.a(dsnos00079.o)
                0x004c6ee0                __p__fmode
 .text          0x004c6ee8        0x8 c:/Dev/TDM-GCC-32/bin/../lib/gcc/mingw32/5.1.0/../../..\libmsvcrt.a(dsnos00077.o)
                0x004c6ee8                __p__environ
 .text          0x004c6ef0        0x8 c:/Dev/TDM-GCC-32/bin/../lib/gcc/mingw32/5.1.0/../../..\libmsvcrt.a(dsnos00147.o)
                0x004c6ef0                _cexit
 .text          0x004c6ef8        0x8 c:/Dev/TDM-GCC-32/bin/../lib/gcc/mingw32/5.1.0/../../..\libmsvcrt.a(dsnos00706.o)
                0x004c6ef8                signal
 .text          0x004c6f00        0x8 c:/Dev/TDM-GCC-32/bin/../lib/gcc/mingw32/5.1.0/../../..\libmsvcrt.a(dsnos00676.o)
                0x004c6f00                malloc
 .text          0x004c6f08        0x8 c:/Dev/TDM-GCC-32/bin/../lib/gcc/mingw32/5.1.0/../../..\libmsvcrt.a(dsnos00696.o)
                0x004c6f08                raise
 .text          0x004c6f10        0x8 c:/Dev/TDM-GCC-32/bin/../lib/gcc/mingw32/5.1.0/../../..\libmsvcrt.a(dsnos00625.o)
                0x004c6f10                free
 .text          0x004c6f18        0x8 c:/Dev/TDM-GCC-32/bin/../lib/gcc/mingw32/5.1.0/../../..\libmsvcrt.a(dsnos00684.o)
                0x004c6f18                memset
 .text          0x004c6f20        0x8 c:/Dev/TDM-GCC-32/bin/../lib/gcc/mingw32/5.1.0/../../..\libmsvcrt.a(dsnos00709.o)
                0x004c6f20                sprintf
 .text          0x004c6f28        0x8 c:/Dev/TDM-GCC-32/bin/../lib/gcc/mingw32/5.1.0/../../..\libmsvcrt.a(dsnos00624.o)
                0x004c6f28                fread
 .text          0x004c6f30        0x8 c:/Dev/TDM-GCC-32/bin/../lib/gcc/mingw32/5.1.0/../../..\libmsvcrt.a(dsnos00629.o)
                0x004c6f30                fseek
 .text          0x004c6f38        0x8 c:/Dev/TDM-GCC-32/bin/../lib/gcc/mingw32/5.1.0/../../..\libmsvcrt.a(dsnos00715.o)
                0x004c6f38                strcmp
 .text          0x004c6f40        0x8 c:/Dev/TDM-GCC-32/bin/../lib/gcc/mingw32/5.1.0/../../..\libmsvcrt.a(dsnos00618.o)
                0x004c6f40                fopen
 .text          0x004c6f48        0x8 c:/Dev/TDM-GCC-32/bin/../lib/gcc/mingw32/5.1.0/../../..\libmsvcrt.a(dsnos00607.o)
                0x004c6f48                fclose
 .text          0x004c6f50        0x8 c:/Dev/TDM-GCC-32/bin/../lib/gcc/mingw32/5.1.0/../../..\libmsvcrt.a(dsnos00631.o)
                0x004c6f50                ftell
 .text          0x004c6f58        0x8 c:/Dev/TDM-GCC-32/bin/../lib/gcc/mingw32/5.1.0/../../..\libmsvcrt.a(dsnos00721.o)
                0x004c6f58                strlen
 .text          0x004c6f60        0x8 c:/Dev/TDM-GCC-32/bin/../lib/gcc/mingw32/5.1.0/../../..\libmsvcrt.a(dsnos00681.o)
                0x004c6f60                memcmp
 .text          0x004c6f68        0x8 c:/Dev/TDM-GCC-32/bin/../lib/gcc/mingw32/5.1.0/../../..\libmsvcrt.a(dsnos00619.o)
                0x004c6f68                fprintf
 .text          0x004c6f70        0x8 c:/Dev/TDM-GCC-32/bin/../lib/gcc/mingw32/5.1.0/../../..\libmsvcrt.a(dsnos00633.o)
                0x004c6f70                fwrite
 .text          0x004c6f78        0x8 c:/Dev/TDM-GCC-32/bin/../lib/gcc/mingw32/5.1.0/../../..\libmsvcrt.a(dsnos00182.o)
                0x004c6f78                _errno
 .text          0x004c6f80        0x8 c:/Dev/TDM-GCC-32/bin/../lib/gcc/mingw32/5.1.0/../../..\libmsvcrt.a(dsnos00613.o)
                0x004c6f80                fgets
 .text          0x004c6f88        0x8 c:/Dev/TDM-GCC-32/bin/../lib/gcc/mingw32/5.1.0/../../..\libmsvcrt.a(dsnos00714.o)
                0x004c6f88                strchr
 .text          0x004c6f90        0x8 c:/Dev/TDM-GCC-32/bin/../lib/gcc/mingw32/5.1.0/../../..\libmsvcrt.a(dsnos00717.o)
                0x004c6f90                strcpy
 .text          0x004c6f98        0x8 c:/Dev/TDM-GCC-32/bin/../lib/gcc/mingw32/5.1.0/../../..\libmsvcrt.a(dsnos00719.o)
                0x004c6f98                strerror
 .text          0x004c6fa0        0x8 c:/Dev/TDM-GCC-32/bin/../lib/gcc/mingw32/5.1.0/../../..\libmsvcrt.a(dsnos00451.o)
                0x004c6fa0                _stricmp
 .text          0x004c6fa8        0x8 c:/Dev/TDM-GCC-32/bin/../lib/gcc/mingw32/5.1.0/../../..\libmsvcrt.a(dsnos00688.o)
                0x004c6fa8                pow
 .text          0x004c6fb0        0x8 c:/Dev/TDM-GCC-32/bin/../lib/gcc/mingw32/5.1.0/../../..\libmsvcrt.a(dsnos00604.o)
                0x004c6fb0                exit
 .text          0x004c6fb8        0x8 c:/Dev/TDM-GCC-32/bin/../lib/gcc/mingw32/5.1.0/../../..\libmsvcrt.a(dsnos00772.o)
                0x004c6fb8                wcstombs
 .text          0x004c6fc0        0x8 c:/Dev/TDM-GCC-32/bin/../lib/gcc/mingw32/5.1.0/../../..\libmsvcrt.a(dsnos00592.o)
                0x004c6fc0                atoi
 .text          0x004c6fc8        0x8 c:/Dev/TDM-GCC-32/bin/../lib/gcc/mingw32/5.1.0/../../..\libmsvcrt.a(dsnos00682.o)
                0x004c6fc8                memcpy
 .text          0x004c6fd0        0x8 c:/Dev/TDM-GCC-32/bin/../lib/gcc/mingw32/5.1.0/../../..\libmsvcrt.a(dsnos00317.o)
                0x004c6fd0                _lseeki64
 .text          0x004c6fd8        0x8 c:/Dev/TDM-GCC-32/bin/../lib/gcc/mingw32/5.1.0/../../..\libmsvcrt.a(dsnos00544.o)
                0x004c6fd8                _wopen
 .text          0x004c6fe0        0x8 c:/Dev/TDM-GCC-32/bin/../lib/gcc/mingw32/5.1.0/../../..\libmsvcrt.a(dsnos00680.o)
                0x004c6fe0                memchr
 .text          0x004c6fe8        0x8 c:/Dev/TDM-GCC-32/bin/../lib/gcc/mingw32/5.1.0/../../..\libmsvcrt.a(dsnos00728.o)
                0x004c6fe8                strstr
 .text          0x004c6ff0        0x8 c:/Dev/TDM-GCC-32/bin/../lib/gcc/mingw32/5.1.0/../../..\libmsvcrt.a(dsnos00591.o)
                0x004c6ff0                atof
 .text          0x004c6ff8        0x8 c:/Dev/TDM-GCC-32/bin/../lib/gcc/mingw32/5.1.0/../../..\libmsvcrt.a(dsnos00595.o)
                0x004c6ff8                calloc
 .text          0x004c7000        0x8 c:/Dev/TDM-GCC-32/bin/../lib/gcc/mingw32/5.1.0/../../..\libmsvcrt.a(dsnos00179.o)
                0x004c7000                _endthreadex
 .text          0x004c7008        0x8 c:/Dev/TDM-GCC-32/bin/../lib/gcc/mingw32/5.1.0/../../..\libmsvcrt.a(dsnos00143.o)
                0x004c7008                _beginthreadex
 .text          0x004c7010        0x8 c:/Dev/TDM-GCC-32/bin/../lib/gcc/mingw32/5.1.0/../../..\libmsvcrt.a(dsnos00698.o)
                0x004c7010                realloc
 .text          0x004c7018        0x8 c:/Dev/TDM-GCC-32/bin/../lib/gcc/mingw32/5.1.0/../../..\libmsvcrt.a(dsnos00695.o)
                0x004c7018                qsort
 .text          0x004c7020        0x8 c:/Dev/TDM-GCC-32/bin/../lib/gcc/mingw32/5.1.0/../../..\libmsvcrt.a(dsnos00712.o)
                0x004c7020                sscanf
 .text          0x004c7028        0x8 c:/Dev/TDM-GCC-32/bin/../lib/gcc/mingw32/5.1.0/../../..\libmsvcrt.a(dsnos00683.o)
                0x004c7028                memmove
 .text          0x004c7030        0x8 c:/Dev/TDM-GCC-32/bin/../lib/gcc/mingw32/5.1.0/../../..\libmsvcrt.a(dsnos00748.o)
                0x004c7030                vfprintf
 .text          0x004c7038        0x8 c:/Dev/TDM-GCC-32/bin/../lib/gcc/mingw32/5.1.0/../../..\libmsvcrt.a(dsnos00583.o)
                0x004c7038                abort
 .text          0x004c7040        0x0 c:/Dev/TDM-GCC-32/bin/../lib/gcc/mingw32/5.1.0/../../..\libmsvcrt.a(dsnos00065.o)
 .text          0x004c7040        0x0 c:/Dev/TDM-GCC-32/bin/../lib/gcc/mingw32/5.1.0/../../..\libmsvcrt.a(dsnos00392.o)
 .text          0x004c7040        0x8 c:/Dev/TDM-GCC-32/bin/../lib/gcc/mingw32/5.1.0/../../..\libmsvcrt.a(dsnos00268.o)
                0x004c7040                _isctype
 .text          0x004c7048        0x8 c:/Dev/TDM-GCC-32/bin/../lib/gcc/mingw32/5.1.0/../../..\libmsvcrt.a(dsnos00620.o)
                0x004c7048                fputc
 .text          0x004c7050        0x8 c:/Dev/TDM-GCC-32/bin/../lib/gcc/mingw32/5.1.0/../../..\libmsvcrt.a(dsnos00671.o)
                0x004c7050                localeconv
 .text          0x004c7058        0x8 c:/Dev/TDM-GCC-32/bin/../lib/gcc/mingw32/5.1.0/../../..\libmsvcrt.a(dsnos00637.o)
                0x004c7058                getenv
 .text          0x004c7060        0x4 c:/Dev/TDM-GCC-32/bin/../lib/gcc/mingw32/5.1.0/../../..\libmsvcrt.a(ofmt_stub.o)
                0x004c7060                _get_output_format
 .text          0x004c7064        0x8 c:/Dev/TDM-GCC-32/bin/../lib/gcc/mingw32/5.1.0/../../..\libmsvcrt.a(dsnos00761.o)
                0x004c7064                wcslen
 .text          0x004c706c        0x8 c:/Dev/TDM-GCC-32/bin/../lib/gcc/mingw32/5.1.0/../../..\libmsvcrt.a(dsnos00704.o)
                0x004c706c                setlocale
 .text          0x004c7074        0x0 c:/Dev/TDM-GCC-32/bin/../lib/gcc/mingw32/5.1.0/../../..\libmsvcrt.a(dsnoh.o)
 .text          0x004c7074        0x0 c:/Dev/TDM-GCC-32/bin/../lib/gcc/mingw32/5.1.0/../../..\libmsvcrt.a(dsnot.o)
 .text          0x004c7074        0x8 c:/Dev/TDM-GCC-32/bin/../lib/gcc/mingw32/5.1.0/../../..\libadvapi32.a(dgxgs00413.o)
                0x004c7074                RegOpenKeyExA@20
 .text          0x004c707c        0x8 c:/Dev/TDM-GCC-32/bin/../lib/gcc/mingw32/5.1.0/../../..\libadvapi32.a(dgxgs00423.o)
                0x004c707c                RegQueryValueExA@24
 .text          0x004c7084        0x8 c:/Dev/TDM-GCC-32/bin/../lib/gcc/mingw32/5.1.0/../../..\libadvapi32.a(dgxgs00386.o)
                0x004c7084                RegCloseKey@4
 .text          0x004c708c        0x0 c:/Dev/TDM-GCC-32/bin/../lib/gcc/mingw32/5.1.0/../../..\libadvapi32.a(dgxgh.o)
 .text          0x004c708c        0x0 c:/Dev/TDM-GCC-32/bin/../lib/gcc/mingw32/5.1.0/../../..\libadvapi32.a(dgxgt.o)
 .text          0x004c708c        0x8 c:/Dev/TDM-GCC-32/bin/../lib/gcc/mingw32/5.1.0/../../..\libuser32.a(daois00575.o)
                0x004c708c                SetWindowTextW@8
 .text          0x004c7094        0x8 c:/Dev/TDM-GCC-32/bin/../lib/gcc/mingw32/5.1.0/../../..\libuser32.a(daois00574.o)
                0x004c7094                SetWindowTextA@8
 .text          0x004c709c        0x8 c:/Dev/TDM-GCC-32/bin/../lib/gcc/mingw32/5.1.0/../../..\libuser32.a(daois00534.o)
                0x004c709c                SetForegroundWindow@4
 .text          0x004c70a4        0x8 c:/Dev/TDM-GCC-32/bin/../lib/gcc/mingw32/5.1.0/../../..\libuser32.a(daois00269.o)
                0x004c70a4                GetKeyboardLayout@4
 .text          0x004c70ac        0x8 c:/Dev/TDM-GCC-32/bin/../lib/gcc/mingw32/5.1.0/../../..\libuser32.a(daois00598.o)
                0x004c70ac                ToAsciiEx@24
 .text          0x004c70b4        0x8 c:/Dev/TDM-GCC-32/bin/../lib/gcc/mingw32/5.1.0/../../..\libuser32.a(daois00134.o)
                0x004c70b4                DefWindowProcA@16
 .text          0x004c70bc        0x8 c:/Dev/TDM-GCC-32/bin/../lib/gcc/mingw32/5.1.0/../../..\libuser32.a(daois00468.o)
                0x004c70bc                PostQuitMessage@4
 .text          0x004c70c4        0x8 c:/Dev/TDM-GCC-32/bin/../lib/gcc/mingw32/5.1.0/../../..\libuser32.a(daois00348.o)
                0x004c70c4                GetWindowRect@8
 .text          0x004c70cc        0x8 c:/Dev/TDM-GCC-32/bin/../lib/gcc/mingw32/5.1.0/../../..\libuser32.a(daois00342.o)
                0x004c70cc                GetWindowLongA@8
 .text          0x004c70d4        0x8 c:/Dev/TDM-GCC-32/bin/../lib/gcc/mingw32/5.1.0/../../..\libuser32.a(daois00279.o)
                0x004c70d4                GetMenu@4
 .text          0x004c70dc        0x8 c:/Dev/TDM-GCC-32/bin/../lib/gcc/mingw32/5.1.0/../../..\libuser32.a(daois00001.o)
                0x004c70dc                AdjustWindowRect@12
 .text          0x004c70e4        0x8 c:/Dev/TDM-GCC-32/bin/../lib/gcc/mingw32/5.1.0/../../..\libuser32.a(daois00533.o)
                0x004c70e4                SetFocus@4
 .text          0x004c70ec        0x8 c:/Dev/TDM-GCC-32/bin/../lib/gcc/mingw32/5.1.0/../../..\libuser32.a(daois00525.o)
                0x004c70ec                SetCursor@4
 .text          0x004c70f4        0x8 c:/Dev/TDM-GCC-32/bin/../lib/gcc/mingw32/5.1.0/../../..\libuser32.a(daois00236.o)
                0x004c70f4                GetClientRect@8
 .text          0x004c70fc        0x8 c:/Dev/TDM-GCC-32/bin/../lib/gcc/mingw32/5.1.0/../../..\libuser32.a(daois00059.o)
                0x004c70fc                ClientToScreen@8
 .text          0x004c7104        0x8 c:/Dev/TDM-GCC-32/bin/../lib/gcc/mingw32/5.1.0/../../..\libuser32.a(daois00011.o)
                0x004c7104                BeginPaint@8
 .text          0x004c710c        0x8 c:/Dev/TDM-GCC-32/bin/../lib/gcc/mingw32/5.1.0/../../..\libuser32.a(daois00184.o)
                0x004c710c                EndPaint@8
 .text          0x004c7114        0x8 c:/Dev/TDM-GCC-32/bin/../lib/gcc/mingw32/5.1.0/../../..\libuser32.a(daois00398.o)
                0x004c7114                IsZoomed@4
 .text          0x004c711c        0x8 c:/Dev/TDM-GCC-32/bin/../lib/gcc/mingw32/5.1.0/../../..\libuser32.a(daois00060.o)
                0x004c711c                ClipCursor@4
 .text          0x004c7124        0x8 c:/Dev/TDM-GCC-32/bin/../lib/gcc/mingw32/5.1.0/../../..\libuser32.a(daois00517.o)
                0x004c7124                SetCapture@4
 .text          0x004c712c        0x8 c:/Dev/TDM-GCC-32/bin/../lib/gcc/mingw32/5.1.0/../../..\libuser32.a(daois00493.o)
                0x004c712c                ReleaseCapture@0
 .text          0x004c7134        0x8 c:/Dev/TDM-GCC-32/bin/../lib/gcc/mingw32/5.1.0/../../..\libuser32.a(daois00585.o)
                0x004c7134                ShowWindow@8
 .text          0x004c713c        0x8 c:/Dev/TDM-GCC-32/bin/../lib/gcc/mingw32/5.1.0/../../..\libuser32.a(daois00029.o)
                0x004c713c                ChangeDisplaySettingsA@8
 .text          0x004c7144        0x8 c:/Dev/TDM-GCC-32/bin/../lib/gcc/mingw32/5.1.0/../../..\libuser32.a(daois00563.o)
                0x004c7144                SetTimer@16
 .text          0x004c714c        0x8 c:/Dev/TDM-GCC-32/bin/../lib/gcc/mingw32/5.1.0/../../..\libuser32.a(daois00431.o)
                0x004c714c                MapWindowPoints@16
 .text          0x004c7154        0x8 c:/Dev/TDM-GCC-32/bin/../lib/gcc/mingw32/5.1.0/../../..\libuser32.a(daois00247.o)
                0x004c7154                GetCursorPos@4
 .text          0x004c715c        0x8 c:/Dev/TDM-GCC-32/bin/../lib/gcc/mingw32/5.1.0/../../..\libuser32.a(daois00474.o)
                0x004c715c                PtInRect@12
 .text          0x004c7164        0x8 c:/Dev/TDM-GCC-32/bin/../lib/gcc/mingw32/5.1.0/../../..\libuser32.a(daois00635.o)
                0x004c7164                WindowFromPoint@8
 .text          0x004c716c        0x8 c:/Dev/TDM-GCC-32/bin/../lib/gcc/mingw32/5.1.0/../../..\libuser32.a(daois00400.o)
                0x004c716c                KillTimer@8
 .text          0x004c7174        0x8 c:/Dev/TDM-GCC-32/bin/../lib/gcc/mingw32/5.1.0/../../..\libuser32.a(daois00466.o)
                0x004c7174                PostMessageA@16
 .text          0x004c717c        0x8 c:/Dev/TDM-GCC-32/bin/../lib/gcc/mingw32/5.1.0/../../..\libuser32.a(daois00608.o)
                0x004c717c                TranslateMessage@4
 .text          0x004c7184        0x8 c:/Dev/TDM-GCC-32/bin/../lib/gcc/mingw32/5.1.0/../../..\libuser32.a(daois00149.o)
                0x004c7184                DispatchMessageA@4
 .text          0x004c718c        0x8 c:/Dev/TDM-GCC-32/bin/../lib/gcc/mingw32/5.1.0/../../..\libuser32.a(daois00464.o)
                0x004c718c                PeekMessageA@20
 .text          0x004c7194        0x8 c:/Dev/TDM-GCC-32/bin/../lib/gcc/mingw32/5.1.0/../../..\libuser32.a(daois00411.o)
                0x004c7194                LoadImageA@24
 .text          0x004c719c        0x8 c:/Dev/TDM-GCC-32/bin/../lib/gcc/mingw32/5.1.0/../../..\libuser32.a(daois00479.o)
                0x004c719c                RegisterClassA@4
 .text          0x004c71a4        0x8 c:/Dev/TDM-GCC-32/bin/../lib/gcc/mingw32/5.1.0/../../..\libuser32.a(daois00599.o)
                0x004c71a4                ToUnicode@24
 .text          0x004c71ac        0x8 c:/Dev/TDM-GCC-32/bin/../lib/gcc/mingw32/5.1.0/../../..\libuser32.a(daois00227.o)
                0x004c71ac                GetClassInfoA@12
 .text          0x004c71b4        0x8 c:/Dev/TDM-GCC-32/bin/../lib/gcc/mingw32/5.1.0/../../..\libuser32.a(daois00615.o)
                0x004c71b4                UnregisterClassA@8
 .text          0x004c71bc        0x8 c:/Dev/TDM-GCC-32/bin/../lib/gcc/mingw32/5.1.0/../../..\libuser32.a(daois00245.o)
                0x004c71bc                GetCursor@0
 .text          0x004c71c4        0x8 c:/Dev/TDM-GCC-32/bin/../lib/gcc/mingw32/5.1.0/../../..\libuser32.a(daois00141.o)
                0x004c71c4                DestroyCursor@4
 .text          0x004c71cc        0x8 c:/Dev/TDM-GCC-32/bin/../lib/gcc/mingw32/5.1.0/../../..\libuser32.a(daois00326.o)
                0x004c71cc                GetSystemMetrics@4
 .text          0x004c71d4        0x8 c:/Dev/TDM-GCC-32/bin/../lib/gcc/mingw32/5.1.0/../../..\libuser32.a(daois00075.o)
                0x004c71d4                CreateCursor@28
 .text          0x004c71dc        0x8 c:/Dev/TDM-GCC-32/bin/../lib/gcc/mingw32/5.1.0/../../..\libuser32.a(daois00526.o)
                0x004c71dc                SetCursorPos@8
 .text          0x004c71e4        0x8 c:/Dev/TDM-GCC-32/bin/../lib/gcc/mingw32/5.1.0/../../..\libuser32.a(daois00500.o)
                0x004c71e4                ScreenToClient@8
 .text          0x004c71ec        0x8 c:/Dev/TDM-GCC-32/bin/../lib/gcc/mingw32/5.1.0/../../..\libuser32.a(daois00248.o)
                0x004c71ec                GetDC@4
 .text          0x004c71f4        0x8 c:/Dev/TDM-GCC-32/bin/../lib/gcc/mingw32/5.1.0/../../..\libuser32.a(daois00494.o)
                0x004c71f4                ReleaseDC@8
 .text          0x004c71fc        0x8 c:/Dev/TDM-GCC-32/bin/../lib/gcc/mingw32/5.1.0/../../..\libuser32.a(daois00370.o)
                0x004c71fc                InvalidateRect@12
 .text          0x004c7204        0x8 c:/Dev/TDM-GCC-32/bin/../lib/gcc/mingw32/5.1.0/../../..\libuser32.a(daois00194.o)
                0x004c7204                EnumDisplaySettingsA@12
 .text          0x004c720c        0x8 c:/Dev/TDM-GCC-32/bin/../lib/gcc/mingw32/5.1.0/../../..\libuser32.a(daois00002.o)
                0x004c720c                AdjustWindowRectEx@16
 .text          0x004c7214        0x8 c:/Dev/TDM-GCC-32/bin/../lib/gcc/mingw32/5.1.0/../../..\libuser32.a(daois00572.o)
                0x004c7214                SetWindowPos@28
 .text          0x004c721c        0x8 c:/Dev/TDM-GCC-32/bin/../lib/gcc/mingw32/5.1.0/../../..\libuser32.a(daois00304.o)
                0x004c721c                GetParent@4
 .text          0x004c7224        0x8 c:/Dev/TDM-GCC-32/bin/../lib/gcc/mingw32/5.1.0/../../..\libuser32.a(daois00569.o)
                0x004c7224                SetWindowLongA@12
 .text          0x004c722c        0x8 c:/Dev/TDM-GCC-32/bin/../lib/gcc/mingw32/5.1.0/../../..\libuser32.a(daois00142.o)
                0x004c722c                DestroyIcon@4
 .text          0x004c7234        0x8 c:/Dev/TDM-GCC-32/bin/../lib/gcc/mingw32/5.1.0/../../..\libuser32.a(daois00084.o)
                0x004c7234                CreateIconFromResourceEx@28
 .text          0x004c723c        0x8 c:/Dev/TDM-GCC-32/bin/../lib/gcc/mingw32/5.1.0/../../..\libuser32.a(daois00520.o)
                0x004c723c                SetClassLongA@12
 .text          0x004c7244        0x8 c:/Dev/TDM-GCC-32/bin/../lib/gcc/mingw32/5.1.0/../../..\libuser32.a(daois00090.o)
                0x004c7244                CreateWindowExA@48
 .text          0x004c724c        0x8 c:/Dev/TDM-GCC-32/bin/../lib/gcc/mingw32/5.1.0/../../..\libuser32.a(daois00144.o)
                0x004c724c                DestroyWindow@4
 .text          0x004c7254        0x8 c:/Dev/TDM-GCC-32/bin/../lib/gcc/mingw32/5.1.0/../../..\libuser32.a(daois00273.o)
                0x004c7254                GetKeyboardState@4
 .text          0x004c725c        0x8 c:/Dev/TDM-GCC-32/bin/../lib/gcc/mingw32/5.1.0/../../..\libuser32.a(daois00428.o)
                0x004c725c                MapVirtualKeyExA@12
 .text          0x004c7264        0x8 c:/Dev/TDM-GCC-32/bin/../lib/gcc/mingw32/5.1.0/../../..\libuser32.a(daois00024.o)
                0x004c7264                CallWindowProcA@20
 .text          0x004c726c        0x8 c:/Dev/TDM-GCC-32/bin/../lib/gcc/mingw32/5.1.0/../../..\libuser32.a(daois00268.o)
                0x004c726c                GetKeyState@4
 .text          0x004c7274        0x8 c:/Dev/TDM-GCC-32/bin/../lib/gcc/mingw32/5.1.0/../../..\libuser32.a(daois00293.o)
                0x004c7274                GetMessageA@16
 .text          0x004c727c        0x8 c:/Dev/TDM-GCC-32/bin/../lib/gcc/mingw32/5.1.0/../../..\libuser32.a(daois00271.o)
                0x004c727c                GetKeyboardLayoutNameA@4
 .text          0x004c7284        0x8 c:/Dev/TDM-GCC-32/bin/../lib/gcc/mingw32/5.1.0/../../..\libuser32.a(daois00413.o)
                0x004c7284                LoadKeyboardLayoutA@8
 .text          0x004c728c        0x0 c:/Dev/TDM-GCC-32/bin/../lib/gcc/mingw32/5.1.0/../../..\libuser32.a(daoih.o)
 .text          0x004c728c        0x0 c:/Dev/TDM-GCC-32/bin/../lib/gcc/mingw32/5.1.0/../../..\libuser32.a(daoit.o)
 .text          0x004c728c        0x8 c:/Dev/TDM-GCC-32/bin/../lib/gcc/mingw32/5.1.0/../../..\libkernel32.a(dchds01140.o)
                0x004c728c                SetUnhandledExceptionFilter@4
 .text          0x004c7294        0x8 c:/Dev/TDM-GCC-32/bin/../lib/gcc/mingw32/5.1.0/../../..\libkernel32.a(dchds00279.o)
                0x004c7294                ExitProcess@4
 .text          0x004c729c        0x8 c:/Dev/TDM-GCC-32/bin/../lib/gcc/mingw32/5.1.0/../../..\libkernel32.a(dchds00529.o)
                0x004c729c                GetModuleHandleA@4
 .text          0x004c72a4        0x8 c:/Dev/TDM-GCC-32/bin/../lib/gcc/mingw32/5.1.0/../../..\libkernel32.a(dchds00577.o)
                0x004c72a4                GetProcAddress@8
 .text          0x004c72ac        0x8 c:/Dev/TDM-GCC-32/bin/../lib/gcc/mingw32/5.1.0/../../..\libkernel32.a(dchds00923.o)
                0x004c72ac                QueryPerformanceFrequency@4
 .text          0x004c72b4        0x8 c:/Dev/TDM-GCC-32/bin/../lib/gcc/mingw32/5.1.0/../../..\libkernel32.a(dchds00922.o)
                0x004c72b4                QueryPerformanceCounter@4
 .text          0x004c72bc        0x8 c:/Dev/TDM-GCC-32/bin/../lib/gcc/mingw32/5.1.0/../../..\libkernel32.a(dchds01152.o)
                0x004c72bc                Sleep
                0x004c72bc                Sleep@4
 .text          0x004c72c4        0x8 c:/Dev/TDM-GCC-32/bin/../lib/gcc/mingw32/5.1.0/../../..\libkernel32.a(dchds00169.o)
                0x004c72c4                CreateSemaphoreA@16
 .text          0x004c72cc        0x8 c:/Dev/TDM-GCC-32/bin/../lib/gcc/mingw32/5.1.0/../../..\libkernel32.a(dchds00082.o)
                0x004c72cc                CloseHandle@4
 .text          0x004c72d4        0x8 c:/Dev/TDM-GCC-32/bin/../lib/gcc/mingw32/5.1.0/../../..\libkernel32.a(dchds01223.o)
                0x004c72d4                WaitForSingleObject@8
 .text          0x004c72dc        0x8 c:/Dev/TDM-GCC-32/bin/../lib/gcc/mingw32/5.1.0/../../..\libkernel32.a(dchds00743.o)
                0x004c72dc                InterlockedDecrement@4
 .text          0x004c72e4        0x8 c:/Dev/TDM-GCC-32/bin/../lib/gcc/mingw32/5.1.0/../../..\libkernel32.a(dchds00747.o)
                0x004c72e4                InterlockedIncrement@4
 .text          0x004c72ec        0x8 c:/Dev/TDM-GCC-32/bin/../lib/gcc/mingw32/5.1.0/../../..\libkernel32.a(dchds00978.o)
                0x004c72ec                ReleaseSemaphore@12
 .text          0x004c72f4        0x8 c:/Dev/TDM-GCC-32/bin/../lib/gcc/mingw32/5.1.0/../../..\libkernel32.a(dchds00860.o)
                0x004c72f4                MultiByteToWideChar@24
 .text          0x004c72fc        0x8 c:/Dev/TDM-GCC-32/bin/../lib/gcc/mingw32/5.1.0/../../..\libkernel32.a(dchds00358.o)
                0x004c72fc                GetACP@0
 .text          0x004c7304        0x8 c:/Dev/TDM-GCC-32/bin/../lib/gcc/mingw32/5.1.0/../../..\libkernel32.a(dchds00512.o)
                0x004c7304                GetLocaleInfoA@16
 .text          0x004c730c        0x8 c:/Dev/TDM-GCC-32/bin/../lib/gcc/mingw32/5.1.0/../../..\libkernel32.a(dchds00671.o)
                0x004c730c                GetVersionExA@4
 .text          0x004c7314        0x8 c:/Dev/TDM-GCC-32/bin/../lib/gcc/mingw32/5.1.0/../../..\libkernel32.a(dchds00450.o)
                0x004c7314                GetCurrentThread@0
 .text          0x004c731c        0x8 c:/Dev/TDM-GCC-32/bin/../lib/gcc/mingw32/5.1.0/../../..\libkernel32.a(dchds01129.o)
                0x004c731c                SetThreadPriority@8
 .text          0x004c7324        0x8 c:/Dev/TDM-GCC-32/bin/../lib/gcc/mingw32/5.1.0/../../..\libkernel32.a(dchds00451.o)
                0x004c7324                GetCurrentThreadId@0
 .text          0x004c732c        0x8 c:/Dev/TDM-GCC-32/bin/../lib/gcc/mingw32/5.1.0/../../..\libkernel32.a(dchds01167.o)
                0x004c732c                TerminateThread@8
 .text          0x004c7334        0x8 c:/Dev/TDM-GCC-32/bin/../lib/gcc/mingw32/5.1.0/../../..\libkernel32.a(dchds00154.o)
                0x004c7334                CreateMutexA@12
 .text          0x004c733c        0x8 c:/Dev/TDM-GCC-32/bin/../lib/gcc/mingw32/5.1.0/../../..\libkernel32.a(dchds00974.o)
                0x004c733c                ReleaseMutex@4
 .text          0x004c7344        0x8 c:/Dev/TDM-GCC-32/bin/../lib/gcc/mingw32/5.1.0/../../..\libkernel32.a(dchds01062.o)
                0x004c7344                SetEnvironmentVariableA@8
 .text          0x004c734c        0x8 c:/Dev/TDM-GCC-32/bin/../lib/gcc/mingw32/5.1.0/../../..\libkernel32.a(dchds00473.o)
                0x004c734c                GetEnvironmentVariableA@12
 .text          0x004c7354        0x8 c:/Dev/TDM-GCC-32/bin/../lib/gcc/mingw32/5.1.0/../../..\libkernel32.a(dchds01247.o)
                0x004c7354                WideCharToMultiByte@32
 .text          0x004c735c        0x8 c:/Dev/TDM-GCC-32/bin/../lib/gcc/mingw32/5.1.0/../../..\libkernel32.a(dchds01078.o)
                0x004c735c                SetFilePointer@16
 .text          0x004c7364        0x8 c:/Dev/TDM-GCC-32/bin/../lib/gcc/mingw32/5.1.0/../../..\libkernel32.a(dchds01267.o)
                0x004c7364                WriteFile@20
 .text          0x004c736c        0x8 c:/Dev/TDM-GCC-32/bin/../lib/gcc/mingw32/5.1.0/../../..\libkernel32.a(dchds00947.o)
                0x004c736c                ReadFile@20
 .text          0x004c7374        0x8 c:/Dev/TDM-GCC-32/bin/../lib/gcc/mingw32/5.1.0/../../..\libkernel32.a(dchds01064.o)
                0x004c7374                SetErrorMode@4
 .text          0x004c737c        0x8 c:/Dev/TDM-GCC-32/bin/../lib/gcc/mingw32/5.1.0/../../..\libkernel32.a(dchds00142.o)
                0x004c737c                CreateFileW@28
 .text          0x004c7384        0x8 c:/Dev/TDM-GCC-32/bin/../lib/gcc/mingw32/5.1.0/../../..\libkernel32.a(dchds00135.o)
                0x004c7384                CreateFileA@28
 .text          0x004c738c        0x8 c:/Dev/TDM-GCC-32/bin/../lib/gcc/mingw32/5.1.0/../../..\libkernel32.a(dchds00352.o)
                0x004c738c                FreeLibrary@4
 .text          0x004c7394        0x8 c:/Dev/TDM-GCC-32/bin/../lib/gcc/mingw32/5.1.0/../../..\libkernel32.a(dchds00817.o)
                0x004c7394                LoadLibraryA@4
 .text          0x004c739c        0x8 c:/Dev/TDM-GCC-32/bin/../lib/gcc/mingw32/5.1.0/../../..\libkernel32.a(dchds00464.o)
                0x004c739c                GetDriveTypeA@4
 .text          0x004c73a4        0x8 c:/Dev/TDM-GCC-32/bin/../lib/gcc/mingw32/5.1.0/../../..\libkernel32.a(dchds01215.o)
                0x004c73a4                VirtualQuery@12
 .text          0x004c73ac        0x8 c:/Dev/TDM-GCC-32/bin/../lib/gcc/mingw32/5.1.0/../../..\libkernel32.a(dchds01213.o)
                0x004c73ac                VirtualProtect@16
 .text          0x004c73b4        0x8 c:/Dev/TDM-GCC-32/bin/../lib/gcc/mingw32/5.1.0/../../..\libkernel32.a(dchds00388.o)
                0x004c73b4                GetCommandLineA@0
 .text          0x004c73bc        0x8 c:/Dev/TDM-GCC-32/bin/../lib/gcc/mingw32/5.1.0/../../..\libkernel32.a(dchds00606.o)
                0x004c73bc                GetStartupInfoA@4
 .text          0x004c73c4        0x8 c:/Dev/TDM-GCC-32/bin/../lib/gcc/mingw32/5.1.0/../../..\libkernel32.a(dchds00236.o)
                0x004c73c4                EnterCriticalSection@4
 .text          0x004c73cc        0x8 c:/Dev/TDM-GCC-32/bin/../lib/gcc/mingw32/5.1.0/../../..\libkernel32.a(dchds01173.o)
                0x004c73cc                TlsGetValue@4
 .text          0x004c73d4        0x8 c:/Dev/TDM-GCC-32/bin/../lib/gcc/mingw32/5.1.0/../../..\libkernel32.a(dchds00510.o)
                0x004c73d4                GetLastError@0
 .text          0x004c73dc        0x8 c:/Dev/TDM-GCC-32/bin/../lib/gcc/mingw32/5.1.0/../../..\libkernel32.a(dchds00814.o)
                0x004c73dc                LeaveCriticalSection@4
 .text          0x004c73e4        0x8 c:/Dev/TDM-GCC-32/bin/../lib/gcc/mingw32/5.1.0/../../..\libkernel32.a(dchds00207.o)
                0x004c73e4                DeleteCriticalSection@4
 .text          0x004c73ec        0x8 c:/Dev/TDM-GCC-32/bin/../lib/gcc/mingw32/5.1.0/../../..\libkernel32.a(dchds00734.o)
                0x004c73ec                InitializeCriticalSection@4
 .text          0x004c73f4        0x8 c:/Dev/TDM-GCC-32/bin/../lib/gcc/mingw32/5.1.0/../../..\libkernel32.a(dchds00763.o)
                0x004c73f4                IsDBCSLeadByteEx@8
 .text          0x004c73fc        0x8 c:/Dev/TDM-GCC-32/bin/../lib/gcc/mingw32/5.1.0/../../..\libkernel32.a(dchds00744.o)
                0x004c73fc                InterlockedExchange@8
 .text          0x004c7404        0x0 c:/Dev/TDM-GCC-32/bin/../lib/gcc/mingw32/5.1.0/../../..\libkernel32.a(dchdh.o)
 .text          0x004c7404        0x0 c:/Dev/TDM-GCC-32/bin/../lib/gcc/mingw32/5.1.0/../../..\libkernel32.a(dchdt.o)
 *fill*         0x004c7404        0xc 
 .text          0x004c7410      0x120 c:/Dev/TDM-GCC-32/bin/../lib/gcc/mingw32/5.1.0\libgcc.a(_udivdi3.o)
                0x004c7410                __udivdi3
 .text          0x004c7530      0x150 c:/Dev/TDM-GCC-32/bin/../lib/gcc/mingw32/5.1.0\libgcc.a(_umoddi3.o)
                0x004c7530                __umoddi3
 .text          0x004c7680        0x0 c:/Dev/TDM-GCC-32/bin/../lib/gcc/mingw32/5.1.0/crtend.o
 *(SORT(.text$*))
 *(.text.*)
 .text.unlikely
                0x004c7680        0x0 c:/Dev/TDM-GCC-32/bin/../lib/gcc/mingw32/5.1.0/crtbegin.o
 .text.unlikely
                0x004c7680        0x0 obj/z80.oa
 .text.unlikely
                0x004c7680        0x0 obj/genesis.o
 .text.unlikely
                0x004c7680        0x0 obj/vdp.o
 .text.unlikely
                0x004c7680        0x0 obj/render.o
 .text.unlikely
                0x004c7680        0x0 obj/system.o
 .text.unlikely
                0x004c7680        0x0 obj/unzip.o
 .text.unlikely
                0x004c7680        0x0 obj/fileio.o
 .text.unlikely
                0x004c7680        0x0 obj/loadrom.o
 .text.unlikely
                0x004c7680        0x0 obj/mio.o
 .text.unlikely
                0x004c7680        0x0 obj/mem68k.o
 .text.unlikely
                0x004c7680        0x0 obj/mem68k_c.o
 .text.unlikely
                0x004c7680        0x0 obj/memz80.o
 .text.unlikely
                0x004c7680        0x0 obj/membnk.o
 .text.unlikely
                0x004c7680        0x0 obj/memvdp.o
 .text.unlikely
                0x004c7680        0x0 obj/state.o
 .text.unlikely
                0x004c7680        0x0 obj/gtkopts.o
 .text.unlikely
                0x004c7680        0x0 obj/locopts.o
 .text.unlikely
                0x004c7680        0x0 obj/eeprom.o
 .text.unlikely
                0x004c7680        0x0 obj/sound.o
 .text.unlikely
                0x004c7680        0x0 obj/fm.o
 .text.unlikely
                0x004c7680        0x0 obj/sn76496.o
 .text.unlikely
                0x004c7680        0x0 obj/main.o
 .text.unlikely
                0x004c7680        0x0 obj/error.o
 .text.unlikely
                0x004c7680        0x0 obj/msg.o
 .text.unlikely
                0x004c7680        0x0 obj/options.o
 .text.unlikely
                0x004c7680        0x0 m68k/m68k.oa(m68kcpu.o)
 .text.unlikely
                0x004c7680        0x0 m68k/m68k.oa(m68kops.o)
 .text.unlikely
                0x004c7680        0x0 m68k/m68k.oa(m68kopdm.o)
 .text.unlikely
                0x004c7680        0x0 m68k/m68k.oa(m68kopac.o)
 .text.unlikely
                0x004c7680        0x0 m68k/m68k.oa(m68kopnz.o)
 .text.unlikely
                0x004c7680        0x0 C:/Dev/msys/lib\libz.a(inflate.o)
 .text.unlikely
                0x004c7680        0x0 C:/Dev/msys/lib\libz.a(crc32.o)
 .text.unlikely
                0x004c7680        0x0 C:/Dev/msys/lib\libz.a(gzlib.o)
 .text.unlikely
                0x004c7680        0x0 C:/Dev/msys/lib\libz.a(gzread.o)
 .text.unlikely
                0x004c7680        0x0 C:/Dev/msys/lib\libz.a(gzclose.o)
 .text.unlikely
                0x004c7680        0x0 C:/Dev/msys/lib\libz.a(gzwrite.o)
 .text.unlikely
                0x004c7680        0x0 C:/Dev/msys/lib\libz.a(zutil.o)
 .text.unlikely
                0x004c7680        0x0 C:/Dev/msys/lib\libz.a(adler32.o)
 .text.unlikely
                0x004c7680        0x0 C:/Dev/msys/lib\libz.a(inftrees.o)
 .text.unlikely
                0x004c7680        0x0 C:/Dev/msys/lib\libz.a(inffast.o)
 .text.unlikely
                0x004c7680        0x0 C:/Dev/msys/lib\libz.a(deflate.o)
 .text.unlikely
                0x004c7680        0x0 C:/Dev/msys/lib\libz.a(trees.o)
 .text.unlikely
                0x004c7680        0x0 C:/Dev/msys/local/lib\libSDL.a(SDL_audio.o)
 .text.unlikely
                0x004c7680        0x0 C:/Dev/msys/local/lib\libSDL.a(SDL_syssem.o)
 .text.unlikely
                0x004c7680        0x0 C:/Dev/msys/local/lib\libSDL.a(SDL_sysevents.o)
 .text.unlikely
                0x004c7680        0x0 C:/Dev/msys/local/lib\libSDL.a(SDL_events.o)
 .text.unlikely
                0x004c7680        0x0 C:/Dev/msys/local/lib\libSDL.a(SDL_video.o)
 .text.unlikely
                0x004c7680        0x0 C:/Dev/msys/local/lib\libSDL.a(SDL.o)
 .text.unlikely
                0x004c7680        0x0 C:/Dev/msys/local/lib\libSDL.a(SDL_error.o)
 .text.unlikely
                0x004c7680        0x0 C:/Dev/msys/local/lib\libSDL.a(SDL_systimer.o)
 .text.unlikely
                0x004c7680        0x0 C:/Dev/msys/local/lib\libSDL.a(SDL_timer.o)
 .text.unlikely
                0x004c7680        0x0 C:/Dev/msys/local/lib\libSDL.a(SDL_dibaudio.o)
 .text.unlikely
                0x004c7680        0x0 C:/Dev/msys/local/lib\libSDL.a(SDL_diskaudio.o)
 .text.unlikely
                0x004c7680        0x0 C:/Dev/msys/local/lib\libSDL.a(SDL_dummyaudio.o)
 .text.unlikely
                0x004c7680        0x0 C:/Dev/msys/local/lib\libSDL.a(SDL_systhread.o)
 .text.unlikely
                0x004c7680        0x0 C:/Dev/msys/local/lib\libSDL.a(SDL_sysmutex.o)
 .text.unlikely
                0x004c7680        0x0 C:/Dev/msys/local/lib\libSDL.a(SDL_audiocvt.o)
 .text.unlikely
                0x004c7680        0x0 C:/Dev/msys/local/lib\libSDL.a(SDL_string.o)
 .text.unlikely
                0x004c7680        0x0 C:/Dev/msys/local/lib\libSDL.a(SDL_thread.o)
 .text.unlikely
                0x004c7680        0x0 C:/Dev/msys/local/lib\libSDL.a(SDL_getenv.o)
 .text.unlikely
                0x004c7680        0x0 C:/Dev/msys/local/lib\libSDL.a(SDL_sysmouse.o)
 .text.unlikely
                0x004c7680        0x0 C:/Dev/msys/local/lib\libSDL.a(SDL_active.o)
 .text.unlikely
                0x004c7680        0x0 C:/Dev/msys/local/lib\libSDL.a(SDL_dibvideo.o)
 .text.unlikely
                0x004c7680        0x0 C:/Dev/msys/local/lib\libSDL.a(SDL_expose.o)
 .text.unlikely
                0x004c7680        0x0 C:/Dev/msys/local/lib\libSDL.a(SDL_quit.o)
 .text.unlikely
                0x004c7680        0x0 C:/Dev/msys/local/lib\libSDL.a(SDL_mouse.o)
 .text.unlikely
                0x004c7680        0x0 C:/Dev/msys/local/lib\libSDL.a(SDL_resize.o)
 .text.unlikely
                0x004c7680        0x0 C:/Dev/msys/local/lib\libSDL.a(SDL_syswm.o)
 .text.unlikely
                0x004c7680        0x0 C:/Dev/msys/local/lib\libSDL.a(SDL_iconv.o)
 .text.unlikely
                0x004c7680        0x0 C:/Dev/msys/local/lib\libSDL.a(SDL_joystick.o)
 .text.unlikely
                0x004c7680        0x0 C:/Dev/msys/local/lib\libSDL.a(SDL_keyboard.o)
 .text.unlikely
                0x004c7680        0x0 C:/Dev/msys/local/lib\libSDL.a(SDL_cursor.o)
 .text.unlikely
                0x004c7680        0x0 C:/Dev/msys/local/lib\libSDL.a(SDL_nullvideo.o)
 .text.unlikely
                0x004c7680        0x0 C:/Dev/msys/local/lib\libSDL.a(SDL_surface.o)
 .text.unlikely
                0x004c7680        0x0 C:/Dev/msys/local/lib\libSDL.a(SDL_pixels.o)
 .text.unlikely
                0x004c7680        0x0 C:/Dev/msys/local/lib\libSDL.a(SDL_cdrom.o)
 .text.unlikely
                0x004c7680        0x0 C:/Dev/msys/local/lib\libSDL.a(SDL_fatal.o)
 .text.unlikely
                0x004c7680        0x0 C:/Dev/msys/local/lib\libSDL.a(SDL_rwops.o)
 .text.unlikely
                0x004c7680        0x0 C:/Dev/msys/local/lib\libSDL.a(SDL_wingl.o)
 .text.unlikely
                0x004c7680        0x0 C:/Dev/msys/local/lib\libSDL.a(SDL_dibevents.o)
 .text.unlikely
                0x004c7680        0x0 C:/Dev/msys/local/lib\libSDL.a(SDL_mmjoystick.o)
 .text.unlikely
                0x004c7680        0x0 C:/Dev/msys/local/lib\libSDL.a(SDL_nullevents.o)
 .text.unlikely
                0x004c7680        0x0 C:/Dev/msys/local/lib\libSDL.a(SDL_RLEaccel.o)
 .text.unlikely
                0x004c7680        0x0 C:/Dev/msys/local/lib\libSDL.a(SDL_blit.o)
 .text.unlikely
                0x004c7680        0x0 C:/Dev/msys/local/lib\libSDL.a(SDL_syscdrom.o)
 .text.unlikely
                0x004c7680        0x0 C:/Dev/msys/local/lib\libSDL.a(SDL_cpuinfo.o)
 .text.unlikely
                0x004c7680        0x0 C:/Dev/msys/local/lib\libSDL.a(SDL_blit_N.o)
 .text.unlikely
                0x004c7680        0x0 C:/Dev/msys/local/lib\libSDL.a(SDL_blit_0.o)
 .text.unlikely
                0x004c7680        0x0 C:/Dev/msys/local/lib\libSDL.a(SDL_blit_1.o)
 .text.unlikely
                0x004c7680        0x0 C:/Dev/msys/local/lib\libSDL.a(SDL_blit_A.o)
 .text.startup  0x004c7680       0xe0 c:/Dev/TDM-GCC-32/bin/../lib/gcc/mingw32/5.1.0/../../..\libmingw32.a(main.o)
                0x004c7680                main
 .text.unlikely
                0x004c7760        0x0 c:/Dev/TDM-GCC-32/bin/../lib/gcc/mingw32/5.1.0/crtend.o
 .text.startup  0x004c7760       0x10 c:/Dev/TDM-GCC-32/bin/../lib/gcc/mingw32/5.1.0/crtend.o
 *(.gnu.linkonce.t.*)
 *(.glue_7t)
 *(.glue_7)
                0x004c7770                ___CTOR_LIST__ = .
                0x004c7770                __CTOR_LIST__ = .
                0x004c7770        0x4 LONG 0xffffffff
 *(.ctors)
 *(.ctor)
 *(SORT(.ctors.*))
 .ctors.65535   0x004c7774        0x4 c:/Dev/TDM-GCC-32/bin/../lib/gcc/mingw32/5.1.0/crtend.o
                0x004c7778        0x4 LONG 0x0
                0x004c777c                ___DTOR_LIST__ = .
                0x004c777c                __DTOR_LIST__ = .
                0x004c777c        0x4 LONG 0xffffffff
 *(.dtors)
 *(.dtor)
 *(SORT(.dtors.*))
                0x004c7780        0x4 LONG 0x0
 *(.fini)
 *(.gcc_exc)
                0x004c7784                PROVIDE (etext, .)
                0x004c7784                PROVIDE (_etext, .)
 *(.gcc_except_table)

.data           0x004c8000     0x9c00
                0x004c8000                __data_start__ = .
 *(.data)
 .data          0x004c8000        0x0 c:/Dev/TDM-GCC-32/bin/../lib/gcc/mingw32/5.1.0/../../../crt2.o
 .data          0x004c8000        0x0 c:/Dev/TDM-GCC-32/bin/../lib/gcc/mingw32/5.1.0/crtbegin.o
 .data          0x004c8000      0x620 obj/z80.oa
 .data          0x004c8620        0x0 obj/genesis.o
 .data          0x004c8620      0x540 obj/vdp.o
                0x004c8620                y_mask_table
                0x004c8630                row_mask_table
                0x004c8638                col_mask_table
                0x004c863c                shift_table
                0x004c8760                cycle2hc40
                0x004c8960                cycle2hc32
 .data          0x004c8b60        0x0 obj/render.o
 .data          0x004c8b60        0x0 obj/system.o
 .data          0x004c8b60        0x0 obj/unzip.o
 .data          0x004c8b60        0x0 obj/fileio.o
 .data          0x004c8b60        0x0 obj/loadrom.o
 .data          0x004c8b60        0x0 obj/mio.o
 .data          0x004c8b60        0x0 obj/mem68k.o
 .data          0x004c8b60        0x0 obj/mem68k_c.o
 .data          0x004c8b60        0x0 obj/memz80.o
 .data          0x004c8b60        0x0 obj/membnk.o
 .data          0x004c8b60        0x0 obj/memvdp.o
 .data          0x004c8b60        0x0 obj/state.o
 .data          0x004c8b60      0x2c0 obj/gtkopts.o
 .data          0x004c8e20      0x260 obj/locopts.o
 .data          0x004c9080        0x4 obj/eeprom.o
                0x004c9080                lastSSRamWrite
 .data          0x004c9084        0x0 obj/sound.o
 *fill*         0x004c9084       0x1c 
 .data          0x004c90a0       0x80 obj/fm.o
 .data          0x004c9120        0x0 obj/sn76496.o
 .data          0x004c9120       0xb8 obj/main.o
                0x004c9120                max_delay
                0x004c9124                min_delay
                0x004c9128                ActiveToolbar
                0x004c912c                ActiveZone
                0x004c9130                tmod
                0x004c9134                temp_key_down_left
                0x004c9138                temp_key_down_right
                0x004c913c                temp_key_up_right
                0x004c9140                temp_key_up_left
                0x004c9144                temp_key_right
                0x004c9148                temp_key_left
                0x004c914c                temp_key_down
                0x004c9150                temp_key_up
                0x004c9154                temp_key_switch
                0x004c9158                temp_key_z
                0x004c915c                temp_key_y
                0x004c9160                temp_key_x
                0x004c9164                temp_key_c
                0x004c9168                temp_key_b
                0x004c916c                temp_key_a
                0x004c9170                temp_key_mode
                0x004c9174                temp_key_start
                0x004c9178                key_down_left
                0x004c917c                key_down_right
                0x004c9180                key_up_right
                0x004c9184                key_up_left
                0x004c9188                key_right
                0x004c918c                key_left
                0x004c9190                key_down
                0x004c9194                key_up
                0x004c9198                key_switch
                0x004c919c                key_z
                0x004c91a0                key_y
                0x004c91a4                key_x
                0x004c91a8                key_c
                0x004c91ac                key_b
                0x004c91b0                key_a
                0x004c91b4                key_mode
                0x004c91b8                key_start
                0x004c91bc                frameskip
                0x004c91c0                buf_frames
                0x004c91c4                sound_rate
                0x004c91c8                NeedMessage
                0x004c91c9                fast_vid
                0x004c91ca                use_z80
                0x004c91cb                landscape
                0x004c91cc                show_keys
                0x004c91d0                screen_mult
                0x004c91d4                running
 .data          0x004c91d8        0x0 obj/error.o
 *fill*         0x004c91d8        0x8 
 .data          0x004c91e0      0x820 obj/msg.o
                0x004c91e0                NeedUpdate
                0x004c9200                font
 .data          0x004c9a00        0x0 obj/options.o
 .data          0x004c9a00        0x0 obj/xBRZ.o
 .data          0x004c9a00      0x5a0 m68k/m68k.oa(m68kcpu.o)
                0x004c9a00                m68ki_ea_idx_cycle_table
                0x004c9a40                m68ki_exception_cycle_table
                0x004c9d40                m68ki_shift_32_table
                0x004c9e60                m68ki_shift_16_table
                0x004c9f00                m68ki_shift_8_table
                0x004c9f60                m68ki_cpu_names
 .data          0x004c9fa0     0x7ac0 m68k/m68k.oa(m68kops.o)
 .data          0x004d1a60        0x0 m68k/m68k.oa(m68kopdm.o)
 .data          0x004d1a60        0x0 m68k/m68k.oa(m68kopac.o)
 .data          0x004d1a60        0x0 m68k/m68k.oa(m68kopnz.o)
 .data          0x004d1a60        0x0 C:/Dev/msys/lib\libz.a(inflate.o)
 .data          0x004d1a60        0x0 C:/Dev/msys/lib\libz.a(crc32.o)
 .data          0x004d1a60        0x0 C:/Dev/msys/lib\libz.a(gzlib.o)
 .data          0x004d1a60        0x0 C:/Dev/msys/lib\libz.a(gzread.o)
 .data          0x004d1a60        0x0 C:/Dev/msys/lib\libz.a(gzclose.o)
 .data          0x004d1a60        0x0 C:/Dev/msys/lib\libz.a(gzwrite.o)
 .data          0x004d1a60        0x0 C:/Dev/msys/lib\libz.a(zutil.o)
 .data          0x004d1a60        0x0 C:/Dev/msys/lib\libz.a(adler32.o)
 .data          0x004d1a60        0x0 C:/Dev/msys/lib\libz.a(inftrees.o)
 .data          0x004d1a60        0x0 C:/Dev/msys/lib\libz.a(inffast.o)
 .data          0x004d1a60        0x0 C:/Dev/msys/lib\libz.a(deflate.o)
 .data          0x004d1a60       0x3c C:/Dev/msys/lib\libz.a(trees.o)
 .data          0x004d1a9c        0x0 C:/Dev/msys/local/lib\libSDL.a(SDL_audio.o)
 .data          0x004d1a9c        0x0 C:/Dev/msys/local/lib\libSDL.a(SDL_syssem.o)
 .data          0x004d1a9c        0x4 C:/Dev/msys/local/lib\libSDL.a(SDL_sysevents.o)
                0x004d1a9c                SDL_ToUnicode
 .data          0x004d1aa0        0x0 C:/Dev/msys/local/lib\libSDL.a(SDL_events.o)
 .data          0x004d1aa0       0x20 C:/Dev/msys/local/lib\libSDL.a(SDL_video.o)
 .data          0x004d1ac0        0x4 C:/Dev/msys/local/lib\libSDL.a(SDL.o)
 .data          0x004d1ac4        0x0 C:/Dev/msys/local/lib\libSDL.a(SDL_error.o)
 .data          0x004d1ac4        0x0 C:/Dev/msys/local/lib\libSDL.a(SDL_systimer.o)
 .data          0x004d1ac4        0x0 C:/Dev/msys/local/lib\libSDL.a(SDL_timer.o)
 .data          0x004d1ac4       0x10 C:/Dev/msys/local/lib\libSDL.a(SDL_dibaudio.o)
                0x004d1ac4                WAVEOUT_bootstrap
 .data          0x004d1ad4       0x10 C:/Dev/msys/local/lib\libSDL.a(SDL_diskaudio.o)
                0x004d1ad4                DISKAUD_bootstrap
 .data          0x004d1ae4       0x10 C:/Dev/msys/local/lib\libSDL.a(SDL_dummyaudio.o)
                0x004d1ae4                DUMMYAUD_bootstrap
 .data          0x004d1af4        0x0 C:/Dev/msys/local/lib\libSDL.a(SDL_systhread.o)
 .data          0x004d1af4        0x0 C:/Dev/msys/local/lib\libSDL.a(SDL_sysmutex.o)
 .data          0x004d1af4        0x0 C:/Dev/msys/local/lib\libSDL.a(SDL_audiocvt.o)
 .data          0x004d1af4        0x0 C:/Dev/msys/local/lib\libSDL.a(SDL_string.o)
 .data          0x004d1af4        0x0 C:/Dev/msys/local/lib\libSDL.a(SDL_thread.o)
 .data          0x004d1af4        0x0 C:/Dev/msys/local/lib\libSDL.a(SDL_getenv.o)
 .data          0x004d1af4        0x0 C:/Dev/msys/local/lib\libSDL.a(SDL_sysmouse.o)
 .data          0x004d1af4        0x0 C:/Dev/msys/local/lib\libSDL.a(SDL_active.o)
 .data          0x004d1af4       0x10 C:/Dev/msys/local/lib\libSDL.a(SDL_dibvideo.o)
                0x004d1af4                WINDIB_bootstrap
 .data          0x004d1b04        0x0 C:/Dev/msys/local/lib\libSDL.a(SDL_expose.o)
 .data          0x004d1b04        0x0 C:/Dev/msys/local/lib\libSDL.a(SDL_quit.o)
 .data          0x004d1b04        0x0 C:/Dev/msys/local/lib\libSDL.a(SDL_mouse.o)
 .data          0x004d1b04        0x0 C:/Dev/msys/local/lib\libSDL.a(SDL_resize.o)
 .data          0x004d1b04        0x0 C:/Dev/msys/local/lib\libSDL.a(SDL_syswm.o)
 .data          0x004d1b04        0x0 C:/Dev/msys/local/lib\libSDL.a(SDL_iconv.o)
 .data          0x004d1b04        0x0 C:/Dev/msys/local/lib\libSDL.a(SDL_joystick.o)
 .data          0x004d1b04        0x0 C:/Dev/msys/local/lib\libSDL.a(SDL_keyboard.o)
 *fill*         0x004d1b04       0x1c 
 .data          0x004d1b20       0x60 C:/Dev/msys/local/lib\libSDL.a(SDL_cursor.o)
                0x004d1b24                SDL_cursorstate
 .data          0x004d1b80       0x10 C:/Dev/msys/local/lib\libSDL.a(SDL_nullvideo.o)
                0x004d1b80                DUMMY_bootstrap
 .data          0x004d1b90        0x0 C:/Dev/msys/local/lib\libSDL.a(SDL_surface.o)
 .data          0x004d1b90        0x0 C:/Dev/msys/local/lib\libSDL.a(SDL_pixels.o)
 .data          0x004d1b90        0x0 C:/Dev/msys/local/lib\libSDL.a(SDL_cdrom.o)
 .data          0x004d1b90        0x0 C:/Dev/msys/local/lib\libSDL.a(SDL_fatal.o)
 .data          0x004d1b90        0x4 C:/Dev/msys/local/lib\libSDL.a(SDL_rwops.o)
 .data          0x004d1b94        0x0 C:/Dev/msys/local/lib\libSDL.a(SDL_wingl.o)
 .data          0x004d1b94        0x0 C:/Dev/msys/local/lib\libSDL.a(SDL_dibevents.o)
 .data          0x004d1b94        0x0 C:/Dev/msys/local/lib\libSDL.a(SDL_mmjoystick.o)
 .data          0x004d1b94        0x0 C:/Dev/msys/local/lib\libSDL.a(SDL_nullevents.o)
 .data          0x004d1b94        0x0 C:/Dev/msys/local/lib\libSDL.a(SDL_RLEaccel.o)
 .data          0x004d1b94        0x0 C:/Dev/msys/local/lib\libSDL.a(SDL_blit.o)
 .data          0x004d1b94        0x0 C:/Dev/msys/local/lib\libSDL.a(SDL_syscdrom.o)
 .data          0x004d1b94        0x4 C:/Dev/msys/local/lib\libSDL.a(SDL_cpuinfo.o)
 .data          0x004d1b98        0x0 C:/Dev/msys/local/lib\libSDL.a(SDL_blit_N.o)
 .data          0x004d1b98        0x0 C:/Dev/msys/local/lib\libSDL.a(SDL_blit_0.o)
 .data          0x004d1b98        0x0 C:/Dev/msys/local/lib\libSDL.a(SDL_blit_1.o)
 .data          0x004d1b98        0x0 C:/Dev/msys/local/lib\libSDL.a(SDL_blit_A.o)
 .data          0x004d1b98        0x0 c:/Dev/TDM-GCC-32/bin/../lib/gcc/mingw32/5.1.0/../../..\libwinmm.a(dopcs00144.o)
 .data          0x004d1b98        0x0 c:/Dev/TDM-GCC-32/bin/../lib/gcc/mingw32/5.1.0/../../..\libwinmm.a(dopcs00148.o)
 .data          0x004d1b98        0x0 c:/Dev/TDM-GCC-32/bin/../lib/gcc/mingw32/5.1.0/../../..\libwinmm.a(dopcs00150.o)
 .data          0x004d1b98        0x0 c:/Dev/TDM-GCC-32/bin/../lib/gcc/mingw32/5.1.0/../../..\libwinmm.a(dopcs00149.o)
 .data          0x004d1b98        0x0 c:/Dev/TDM-GCC-32/bin/../lib/gcc/mingw32/5.1.0/../../..\libwinmm.a(dopcs00145.o)
 .data          0x004d1b98        0x0 c:/Dev/TDM-GCC-32/bin/../lib/gcc/mingw32/5.1.0/../../..\libwinmm.a(dopcs00168.o)
 .data          0x004d1b98        0x0 c:/Dev/TDM-GCC-32/bin/../lib/gcc/mingw32/5.1.0/../../..\libwinmm.a(dopcs00188.o)
 .data          0x004d1b98        0x0 c:/Dev/TDM-GCC-32/bin/../lib/gcc/mingw32/5.1.0/../../..\libwinmm.a(dopcs00189.o)
 .data          0x004d1b98        0x0 c:/Dev/TDM-GCC-32/bin/../lib/gcc/mingw32/5.1.0/../../..\libwinmm.a(dopcs00171.o)
 .data          0x004d1b98        0x0 c:/Dev/TDM-GCC-32/bin/../lib/gcc/mingw32/5.1.0/../../..\libwinmm.a(dopcs00180.o)
 .data          0x004d1b98        0x0 c:/Dev/TDM-GCC-32/bin/../lib/gcc/mingw32/5.1.0/../../..\libwinmm.a(dopcs00182.o)
 .data          0x004d1b98        0x0 c:/Dev/TDM-GCC-32/bin/../lib/gcc/mingw32/5.1.0/../../..\libwinmm.a(dopcs00025.o)
 .data          0x004d1b98        0x0 c:/Dev/TDM-GCC-32/bin/../lib/gcc/mingw32/5.1.0/../../..\libwinmm.a(dopcs00027.o)
 .data          0x004d1b98        0x0 c:/Dev/TDM-GCC-32/bin/../lib/gcc/mingw32/5.1.0/../../..\libwinmm.a(dopcs00023.o)
 .data          0x004d1b98        0x0 c:/Dev/TDM-GCC-32/bin/../lib/gcc/mingw32/5.1.0/../../..\libwinmm.a(dopcs00047.o)
 .data          0x004d1b98        0x0 c:/Dev/TDM-GCC-32/bin/../lib/gcc/mingw32/5.1.0/../../..\libwinmm.a(dopcs00043.o)
 .data          0x004d1b98        0x0 c:/Dev/TDM-GCC-32/bin/../lib/gcc/mingw32/5.1.0/../../..\libwinmm.a(dopch.o)
 .data          0x004d1b98        0x0 c:/Dev/TDM-GCC-32/bin/../lib/gcc/mingw32/5.1.0/../../..\libwinmm.a(dopct.o)
 .data          0x004d1b98        0x0 c:/Dev/TDM-GCC-32/bin/../lib/gcc/mingw32/5.1.0/../../..\libcomdlg32.a(demds00009.o)
 .data          0x004d1b98        0x0 c:/Dev/TDM-GCC-32/bin/../lib/gcc/mingw32/5.1.0/../../..\libcomdlg32.a(demdh.o)
 .data          0x004d1b98        0x0 c:/Dev/TDM-GCC-32/bin/../lib/gcc/mingw32/5.1.0/../../..\libcomdlg32.a(demdt.o)
 .data          0x004d1b98        0x0 c:/Dev/TDM-GCC-32/bin/../lib/gcc/mingw32/5.1.0/../../..\libgdi32.a(dkfhs00282.o)
 .data          0x004d1b98        0x0 c:/Dev/TDM-GCC-32/bin/../lib/gcc/mingw32/5.1.0/../../..\libgdi32.a(dkfhs00034.o)
 .data          0x004d1b98        0x0 c:/Dev/TDM-GCC-32/bin/../lib/gcc/mingw32/5.1.0/../../..\libgdi32.a(dkfhs00281.o)
 .data          0x004d1b98        0x0 c:/Dev/TDM-GCC-32/bin/../lib/gcc/mingw32/5.1.0/../../..\libgdi32.a(dkfhs00012.o)
 .data          0x004d1b98        0x0 c:/Dev/TDM-GCC-32/bin/../lib/gcc/mingw32/5.1.0/../../..\libgdi32.a(dkfhs00070.o)
 .data          0x004d1b98        0x0 c:/Dev/TDM-GCC-32/bin/../lib/gcc/mingw32/5.1.0/../../..\libgdi32.a(dkfhs00342.o)
 .data          0x004d1b98        0x0 c:/Dev/TDM-GCC-32/bin/../lib/gcc/mingw32/5.1.0/../../..\libgdi32.a(dkfhs00260.o)
 .data          0x004d1b98        0x0 c:/Dev/TDM-GCC-32/bin/../lib/gcc/mingw32/5.1.0/../../..\libgdi32.a(dkfhs00320.o)
 .data          0x004d1b98        0x0 c:/Dev/TDM-GCC-32/bin/../lib/gcc/mingw32/5.1.0/../../..\libgdi32.a(dkfhs00204.o)
 .data          0x004d1b98        0x0 c:/Dev/TDM-GCC-32/bin/../lib/gcc/mingw32/5.1.0/../../..\libgdi32.a(dkfhs00311.o)
 .data          0x004d1b98        0x0 c:/Dev/TDM-GCC-32/bin/../lib/gcc/mingw32/5.1.0/../../..\libgdi32.a(dkfhs00295.o)
 .data          0x004d1b98        0x0 c:/Dev/TDM-GCC-32/bin/../lib/gcc/mingw32/5.1.0/../../..\libgdi32.a(dkfhs00033.o)
 .data          0x004d1b98        0x0 c:/Dev/TDM-GCC-32/bin/../lib/gcc/mingw32/5.1.0/../../..\libgdi32.a(dkfhs00147.o)
 .data          0x004d1b98        0x0 c:/Dev/TDM-GCC-32/bin/../lib/gcc/mingw32/5.1.0/../../..\libgdi32.a(dkfhs00073.o)
 .data          0x004d1b98        0x0 c:/Dev/TDM-GCC-32/bin/../lib/gcc/mingw32/5.1.0/../../..\libgdi32.a(dkfhs00149.o)
 .data          0x004d1b98        0x0 c:/Dev/TDM-GCC-32/bin/../lib/gcc/mingw32/5.1.0/../../..\libgdi32.a(dkfhs00298.o)
 .data          0x004d1b98        0x0 c:/Dev/TDM-GCC-32/bin/../lib/gcc/mingw32/5.1.0/../../..\libgdi32.a(dkfhs00203.o)
 .data          0x004d1b98        0x0 c:/Dev/TDM-GCC-32/bin/../lib/gcc/mingw32/5.1.0/../../..\libgdi32.a(dkfhs00056.o)
 .data          0x004d1b98        0x0 c:/Dev/TDM-GCC-32/bin/../lib/gcc/mingw32/5.1.0/../../..\libgdi32.a(dkfhs00039.o)
 .data          0x004d1b98        0x0 c:/Dev/TDM-GCC-32/bin/../lib/gcc/mingw32/5.1.0/../../..\libgdi32.a(dkfhs00015.o)
 .data          0x004d1b98        0x0 c:/Dev/TDM-GCC-32/bin/../lib/gcc/mingw32/5.1.0/../../..\libgdi32.a(dkfhs00313.o)
 .data          0x004d1b98        0x0 c:/Dev/TDM-GCC-32/bin/../lib/gcc/mingw32/5.1.0/../../..\libgdi32.a(dkfhs00338.o)
 .data          0x004d1b98        0x0 c:/Dev/TDM-GCC-32/bin/../lib/gcc/mingw32/5.1.0/../../..\libgdi32.a(dkfhs00074.o)
 .data          0x004d1b98        0x0 c:/Dev/TDM-GCC-32/bin/../lib/gcc/mingw32/5.1.0/../../..\libgdi32.a(dkfhh.o)
 .data          0x004d1b98        0x0 c:/Dev/TDM-GCC-32/bin/../lib/gcc/mingw32/5.1.0/../../..\libgdi32.a(dkfht.o)
 .data          0x004d1b98        0x0 c:/Dev/TDM-GCC-32/bin/../lib/gcc/mingw32/5.1.0/../../..\libmingw32.a(tlssup.o)
 .data          0x004d1b98        0x4 c:/Dev/TDM-GCC-32/bin/../lib/gcc/mingw32/5.1.0/../../..\libmingw32.a(CRTglob.o)
                0x004d1b98                _CRT_glob
 .data          0x004d1b9c        0x0 c:/Dev/TDM-GCC-32/bin/../lib/gcc/mingw32/5.1.0/../../..\libmingw32.a(CRTfmode.o)
 .data          0x004d1b9c        0x4 c:/Dev/TDM-GCC-32/bin/../lib/gcc/mingw32/5.1.0/../../..\libmingw32.a(txtmode.o)
                0x004d1b9c                _fmode
 .data          0x004d1ba0        0x0 c:/Dev/TDM-GCC-32/bin/../lib/gcc/mingw32/5.1.0/../../..\libmingw32.a(cpu_features.o)
 .data          0x004d1ba0        0x0 c:/Dev/TDM-GCC-32/bin/../lib/gcc/mingw32/5.1.0/../../..\libmingw32.a(CRT_fp10.o)
 .data          0x004d1ba0        0x0 c:/Dev/TDM-GCC-32/bin/../lib/gcc/mingw32/5.1.0/../../..\libmingw32.a(pseudo-reloc.o)
 .data          0x004d1ba0        0x4 c:/Dev/TDM-GCC-32/bin/../lib/gcc/mingw32/5.1.0/../../..\libmingw32.a(gccmain.o)
 .data          0x004d1ba4        0x0 c:/Dev/TDM-GCC-32/bin/../lib/gcc/mingw32/5.1.0/../../..\libmingw32.a(main.o)
 .data          0x004d1ba4        0x0 c:/Dev/TDM-GCC-32/bin/../lib/gcc/mingw32/5.1.0/../../..\libmingw32.a(crtst.o)
 .data          0x004d1ba4        0x0 c:/Dev/TDM-GCC-32/bin/../lib/gcc/mingw32/5.1.0/../../..\libmingw32.a(tlsthrd.o)
 .data          0x004d1ba4        0x0 c:/Dev/TDM-GCC-32/bin/../lib/gcc/mingw32/5.1.0/../../..\libmingw32.a(pseudo-reloc-list.o)
 .data          0x004d1ba4        0x0 c:/Dev/TDM-GCC-32/bin/../lib/gcc/mingw32/5.1.0\libgcc.a(_chkstk_ms.o)
 .data          0x004d1ba4        0x0 c:/Dev/TDM-GCC-32/bin/../lib/gcc/mingw32/5.1.0\libgcc.a(_divdi3.o)
 .data          0x004d1ba4        0x0 c:/Dev/TDM-GCC-32/bin/../lib/gcc/mingw32/5.1.0\libgcc.a(_ctors.o)
 .data          0x004d1ba4        0x0 c:/Dev/TDM-GCC-32/bin/../lib/gcc/mingw32/5.1.0/../../..\libmoldname.a(dofms00097.o)
 .data          0x004d1ba4        0x0 c:/Dev/TDM-GCC-32/bin/../lib/gcc/mingw32/5.1.0/../../..\libmoldname.a(dofms00037.o)
 .data          0x004d1ba4        0x0 c:/Dev/TDM-GCC-32/bin/../lib/gcc/mingw32/5.1.0/../../..\libmoldname.a(dofms00081.o)
 .data          0x004d1ba4        0x0 c:/Dev/TDM-GCC-32/bin/../lib/gcc/mingw32/5.1.0/../../..\libmoldname.a(dofms00058.o)
 .data          0x004d1ba4        0x0 c:/Dev/TDM-GCC-32/bin/../lib/gcc/mingw32/5.1.0/../../..\libmoldname.a(dofms00064.o)
 .data          0x004d1ba4        0x0 c:/Dev/TDM-GCC-32/bin/../lib/gcc/mingw32/5.1.0/../../..\libmoldname.a(dofms00006.o)
 .data          0x004d1ba4        0x0 c:/Dev/TDM-GCC-32/bin/../lib/gcc/mingw32/5.1.0/../../..\libmoldname.a(dofms00109.o)
 .data          0x004d1ba4        0x0 c:/Dev/TDM-GCC-32/bin/../lib/gcc/mingw32/5.1.0/../../..\libmoldname.a(dofms00080.o)
 .data          0x004d1ba4        0x0 c:/Dev/TDM-GCC-32/bin/../lib/gcc/mingw32/5.1.0/../../..\libmoldname.a(dofmh.o)
 .data          0x004d1ba4        0x0 c:/Dev/TDM-GCC-32/bin/../lib/gcc/mingw32/5.1.0/../../..\libmoldname.a(dofmt.o)
 .data          0x004d1ba4        0x0 c:/Dev/TDM-GCC-32/bin/../lib/gcc/mingw32/5.1.0/../../..\libmingwex.a(vfprintf.o)
 .data          0x004d1ba4        0x0 c:/Dev/TDM-GCC-32/bin/../lib/gcc/mingw32/5.1.0/../../..\libmingwex.a(vprintf.o)
 .data          0x004d1ba4        0x0 c:/Dev/TDM-GCC-32/bin/../lib/gcc/mingw32/5.1.0/../../..\libmingwex.a(snprintf.o)
 .data          0x004d1ba4        0x0 c:/Dev/TDM-GCC-32/bin/../lib/gcc/mingw32/5.1.0/../../..\libmingwex.a(vsnprintf.o)
 .data          0x004d1ba4        0x0 c:/Dev/TDM-GCC-32/bin/../lib/gcc/mingw32/5.1.0/../../..\libmingwex.a(strtoumax.o)
 .data          0x004d1ba4       0x14 c:/Dev/TDM-GCC-32/bin/../lib/gcc/mingw32/5.1.0/../../..\libmingwex.a(pformat.o)
 .data          0x004d1bb8        0x0 c:/Dev/TDM-GCC-32/bin/../lib/gcc/mingw32/5.1.0/../../..\libmingwex.a(gdtoa.o)
 .data          0x004d1bb8        0x0 c:/Dev/TDM-GCC-32/bin/../lib/gcc/mingw32/5.1.0/../../..\libmingwex.a(wcrtomb.o)
 .data          0x004d1bb8        0x0 c:/Dev/TDM-GCC-32/bin/../lib/gcc/mingw32/5.1.0/../../..\libmingwex.a(mbrtowc.o)
 .data          0x004d1bb8        0x0 c:/Dev/TDM-GCC-32/bin/../lib/gcc/mingw32/5.1.0/../../..\libmingwex.a(dmisc.o)
 .data          0x004d1bb8        0x4 c:/Dev/TDM-GCC-32/bin/../lib/gcc/mingw32/5.1.0/../../..\libmingwex.a(misc.o)
 .data          0x004d1bbc        0x0 c:/Dev/TDM-GCC-32/bin/../lib/gcc/mingw32/5.1.0/../../..\libmingwex.a(gmisc.o)
 .data          0x004d1bbc        0x0 c:/Dev/TDM-GCC-32/bin/../lib/gcc/mingw32/5.1.0/../../..\libmsvcrt.a(dsnos00266.o)
 .data          0x004d1bbc        0x0 c:/Dev/TDM-GCC-32/bin/../lib/gcc/mingw32/5.1.0/../../..\libmsvcrt.a(dsnos00099.o)
 .data          0x004d1bbc        0x0 c:/Dev/TDM-GCC-32/bin/../lib/gcc/mingw32/5.1.0/../../..\libmsvcrt.a(dsnos00590.o)
 .data          0x004d1bbc        0x0 c:/Dev/TDM-GCC-32/bin/../lib/gcc/mingw32/5.1.0/../../..\libmsvcrt.a(dsnos00383.o)
 .data          0x004d1bbc        0x0 c:/Dev/TDM-GCC-32/bin/../lib/gcc/mingw32/5.1.0/../../..\libmsvcrt.a(dsnos00055.o)
 .data          0x004d1bbc        0x0 c:/Dev/TDM-GCC-32/bin/../lib/gcc/mingw32/5.1.0/../../..\libmsvcrt.a(dsnos00426.o)
 .data          0x004d1bbc        0x0 c:/Dev/TDM-GCC-32/bin/../lib/gcc/mingw32/5.1.0/../../..\libmsvcrt.a(dsnos00079.o)
 .data          0x004d1bbc        0x0 c:/Dev/TDM-GCC-32/bin/../lib/gcc/mingw32/5.1.0/../../..\libmsvcrt.a(dsnos00077.o)
 .data          0x004d1bbc        0x0 c:/Dev/TDM-GCC-32/bin/../lib/gcc/mingw32/5.1.0/../../..\libmsvcrt.a(dsnos00147.o)
 .data          0x004d1bbc        0x0 c:/Dev/TDM-GCC-32/bin/../lib/gcc/mingw32/5.1.0/../../..\libmsvcrt.a(dsnos00706.o)
 .data          0x004d1bbc        0x0 c:/Dev/TDM-GCC-32/bin/../lib/gcc/mingw32/5.1.0/../../..\libmsvcrt.a(dsnos00676.o)
 .data          0x004d1bbc        0x0 c:/Dev/TDM-GCC-32/bin/../lib/gcc/mingw32/5.1.0/../../..\libmsvcrt.a(dsnos00696.o)
 .data          0x004d1bbc        0x0 c:/Dev/TDM-GCC-32/bin/../lib/gcc/mingw32/5.1.0/../../..\libmsvcrt.a(dsnos00625.o)
 .data          0x004d1bbc        0x0 c:/Dev/TDM-GCC-32/bin/../lib/gcc/mingw32/5.1.0/../../..\libmsvcrt.a(dsnos00684.o)
 .data          0x004d1bbc        0x0 c:/Dev/TDM-GCC-32/bin/../lib/gcc/mingw32/5.1.0/../../..\libmsvcrt.a(dsnos00709.o)
 .data          0x004d1bbc        0x0 c:/Dev/TDM-GCC-32/bin/../lib/gcc/mingw32/5.1.0/../../..\libmsvcrt.a(dsnos00624.o)
 .data          0x004d1bbc        0x0 c:/Dev/TDM-GCC-32/bin/../lib/gcc/mingw32/5.1.0/../../..\libmsvcrt.a(dsnos00629.o)
 .data          0x004d1bbc        0x0 c:/Dev/TDM-GCC-32/bin/../lib/gcc/mingw32/5.1.0/../../..\libmsvcrt.a(dsnos00715.o)
 .data          0x004d1bbc        0x0 c:/Dev/TDM-GCC-32/bin/../lib/gcc/mingw32/5.1.0/../../..\libmsvcrt.a(dsnos00618.o)
 .data          0x004d1bbc        0x0 c:/Dev/TDM-GCC-32/bin/../lib/gcc/mingw32/5.1.0/../../..\libmsvcrt.a(dsnos00607.o)
 .data          0x004d1bbc        0x0 c:/Dev/TDM-GCC-32/bin/../lib/gcc/mingw32/5.1.0/../../..\libmsvcrt.a(dsnos00631.o)
 .data          0x004d1bbc        0x0 c:/Dev/TDM-GCC-32/bin/../lib/gcc/mingw32/5.1.0/../../..\libmsvcrt.a(dsnos00721.o)
 .data          0x004d1bbc        0x0 c:/Dev/TDM-GCC-32/bin/../lib/gcc/mingw32/5.1.0/../../..\libmsvcrt.a(dsnos00681.o)
 .data          0x004d1bbc        0x0 c:/Dev/TDM-GCC-32/bin/../lib/gcc/mingw32/5.1.0/../../..\libmsvcrt.a(dsnos00619.o)
 .data          0x004d1bbc        0x0 c:/Dev/TDM-GCC-32/bin/../lib/gcc/mingw32/5.1.0/../../..\libmsvcrt.a(dsnos00633.o)
 .data          0x004d1bbc        0x0 c:/Dev/TDM-GCC-32/bin/../lib/gcc/mingw32/5.1.0/../../..\libmsvcrt.a(dsnos00182.o)
 .data          0x004d1bbc        0x0 c:/Dev/TDM-GCC-32/bin/../lib/gcc/mingw32/5.1.0/../../..\libmsvcrt.a(dsnos00613.o)
 .data          0x004d1bbc        0x0 c:/Dev/TDM-GCC-32/bin/../lib/gcc/mingw32/5.1.0/../../..\libmsvcrt.a(dsnos00714.o)
 .data          0x004d1bbc        0x0 c:/Dev/TDM-GCC-32/bin/../lib/gcc/mingw32/5.1.0/../../..\libmsvcrt.a(dsnos00717.o)
 .data          0x004d1bbc        0x0 c:/Dev/TDM-GCC-32/bin/../lib/gcc/mingw32/5.1.0/../../..\libmsvcrt.a(dsnos00719.o)
 .data          0x004d1bbc        0x0 c:/Dev/TDM-GCC-32/bin/../lib/gcc/mingw32/5.1.0/../../..\libmsvcrt.a(dsnos00451.o)
 .data          0x004d1bbc        0x0 c:/Dev/TDM-GCC-32/bin/../lib/gcc/mingw32/5.1.0/../../..\libmsvcrt.a(dsnos00688.o)
 .data          0x004d1bbc        0x0 c:/Dev/TDM-GCC-32/bin/../lib/gcc/mingw32/5.1.0/../../..\libmsvcrt.a(dsnos00604.o)
 .data          0x004d1bbc        0x0 c:/Dev/TDM-GCC-32/bin/../lib/gcc/mingw32/5.1.0/../../..\libmsvcrt.a(dsnos00772.o)
 .data          0x004d1bbc        0x0 c:/Dev/TDM-GCC-32/bin/../lib/gcc/mingw32/5.1.0/../../..\libmsvcrt.a(dsnos00592.o)
 .data          0x004d1bbc        0x0 c:/Dev/TDM-GCC-32/bin/../lib/gcc/mingw32/5.1.0/../../..\libmsvcrt.a(dsnos00682.o)
 .data          0x004d1bbc        0x0 c:/Dev/TDM-GCC-32/bin/../lib/gcc/mingw32/5.1.0/../../..\libmsvcrt.a(dsnos00317.o)
 .data          0x004d1bbc        0x0 c:/Dev/TDM-GCC-32/bin/../lib/gcc/mingw32/5.1.0/../../..\libmsvcrt.a(dsnos00544.o)
 .data          0x004d1bbc        0x0 c:/Dev/TDM-GCC-32/bin/../lib/gcc/mingw32/5.1.0/../../..\libmsvcrt.a(dsnos00680.o)
 .data          0x004d1bbc        0x0 c:/Dev/TDM-GCC-32/bin/../lib/gcc/mingw32/5.1.0/../../..\libmsvcrt.a(dsnos00728.o)
 .data          0x004d1bbc        0x0 c:/Dev/TDM-GCC-32/bin/../lib/gcc/mingw32/5.1.0/../../..\libmsvcrt.a(dsnos00591.o)
 .data          0x004d1bbc        0x0 c:/Dev/TDM-GCC-32/bin/../lib/gcc/mingw32/5.1.0/../../..\libmsvcrt.a(dsnos00595.o)
 .data          0x004d1bbc        0x0 c:/Dev/TDM-GCC-32/bin/../lib/gcc/mingw32/5.1.0/../../..\libmsvcrt.a(dsnos00179.o)
 .data          0x004d1bbc        0x0 c:/Dev/TDM-GCC-32/bin/../lib/gcc/mingw32/5.1.0/../../..\libmsvcrt.a(dsnos00143.o)
 .data          0x004d1bbc        0x0 c:/Dev/TDM-GCC-32/bin/../lib/gcc/mingw32/5.1.0/../../..\libmsvcrt.a(dsnos00698.o)
 .data          0x004d1bbc        0x0 c:/Dev/TDM-GCC-32/bin/../lib/gcc/mingw32/5.1.0/../../..\libmsvcrt.a(dsnos00695.o)
 .data          0x004d1bbc        0x0 c:/Dev/TDM-GCC-32/bin/../lib/gcc/mingw32/5.1.0/../../..\libmsvcrt.a(dsnos00712.o)
 .data          0x004d1bbc        0x0 c:/Dev/TDM-GCC-32/bin/../lib/gcc/mingw32/5.1.0/../../..\libmsvcrt.a(dsnos00683.o)
 .data          0x004d1bbc        0x0 c:/Dev/TDM-GCC-32/bin/../lib/gcc/mingw32/5.1.0/../../..\libmsvcrt.a(dsnos00748.o)
 .data          0x004d1bbc        0x0 c:/Dev/TDM-GCC-32/bin/../lib/gcc/mingw32/5.1.0/../../..\libmsvcrt.a(dsnos00583.o)
 .data          0x004d1bbc        0x0 c:/Dev/TDM-GCC-32/bin/../lib/gcc/mingw32/5.1.0/../../..\libmsvcrt.a(dsnos00065.o)
 .data          0x004d1bbc        0x0 c:/Dev/TDM-GCC-32/bin/../lib/gcc/mingw32/5.1.0/../../..\libmsvcrt.a(dsnos00392.o)
 .data          0x004d1bbc        0x0 c:/Dev/TDM-GCC-32/bin/../lib/gcc/mingw32/5.1.0/../../..\libmsvcrt.a(dsnos00268.o)
 .data          0x004d1bbc        0x0 c:/Dev/TDM-GCC-32/bin/../lib/gcc/mingw32/5.1.0/../../..\libmsvcrt.a(dsnos00620.o)
 .data          0x004d1bbc        0x0 c:/Dev/TDM-GCC-32/bin/../lib/gcc/mingw32/5.1.0/../../..\libmsvcrt.a(dsnos00671.o)
 .data          0x004d1bbc        0x0 c:/Dev/TDM-GCC-32/bin/../lib/gcc/mingw32/5.1.0/../../..\libmsvcrt.a(dsnos00637.o)
 .data          0x004d1bbc        0x0 c:/Dev/TDM-GCC-32/bin/../lib/gcc/mingw32/5.1.0/../../..\libmsvcrt.a(ofmt_stub.o)
 .data          0x004d1bbc        0x0 c:/Dev/TDM-GCC-32/bin/../lib/gcc/mingw32/5.1.0/../../..\libmsvcrt.a(dsnos00761.o)
 .data          0x004d1bbc        0x0 c:/Dev/TDM-GCC-32/bin/../lib/gcc/mingw32/5.1.0/../../..\libmsvcrt.a(dsnos00704.o)
 .data          0x004d1bbc        0x0 c:/Dev/TDM-GCC-32/bin/../lib/gcc/mingw32/5.1.0/../../..\libmsvcrt.a(dsnoh.o)
 .data          0x004d1bbc        0x0 c:/Dev/TDM-GCC-32/bin/../lib/gcc/mingw32/5.1.0/../../..\libmsvcrt.a(dsnot.o)
 .data          0x004d1bbc        0x0 c:/Dev/TDM-GCC-32/bin/../lib/gcc/mingw32/5.1.0/../../..\libadvapi32.a(dgxgs00413.o)
 .data          0x004d1bbc        0x0 c:/Dev/TDM-GCC-32/bin/../lib/gcc/mingw32/5.1.0/../../..\libadvapi32.a(dgxgs00423.o)
 .data          0x004d1bbc        0x0 c:/Dev/TDM-GCC-32/bin/../lib/gcc/mingw32/5.1.0/../../..\libadvapi32.a(dgxgs00386.o)
 .data          0x004d1bbc        0x0 c:/Dev/TDM-GCC-32/bin/../lib/gcc/mingw32/5.1.0/../../..\libadvapi32.a(dgxgh.o)
 .data          0x004d1bbc        0x0 c:/Dev/TDM-GCC-32/bin/../lib/gcc/mingw32/5.1.0/../../..\libadvapi32.a(dgxgt.o)
 .data          0x004d1bbc        0x0 c:/Dev/TDM-GCC-32/bin/../lib/gcc/mingw32/5.1.0/../../..\libuser32.a(daois00575.o)
 .data          0x004d1bbc        0x0 c:/Dev/TDM-GCC-32/bin/../lib/gcc/mingw32/5.1.0/../../..\libuser32.a(daois00574.o)
 .data          0x004d1bbc        0x0 c:/Dev/TDM-GCC-32/bin/../lib/gcc/mingw32/5.1.0/../../..\libuser32.a(daois00534.o)
 .data          0x004d1bbc        0x0 c:/Dev/TDM-GCC-32/bin/../lib/gcc/mingw32/5.1.0/../../..\libuser32.a(daois00269.o)
 .data          0x004d1bbc        0x0 c:/Dev/TDM-GCC-32/bin/../lib/gcc/mingw32/5.1.0/../../..\libuser32.a(daois00598.o)
 .data          0x004d1bbc        0x0 c:/Dev/TDM-GCC-32/bin/../lib/gcc/mingw32/5.1.0/../../..\libuser32.a(daois00134.o)
 .data          0x004d1bbc        0x0 c:/Dev/TDM-GCC-32/bin/../lib/gcc/mingw32/5.1.0/../../..\libuser32.a(daois00468.o)
 .data          0x004d1bbc        0x0 c:/Dev/TDM-GCC-32/bin/../lib/gcc/mingw32/5.1.0/../../..\libuser32.a(daois00348.o)
 .data          0x004d1bbc        0x0 c:/Dev/TDM-GCC-32/bin/../lib/gcc/mingw32/5.1.0/../../..\libuser32.a(daois00342.o)
 .data          0x004d1bbc        0x0 c:/Dev/TDM-GCC-32/bin/../lib/gcc/mingw32/5.1.0/../../..\libuser32.a(daois00279.o)
 .data          0x004d1bbc        0x0 c:/Dev/TDM-GCC-32/bin/../lib/gcc/mingw32/5.1.0/../../..\libuser32.a(daois00001.o)
 .data          0x004d1bbc        0x0 c:/Dev/TDM-GCC-32/bin/../lib/gcc/mingw32/5.1.0/../../..\libuser32.a(daois00533.o)
 .data          0x004d1bbc        0x0 c:/Dev/TDM-GCC-32/bin/../lib/gcc/mingw32/5.1.0/../../..\libuser32.a(daois00525.o)
 .data          0x004d1bbc        0x0 c:/Dev/TDM-GCC-32/bin/../lib/gcc/mingw32/5.1.0/../../..\libuser32.a(daois00236.o)
 .data          0x004d1bbc        0x0 c:/Dev/TDM-GCC-32/bin/../lib/gcc/mingw32/5.1.0/../../..\libuser32.a(daois00059.o)
 .data          0x004d1bbc        0x0 c:/Dev/TDM-GCC-32/bin/../lib/gcc/mingw32/5.1.0/../../..\libuser32.a(daois00011.o)
 .data          0x004d1bbc        0x0 c:/Dev/TDM-GCC-32/bin/../lib/gcc/mingw32/5.1.0/../../..\libuser32.a(daois00184.o)
 .data          0x004d1bbc        0x0 c:/Dev/TDM-GCC-32/bin/../lib/gcc/mingw32/5.1.0/../../..\libuser32.a(daois00398.o)
 .data          0x004d1bbc        0x0 c:/Dev/TDM-GCC-32/bin/../lib/gcc/mingw32/5.1.0/../../..\libuser32.a(daois00060.o)
 .data          0x004d1bbc        0x0 c:/Dev/TDM-GCC-32/bin/../lib/gcc/mingw32/5.1.0/../../..\libuser32.a(daois00517.o)
 .data          0x004d1bbc        0x0 c:/Dev/TDM-GCC-32/bin/../lib/gcc/mingw32/5.1.0/../../..\libuser32.a(daois00493.o)
 .data          0x004d1bbc        0x0 c:/Dev/TDM-GCC-32/bin/../lib/gcc/mingw32/5.1.0/../../..\libuser32.a(daois00585.o)
 .data          0x004d1bbc        0x0 c:/Dev/TDM-GCC-32/bin/../lib/gcc/mingw32/5.1.0/../../..\libuser32.a(daois00029.o)
 .data          0x004d1bbc        0x0 c:/Dev/TDM-GCC-32/bin/../lib/gcc/mingw32/5.1.0/../../..\libuser32.a(daois00563.o)
 .data          0x004d1bbc        0x0 c:/Dev/TDM-GCC-32/bin/../lib/gcc/mingw32/5.1.0/../../..\libuser32.a(daois00431.o)
 .data          0x004d1bbc        0x0 c:/Dev/TDM-GCC-32/bin/../lib/gcc/mingw32/5.1.0/../../..\libuser32.a(daois00247.o)
 .data          0x004d1bbc        0x0 c:/Dev/TDM-GCC-32/bin/../lib/gcc/mingw32/5.1.0/../../..\libuser32.a(daois00474.o)
 .data          0x004d1bbc        0x0 c:/Dev/TDM-GCC-32/bin/../lib/gcc/mingw32/5.1.0/../../..\libuser32.a(daois00635.o)
 .data          0x004d1bbc        0x0 c:/Dev/TDM-GCC-32/bin/../lib/gcc/mingw32/5.1.0/../../..\libuser32.a(daois00400.o)
 .data          0x004d1bbc        0x0 c:/Dev/TDM-GCC-32/bin/../lib/gcc/mingw32/5.1.0/../../..\libuser32.a(daois00466.o)
 .data          0x004d1bbc        0x0 c:/Dev/TDM-GCC-32/bin/../lib/gcc/mingw32/5.1.0/../../..\libuser32.a(daois00608.o)
 .data          0x004d1bbc        0x0 c:/Dev/TDM-GCC-32/bin/../lib/gcc/mingw32/5.1.0/../../..\libuser32.a(daois00149.o)
 .data          0x004d1bbc        0x0 c:/Dev/TDM-GCC-32/bin/../lib/gcc/mingw32/5.1.0/../../..\libuser32.a(daois00464.o)
 .data          0x004d1bbc        0x0 c:/Dev/TDM-GCC-32/bin/../lib/gcc/mingw32/5.1.0/../../..\libuser32.a(daois00411.o)
 .data          0x004d1bbc        0x0 c:/Dev/TDM-GCC-32/bin/../lib/gcc/mingw32/5.1.0/../../..\libuser32.a(daois00479.o)
 .data          0x004d1bbc        0x0 c:/Dev/TDM-GCC-32/bin/../lib/gcc/mingw32/5.1.0/../../..\libuser32.a(daois00599.o)
 .data          0x004d1bbc        0x0 c:/Dev/TDM-GCC-32/bin/../lib/gcc/mingw32/5.1.0/../../..\libuser32.a(daois00227.o)
 .data          0x004d1bbc        0x0 c:/Dev/TDM-GCC-32/bin/../lib/gcc/mingw32/5.1.0/../../..\libuser32.a(daois00615.o)
 .data          0x004d1bbc        0x0 c:/Dev/TDM-GCC-32/bin/../lib/gcc/mingw32/5.1.0/../../..\libuser32.a(daois00245.o)
 .data          0x004d1bbc        0x0 c:/Dev/TDM-GCC-32/bin/../lib/gcc/mingw32/5.1.0/../../..\libuser32.a(daois00141.o)
 .data          0x004d1bbc        0x0 c:/Dev/TDM-GCC-32/bin/../lib/gcc/mingw32/5.1.0/../../..\libuser32.a(daois00326.o)
 .data          0x004d1bbc        0x0 c:/Dev/TDM-GCC-32/bin/../lib/gcc/mingw32/5.1.0/../../..\libuser32.a(daois00075.o)
 .data          0x004d1bbc        0x0 c:/Dev/TDM-GCC-32/bin/../lib/gcc/mingw32/5.1.0/../../..\libuser32.a(daois00526.o)
 .data          0x004d1bbc        0x0 c:/Dev/TDM-GCC-32/bin/../lib/gcc/mingw32/5.1.0/../../..\libuser32.a(daois00500.o)
 .data          0x004d1bbc        0x0 c:/Dev/TDM-GCC-32/bin/../lib/gcc/mingw32/5.1.0/../../..\libuser32.a(daois00248.o)
 .data          0x004d1bbc        0x0 c:/Dev/TDM-GCC-32/bin/../lib/gcc/mingw32/5.1.0/../../..\libuser32.a(daois00494.o)
 .data          0x004d1bbc        0x0 c:/Dev/TDM-GCC-32/bin/../lib/gcc/mingw32/5.1.0/../../..\libuser32.a(daois00370.o)
 .data          0x004d1bbc        0x0 c:/Dev/TDM-GCC-32/bin/../lib/gcc/mingw32/5.1.0/../../..\libuser32.a(daois00194.o)
 .data          0x004d1bbc        0x0 c:/Dev/TDM-GCC-32/bin/../lib/gcc/mingw32/5.1.0/../../..\libuser32.a(daois00002.o)
 .data          0x004d1bbc        0x0 c:/Dev/TDM-GCC-32/bin/../lib/gcc/mingw32/5.1.0/../../..\libuser32.a(daois00572.o)
 .data          0x004d1bbc        0x0 c:/Dev/TDM-GCC-32/bin/../lib/gcc/mingw32/5.1.0/../../..\libuser32.a(daois00304.o)
 .data          0x004d1bbc        0x0 c:/Dev/TDM-GCC-32/bin/../lib/gcc/mingw32/5.1.0/../../..\libuser32.a(daois00569.o)
 .data          0x004d1bbc        0x0 c:/Dev/TDM-GCC-32/bin/../lib/gcc/mingw32/5.1.0/../../..\libuser32.a(daois00142.o)
 .data          0x004d1bbc        0x0 c:/Dev/TDM-GCC-32/bin/../lib/gcc/mingw32/5.1.0/../../..\libuser32.a(daois00084.o)
 .data          0x004d1bbc        0x0 c:/Dev/TDM-GCC-32/bin/../lib/gcc/mingw32/5.1.0/../../..\libuser32.a(daois00520.o)
 .data          0x004d1bbc        0x0 c:/Dev/TDM-GCC-32/bin/../lib/gcc/mingw32/5.1.0/../../..\libuser32.a(daois00090.o)
 .data          0x004d1bbc        0x0 c:/Dev/TDM-GCC-32/bin/../lib/gcc/mingw32/5.1.0/../../..\libuser32.a(daois00144.o)
 .data          0x004d1bbc        0x0 c:/Dev/TDM-GCC-32/bin/../lib/gcc/mingw32/5.1.0/../../..\libuser32.a(daois00273.o)
 .data          0x004d1bbc        0x0 c:/Dev/TDM-GCC-32/bin/../lib/gcc/mingw32/5.1.0/../../..\libuser32.a(daois00428.o)
 .data          0x004d1bbc        0x0 c:/Dev/TDM-GCC-32/bin/../lib/gcc/mingw32/5.1.0/../../..\libuser32.a(daois00024.o)
 .data          0x004d1bbc        0x0 c:/Dev/TDM-GCC-32/bin/../lib/gcc/mingw32/5.1.0/../../..\libuser32.a(daois00268.o)
 .data          0x004d1bbc        0x0 c:/Dev/TDM-GCC-32/bin/../lib/gcc/mingw32/5.1.0/../../..\libuser32.a(daois00293.o)
 .data          0x004d1bbc        0x0 c:/Dev/TDM-GCC-32/bin/../lib/gcc/mingw32/5.1.0/../../..\libuser32.a(daois00271.o)
 .data          0x004d1bbc        0x0 c:/Dev/TDM-GCC-32/bin/../lib/gcc/mingw32/5.1.0/../../..\libuser32.a(daois00413.o)
 .data          0x004d1bbc        0x0 c:/Dev/TDM-GCC-32/bin/../lib/gcc/mingw32/5.1.0/../../..\libuser32.a(daoih.o)
 .data          0x004d1bbc        0x0 c:/Dev/TDM-GCC-32/bin/../lib/gcc/mingw32/5.1.0/../../..\libuser32.a(daoit.o)
 .data          0x004d1bbc        0x0 c:/Dev/TDM-GCC-32/bin/../lib/gcc/mingw32/5.1.0/../../..\libkernel32.a(dchds01140.o)
 .data          0x004d1bbc        0x0 c:/Dev/TDM-GCC-32/bin/../lib/gcc/mingw32/5.1.0/../../..\libkernel32.a(dchds00279.o)
 .data          0x004d1bbc        0x0 c:/Dev/TDM-GCC-32/bin/../lib/gcc/mingw32/5.1.0/../../..\libkernel32.a(dchds00529.o)
 .data          0x004d1bbc        0x0 c:/Dev/TDM-GCC-32/bin/../lib/gcc/mingw32/5.1.0/../../..\libkernel32.a(dchds00577.o)
 .data          0x004d1bbc        0x0 c:/Dev/TDM-GCC-32/bin/../lib/gcc/mingw32/5.1.0/../../..\libkernel32.a(dchds00923.o)
 .data          0x004d1bbc        0x0 c:/Dev/TDM-GCC-32/bin/../lib/gcc/mingw32/5.1.0/../../..\libkernel32.a(dchds00922.o)
 .data          0x004d1bbc        0x0 c:/Dev/TDM-GCC-32/bin/../lib/gcc/mingw32/5.1.0/../../..\libkernel32.a(dchds01152.o)
 .data          0x004d1bbc        0x0 c:/Dev/TDM-GCC-32/bin/../lib/gcc/mingw32/5.1.0/../../..\libkernel32.a(dchds00169.o)
 .data          0x004d1bbc        0x0 c:/Dev/TDM-GCC-32/bin/../lib/gcc/mingw32/5.1.0/../../..\libkernel32.a(dchds00082.o)
 .data          0x004d1bbc        0x0 c:/Dev/TDM-GCC-32/bin/../lib/gcc/mingw32/5.1.0/../../..\libkernel32.a(dchds01223.o)
 .data          0x004d1bbc        0x0 c:/Dev/TDM-GCC-32/bin/../lib/gcc/mingw32/5.1.0/../../..\libkernel32.a(dchds00743.o)
 .data          0x004d1bbc        0x0 c:/Dev/TDM-GCC-32/bin/../lib/gcc/mingw32/5.1.0/../../..\libkernel32.a(dchds00747.o)
 .data          0x004d1bbc        0x0 c:/Dev/TDM-GCC-32/bin/../lib/gcc/mingw32/5.1.0/../../..\libkernel32.a(dchds00978.o)
 .data          0x004d1bbc        0x0 c:/Dev/TDM-GCC-32/bin/../lib/gcc/mingw32/5.1.0/../../..\libkernel32.a(dchds00860.o)
 .data          0x004d1bbc        0x0 c:/Dev/TDM-GCC-32/bin/../lib/gcc/mingw32/5.1.0/../../..\libkernel32.a(dchds00358.o)
 .data          0x004d1bbc        0x0 c:/Dev/TDM-GCC-32/bin/../lib/gcc/mingw32/5.1.0/../../..\libkernel32.a(dchds00512.o)
 .data          0x004d1bbc        0x0 c:/Dev/TDM-GCC-32/bin/../lib/gcc/mingw32/5.1.0/../../..\libkernel32.a(dchds00671.o)
 .data          0x004d1bbc        0x0 c:/Dev/TDM-GCC-32/bin/../lib/gcc/mingw32/5.1.0/../../..\libkernel32.a(dchds00450.o)
 .data          0x004d1bbc        0x0 c:/Dev/TDM-GCC-32/bin/../lib/gcc/mingw32/5.1.0/../../..\libkernel32.a(dchds01129.o)
 .data          0x004d1bbc        0x0 c:/Dev/TDM-GCC-32/bin/../lib/gcc/mingw32/5.1.0/../../..\libkernel32.a(dchds00451.o)
 .data          0x004d1bbc        0x0 c:/Dev/TDM-GCC-32/bin/../lib/gcc/mingw32/5.1.0/../../..\libkernel32.a(dchds01167.o)
 .data          0x004d1bbc        0x0 c:/Dev/TDM-GCC-32/bin/../lib/gcc/mingw32/5.1.0/../../..\libkernel32.a(dchds00154.o)
 .data          0x004d1bbc        0x0 c:/Dev/TDM-GCC-32/bin/../lib/gcc/mingw32/5.1.0/../../..\libkernel32.a(dchds00974.o)
 .data          0x004d1bbc        0x0 c:/Dev/TDM-GCC-32/bin/../lib/gcc/mingw32/5.1.0/../../..\libkernel32.a(dchds01062.o)
 .data          0x004d1bbc        0x0 c:/Dev/TDM-GCC-32/bin/../lib/gcc/mingw32/5.1.0/../../..\libkernel32.a(dchds00473.o)
 .data          0x004d1bbc        0x0 c:/Dev/TDM-GCC-32/bin/../lib/gcc/mingw32/5.1.0/../../..\libkernel32.a(dchds01247.o)
 .data          0x004d1bbc        0x0 c:/Dev/TDM-GCC-32/bin/../lib/gcc/mingw32/5.1.0/../../..\libkernel32.a(dchds01078.o)
 .data          0x004d1bbc        0x0 c:/Dev/TDM-GCC-32/bin/../lib/gcc/mingw32/5.1.0/../../..\libkernel32.a(dchds01267.o)
 .data          0x004d1bbc        0x0 c:/Dev/TDM-GCC-32/bin/../lib/gcc/mingw32/5.1.0/../../..\libkernel32.a(dchds00947.o)
 .data          0x004d1bbc        0x0 c:/Dev/TDM-GCC-32/bin/../lib/gcc/mingw32/5.1.0/../../..\libkernel32.a(dchds01064.o)
 .data          0x004d1bbc        0x0 c:/Dev/TDM-GCC-32/bin/../lib/gcc/mingw32/5.1.0/../../..\libkernel32.a(dchds00142.o)
 .data          0x004d1bbc        0x0 c:/Dev/TDM-GCC-32/bin/../lib/gcc/mingw32/5.1.0/../../..\libkernel32.a(dchds00135.o)
 .data          0x004d1bbc        0x0 c:/Dev/TDM-GCC-32/bin/../lib/gcc/mingw32/5.1.0/../../..\libkernel32.a(dchds00352.o)
 .data          0x004d1bbc        0x0 c:/Dev/TDM-GCC-32/bin/../lib/gcc/mingw32/5.1.0/../../..\libkernel32.a(dchds00817.o)
 .data          0x004d1bbc        0x0 c:/Dev/TDM-GCC-32/bin/../lib/gcc/mingw32/5.1.0/../../..\libkernel32.a(dchds00464.o)
 .data          0x004d1bbc        0x0 c:/Dev/TDM-GCC-32/bin/../lib/gcc/mingw32/5.1.0/../../..\libkernel32.a(dchds01215.o)
 .data          0x004d1bbc        0x0 c:/Dev/TDM-GCC-32/bin/../lib/gcc/mingw32/5.1.0/../../..\libkernel32.a(dchds01213.o)
 .data          0x004d1bbc        0x0 c:/Dev/TDM-GCC-32/bin/../lib/gcc/mingw32/5.1.0/../../..\libkernel32.a(dchds00388.o)
 .data          0x004d1bbc        0x0 c:/Dev/TDM-GCC-32/bin/../lib/gcc/mingw32/5.1.0/../../..\libkernel32.a(dchds00606.o)
 .data          0x004d1bbc        0x0 c:/Dev/TDM-GCC-32/bin/../lib/gcc/mingw32/5.1.0/../../..\libkernel32.a(dchds00236.o)
 .data          0x004d1bbc        0x0 c:/Dev/TDM-GCC-32/bin/../lib/gcc/mingw32/5.1.0/../../..\libkernel32.a(dchds01173.o)
 .data          0x004d1bbc        0x0 c:/Dev/TDM-GCC-32/bin/../lib/gcc/mingw32/5.1.0/../../..\libkernel32.a(dchds00510.o)
 .data          0x004d1bbc        0x0 c:/Dev/TDM-GCC-32/bin/../lib/gcc/mingw32/5.1.0/../../..\libkernel32.a(dchds00814.o)
 .data          0x004d1bbc        0x0 c:/Dev/TDM-GCC-32/bin/../lib/gcc/mingw32/5.1.0/../../..\libkernel32.a(dchds00207.o)
 .data          0x004d1bbc        0x0 c:/Dev/TDM-GCC-32/bin/../lib/gcc/mingw32/5.1.0/../../..\libkernel32.a(dchds00734.o)
 .data          0x004d1bbc        0x0 c:/Dev/TDM-GCC-32/bin/../lib/gcc/mingw32/5.1.0/../../..\libkernel32.a(dchds00763.o)
 .data          0x004d1bbc        0x0 c:/Dev/TDM-GCC-32/bin/../lib/gcc/mingw32/5.1.0/../../..\libkernel32.a(dchds00744.o)
 .data          0x004d1bbc        0x0 c:/Dev/TDM-GCC-32/bin/../lib/gcc/mingw32/5.1.0/../../..\libkernel32.a(dchdh.o)
 .data          0x004d1bbc        0x0 c:/Dev/TDM-GCC-32/bin/../lib/gcc/mingw32/5.1.0/../../..\libkernel32.a(dchdt.o)
 .data          0x004d1bbc        0x0 c:/Dev/TDM-GCC-32/bin/../lib/gcc/mingw32/5.1.0\libgcc.a(_udivdi3.o)
 .data          0x004d1bbc        0x0 c:/Dev/TDM-GCC-32/bin/../lib/gcc/mingw32/5.1.0\libgcc.a(_umoddi3.o)
 .data          0x004d1bbc        0x0 c:/Dev/TDM-GCC-32/bin/../lib/gcc/mingw32/5.1.0/crtend.o
 *(.data2)
 *(SORT(.data$*))
 *(.jcr)
 .jcr           0x004d1bbc        0x0 c:/Dev/TDM-GCC-32/bin/../lib/gcc/mingw32/5.1.0/crtbegin.o
 .jcr           0x004d1bbc        0x4 c:/Dev/TDM-GCC-32/bin/../lib/gcc/mingw32/5.1.0/crtend.o
                0x004d1bc0                __data_end__ = .
 *(.data_cygwin_nocopy)

.rdata          0x004d2000     0xe400
 *(.rdata)
 .rdata         0x004d2000       0x24 c:/Dev/TDM-GCC-32/bin/../lib/gcc/mingw32/5.1.0/crtbegin.o
 *fill*         0x004d2024       0x1c 
 .rdata         0x004d2040     0x2ce0 obj/z80.oa
 .rdata         0x004d4d20       0x44 obj/vdp.o
 *fill*         0x004d4d64       0x1c 
 .rdata         0x004d4d80       0x60 obj/render.o
 .rdata         0x004d4de0       0x20 obj/system.o
 .rdata         0x004d4e00       0x60 obj/unzip.o
                0x004d4e20                unz_copyright
 .rdata         0x004d4e60        0x8 obj/fileio.o
 .rdata         0x004d4e68       0x40 obj/mio.o
 .rdata         0x004d4ea8      0x524 obj/mem68k_c.o
 .rdata         0x004d53cc      0x340 obj/memz80.o
 .rdata         0x004d570c      0x368 obj/membnk.o
 .rdata         0x004d5a74       0x20 obj/memvdp.o
 .rdata         0x004d5a94       0x54 obj/state.o
 .rdata         0x004d5ae8      0x848 obj/gtkopts.o
 .rdata         0x004d6330      0x348 obj/locopts.o
 *fill*         0x004d6678        0x8 
 .rdata         0x004d6680      0x3e0 obj/fm.o
 .rdata         0x004d6a60       0x18 obj/sn76496.o
 .rdata         0x004d6a78      0x35c obj/main.o
 .rdata         0x004d6dd4      0x2a0 obj/options.o
 .rdata         0x004d7074       0x24 obj/xBRZ.o
 *fill*         0x004d7098        0x8 
 .rdata         0x004d70a0      0x200 m68k/m68k.oa(m68kcpu.o)
 .rdata         0x004d72a0      0xb20 C:/Dev/msys/lib\libz.a(inflate.o)
 .rdata         0x004d7dc0     0x2000 C:/Dev/msys/lib\libz.a(crc32.o)
 .rdata         0x004d9dc0      0x508 C:/Dev/msys/lib\libz.a(gzlib.o)
 .rdata         0x004da2c8       0xb4 C:/Dev/msys/lib\libz.a(gzread.o)
 .rdata         0x004da37c       0x64 C:/Dev/msys/lib\libz.a(gzwrite.o)
 .rdata         0x004da3e0       0xc0 C:/Dev/msys/lib\libz.a(zutil.o)
                0x004da460                z_errmsg
 .rdata         0x004da4a0      0x140 C:/Dev/msys/lib\libz.a(inftrees.o)
                0x004da5a0                inflate_copyright
 .rdata         0x004da5e0       0x50 C:/Dev/msys/lib\libz.a(inffast.o)
 *fill*         0x004da630       0x10 
 .rdata         0x004da640       0xe0 C:/Dev/msys/lib\libz.a(deflate.o)
                0x004da6c0                deflate_copyright
 .rdata         0x004da720      0xa80 C:/Dev/msys/lib\libz.a(trees.o)
                0x004da820                _length_code
                0x004da920                _dist_code
 .rdata         0x004db1a0      0x180 C:/Dev/msys/local/lib\libSDL.a(SDL_audio.o)
 .rdata         0x004db320       0x64 C:/Dev/msys/local/lib\libSDL.a(SDL_syssem.o)
 .rdata         0x004db384       0x94 C:/Dev/msys/local/lib\libSDL.a(SDL_sysevents.o)
 .rdata         0x004db418       0x1c C:/Dev/msys/local/lib\libSDL.a(SDL_events.o)
 .rdata         0x004db434      0x3f0 C:/Dev/msys/local/lib\libSDL.a(SDL_video.o)
 .rdata         0x004db824       0x20 C:/Dev/msys/local/lib\libSDL.a(SDL.o)
 .rdata         0x004db844      0x1d0 C:/Dev/msys/local/lib\libSDL.a(SDL_error.o)
 .rdata         0x004dba14       0x70 C:/Dev/msys/local/lib\libSDL.a(SDL_systimer.o)
 .rdata         0x004dba84       0xa8 C:/Dev/msys/local/lib\libSDL.a(SDL_timer.o)
 .rdata         0x004dbb2c       0x90 C:/Dev/msys/local/lib\libSDL.a(SDL_dibaudio.o)
 .rdata         0x004dbbbc       0xb0 C:/Dev/msys/local/lib\libSDL.a(SDL_diskaudio.o)
 .rdata         0x004dbc6c       0x34 C:/Dev/msys/local/lib\libSDL.a(SDL_dummyaudio.o)
 .rdata         0x004dbca0       0x28 C:/Dev/msys/local/lib\libSDL.a(SDL_systhread.o)
 .rdata         0x004dbcc8       0x58 C:/Dev/msys/local/lib\libSDL.a(SDL_sysmutex.o)
 .rdata         0x004dbd20       0x30 C:/Dev/msys/local/lib\libSDL.a(SDL_audiocvt.o)
 .rdata         0x004dbd50       0x74 C:/Dev/msys/local/lib\libSDL.a(SDL_sysmouse.o)
 .rdata         0x004dbdc4       0x8c C:/Dev/msys/local/lib\libSDL.a(SDL_dibvideo.o)
 .rdata         0x004dbe50       0x8c C:/Dev/msys/local/lib\libSDL.a(SDL_syswm.o)
 *fill*         0x004dbedc        0x4 
 .rdata         0x004dbee0      0x220 C:/Dev/msys/local/lib\libSDL.a(SDL_iconv.o)
 .rdata         0x004dc100       0xb0 C:/Dev/msys/local/lib\libSDL.a(SDL_joystick.o)
 .rdata         0x004dc1b0      0x60c C:/Dev/msys/local/lib\libSDL.a(SDL_keyboard.o)
 .rdata         0x004dc7bc       0x5c C:/Dev/msys/local/lib\libSDL.a(SDL_cursor.o)
 .rdata         0x004dc818       0x90 C:/Dev/msys/local/lib\libSDL.a(SDL_nullvideo.o)
 .rdata         0x004dc8a8      0x120 C:/Dev/msys/local/lib\libSDL.a(SDL_surface.o)
 .rdata         0x004dc9c8       0xc4 C:/Dev/msys/local/lib\libSDL.a(SDL_cdrom.o)
 .rdata         0x004dca8c      0x110 C:/Dev/msys/local/lib\libSDL.a(SDL_rwops.o)
 .rdata         0x004dcb9c      0x2d4 C:/Dev/msys/local/lib\libSDL.a(SDL_wingl.o)
 .rdata         0x004dce70      0x12c C:/Dev/msys/local/lib\libSDL.a(SDL_dibevents.o)
 .rdata         0x004dcf9c      0x17c C:/Dev/msys/local/lib\libSDL.a(SDL_mmjoystick.o)
 .rdata         0x004dd118       0x10 C:/Dev/msys/local/lib\libSDL.a(SDL_RLEaccel.o)
 .rdata         0x004dd128       0x20 C:/Dev/msys/local/lib\libSDL.a(SDL_blit.o)
 .rdata         0x004dd148       0x40 C:/Dev/msys/local/lib\libSDL.a(SDL_syscdrom.o)
 *fill*         0x004dd188       0x18 
 .rdata         0x004dd1a0     0x2420 C:/Dev/msys/local/lib\libSDL.a(SDL_blit_N.o)
 .rdata         0x004df5c0       0x28 C:/Dev/msys/local/lib\libSDL.a(SDL_blit_0.o)
 .rdata         0x004df5e8      0x168 C:/Dev/msys/local/lib\libSDL.a(SDL_blit_1.o)
 .rdata         0x004df750       0x20 C:/Dev/msys/local/lib\libSDL.a(SDL_blit_A.o)
 .rdata         0x004df770        0x4 c:/Dev/TDM-GCC-32/bin/../lib/gcc/mingw32/5.1.0/../../..\libmingw32.a(tlssup.o)
                0x004df770                __dyn_tls_init_callback
 .rdata         0x004df774       0xac c:/Dev/TDM-GCC-32/bin/../lib/gcc/mingw32/5.1.0/../../..\libmingw32.a(pseudo-reloc.o)
 .rdata         0x004df820      0x1a0 c:/Dev/TDM-GCC-32/bin/../lib/gcc/mingw32/5.1.0/../../..\libmingwex.a(pformat.o)
 .rdata         0x004df9c0       0x68 c:/Dev/TDM-GCC-32/bin/../lib/gcc/mingw32/5.1.0/../../..\libmingwex.a(gdtoa.o)
 *fill*         0x004dfa28       0x18 
 .rdata         0x004dfa40      0x140 c:/Dev/TDM-GCC-32/bin/../lib/gcc/mingw32/5.1.0/../../..\libmingwex.a(misc.o)
                0x004dfa40                __tens_D2A
                0x004dfb00                __tinytens_D2A
                0x004dfb40                __bigtens_D2A
 *(SORT(.rdata$*))
 .rdata$zzz     0x004dfb80       0x14 c:/Dev/TDM-GCC-32/bin/../lib/gcc/mingw32/5.1.0/crtbegin.o
 .rdata$zzz     0x004dfb94       0x14 obj/z80.oa
 .rdata$zzz     0x004dfba8       0x14 obj/genesis.o
 .rdata$zzz     0x004dfbbc       0x14 obj/vdp.o
 .rdata$zzz     0x004dfbd0       0x14 obj/render.o
 .rdata$zzz     0x004dfbe4       0x14 obj/system.o
 .rdata$zzz     0x004dfbf8       0x14 obj/unzip.o
 .rdata$zzz     0x004dfc0c       0x14 obj/fileio.o
 .rdata$zzz     0x004dfc20       0x14 obj/loadrom.o
 .rdata$zzz     0x004dfc34       0x14 obj/mio.o
 .rdata$zzz     0x004dfc48       0x14 obj/mem68k.o
 .rdata$zzz     0x004dfc5c       0x14 obj/mem68k_c.o
 .rdata$zzz     0x004dfc70       0x14 obj/memz80.o
 .rdata$zzz     0x004dfc84       0x14 obj/membnk.o
 .rdata$zzz     0x004dfc98       0x14 obj/memvdp.o
 .rdata$zzz     0x004dfcac       0x14 obj/state.o
 .rdata$zzz     0x004dfcc0       0x14 obj/gtkopts.o
 .rdata$zzz     0x004dfcd4       0x14 obj/locopts.o
 .rdata$zzz     0x004dfce8       0x14 obj/eeprom.o
 .rdata$zzz     0x004dfcfc       0x14 obj/sound.o
 .rdata$zzz     0x004dfd10       0x14 obj/fm.o
 .rdata$zzz     0x004dfd24       0x14 obj/sn76496.o
 .rdata$zzz     0x004dfd38       0x14 obj/main.o
 .rdata$zzz     0x004dfd4c       0x14 obj/error.o
 .rdata$zzz     0x004dfd60       0x14 obj/msg.o
 .rdata$zzz     0x004dfd74       0x14 obj/options.o
 .rdata$zzz     0x004dfd88       0x14 obj/xBRZ.o
 .rdata$zzz     0x004dfd9c       0x14 m68k/m68k.oa(m68kcpu.o)
 .rdata$zzz     0x004dfdb0       0x14 m68k/m68k.oa(m68kops.o)
 .rdata$zzz     0x004dfdc4       0x14 m68k/m68k.oa(m68kopdm.o)
 .rdata$zzz     0x004dfdd8       0x14 m68k/m68k.oa(m68kopac.o)
 .rdata$zzz     0x004dfdec       0x14 m68k/m68k.oa(m68kopnz.o)
 .rdata$zzz     0x004dfe00       0x14 C:/Dev/msys/lib\libz.a(inflate.o)
 .rdata$zzz     0x004dfe14       0x14 C:/Dev/msys/lib\libz.a(crc32.o)
 .rdata$zzz     0x004dfe28       0x14 C:/Dev/msys/lib\libz.a(gzlib.o)
 .rdata$zzz     0x004dfe3c       0x14 C:/Dev/msys/lib\libz.a(gzread.o)
 .rdata$zzz     0x004dfe50       0x14 C:/Dev/msys/lib\libz.a(gzclose.o)
 .rdata$zzz     0x004dfe64       0x14 C:/Dev/msys/lib\libz.a(gzwrite.o)
 .rdata$zzz     0x004dfe78       0x14 C:/Dev/msys/lib\libz.a(zutil.o)
 .rdata$zzz     0x004dfe8c       0x14 C:/Dev/msys/lib\libz.a(adler32.o)
 .rdata$zzz     0x004dfea0       0x14 C:/Dev/msys/lib\libz.a(inftrees.o)
 .rdata$zzz     0x004dfeb4       0x14 C:/Dev/msys/lib\libz.a(inffast.o)
 .rdata$zzz     0x004dfec8       0x14 C:/Dev/msys/lib\libz.a(deflate.o)
 .rdata$zzz     0x004dfedc       0x14 C:/Dev/msys/lib\libz.a(trees.o)
 .rdata$zzz     0x004dfef0       0x14 C:/Dev/msys/local/lib\libSDL.a(SDL_audio.o)
 .rdata$zzz     0x004dff04       0x14 C:/Dev/msys/local/lib\libSDL.a(SDL_syssem.o)
 .rdata$zzz     0x004dff18       0x14 C:/Dev/msys/local/lib\libSDL.a(SDL_sysevents.o)
 .rdata$zzz     0x004dff2c       0x14 C:/Dev/msys/local/lib\libSDL.a(SDL_events.o)
 .rdata$zzz     0x004dff40       0x14 C:/Dev/msys/local/lib\libSDL.a(SDL_video.o)
 .rdata$zzz     0x004dff54       0x14 C:/Dev/msys/local/lib\libSDL.a(SDL.o)
 .rdata$zzz     0x004dff68       0x14 C:/Dev/msys/local/lib\libSDL.a(SDL_error.o)
 .rdata$zzz     0x004dff7c       0x14 C:/Dev/msys/local/lib\libSDL.a(SDL_systimer.o)
 .rdata$zzz     0x004dff90       0x14 C:/Dev/msys/local/lib\libSDL.a(SDL_timer.o)
 .rdata$zzz     0x004dffa4       0x14 C:/Dev/msys/local/lib\libSDL.a(SDL_dibaudio.o)
 .rdata$zzz     0x004dffb8       0x14 C:/Dev/msys/local/lib\libSDL.a(SDL_diskaudio.o)
 .rdata$zzz     0x004dffcc       0x14 C:/Dev/msys/local/lib\libSDL.a(SDL_dummyaudio.o)
 .rdata$zzz     0x004dffe0       0x14 C:/Dev/msys/local/lib\libSDL.a(SDL_systhread.o)
 .rdata$zzz     0x004dfff4       0x14 C:/Dev/msys/local/lib\libSDL.a(SDL_sysmutex.o)
 .rdata$zzz     0x004e0008       0x14 C:/Dev/msys/local/lib\libSDL.a(SDL_audiocvt.o)
 .rdata$zzz     0x004e001c       0x14 C:/Dev/msys/local/lib\libSDL.a(SDL_string.o)
 .rdata$zzz     0x004e0030       0x14 C:/Dev/msys/local/lib\libSDL.a(SDL_thread.o)
 .rdata$zzz     0x004e0044       0x14 C:/Dev/msys/local/lib\libSDL.a(SDL_getenv.o)
 .rdata$zzz     0x004e0058       0x14 C:/Dev/msys/local/lib\libSDL.a(SDL_sysmouse.o)
 .rdata$zzz     0x004e006c       0x14 C:/Dev/msys/local/lib\libSDL.a(SDL_active.o)
 .rdata$zzz     0x004e0080       0x14 C:/Dev/msys/local/lib\libSDL.a(SDL_dibvideo.o)
 .rdata$zzz     0x004e0094       0x14 C:/Dev/msys/local/lib\libSDL.a(SDL_expose.o)
 .rdata$zzz     0x004e00a8       0x14 C:/Dev/msys/local/lib\libSDL.a(SDL_quit.o)
 .rdata$zzz     0x004e00bc       0x14 C:/Dev/msys/local/lib\libSDL.a(SDL_mouse.o)
 .rdata$zzz     0x004e00d0       0x14 C:/Dev/msys/local/lib\libSDL.a(SDL_resize.o)
 .rdata$zzz     0x004e00e4       0x14 C:/Dev/msys/local/lib\libSDL.a(SDL_syswm.o)
 .rdata$zzz     0x004e00f8       0x14 C:/Dev/msys/local/lib\libSDL.a(SDL_iconv.o)
 .rdata$zzz     0x004e010c       0x14 C:/Dev/msys/local/lib\libSDL.a(SDL_joystick.o)
 .rdata$zzz     0x004e0120       0x14 C:/Dev/msys/local/lib\libSDL.a(SDL_keyboard.o)
 .rdata$zzz     0x004e0134       0x14 C:/Dev/msys/local/lib\libSDL.a(SDL_cursor.o)
 .rdata$zzz     0x004e0148       0x14 C:/Dev/msys/local/lib\libSDL.a(SDL_nullvideo.o)
 .rdata$zzz     0x004e015c       0x14 C:/Dev/msys/local/lib\libSDL.a(SDL_surface.o)
 .rdata$zzz     0x004e0170       0x14 C:/Dev/msys/local/lib\libSDL.a(SDL_pixels.o)
 .rdata$zzz     0x004e0184       0x14 C:/Dev/msys/local/lib\libSDL.a(SDL_cdrom.o)
 .rdata$zzz     0x004e0198       0x14 C:/Dev/msys/local/lib\libSDL.a(SDL_fatal.o)
 .rdata$zzz     0x004e01ac       0x14 C:/Dev/msys/local/lib\libSDL.a(SDL_rwops.o)
 .rdata$zzz     0x004e01c0       0x14 C:/Dev/msys/local/lib\libSDL.a(SDL_wingl.o)
 .rdata$zzz     0x004e01d4       0x14 C:/Dev/msys/local/lib\libSDL.a(SDL_dibevents.o)
 .rdata$zzz     0x004e01e8       0x14 C:/Dev/msys/local/lib\libSDL.a(SDL_mmjoystick.o)
 .rdata$zzz     0x004e01fc       0x14 C:/Dev/msys/local/lib\libSDL.a(SDL_nullevents.o)
 .rdata$zzz     0x004e0210       0x14 C:/Dev/msys/local/lib\libSDL.a(SDL_RLEaccel.o)
 .rdata$zzz     0x004e0224       0x14 C:/Dev/msys/local/lib\libSDL.a(SDL_blit.o)
 .rdata$zzz     0x004e0238       0x14 C:/Dev/msys/local/lib\libSDL.a(SDL_syscdrom.o)
 .rdata$zzz     0x004e024c       0x14 C:/Dev/msys/local/lib\libSDL.a(SDL_cpuinfo.o)
 .rdata$zzz     0x004e0260       0x14 C:/Dev/msys/local/lib\libSDL.a(SDL_blit_N.o)
 .rdata$zzz     0x004e0274       0x14 C:/Dev/msys/local/lib\libSDL.a(SDL_blit_0.o)
 .rdata$zzz     0x004e0288       0x14 C:/Dev/msys/local/lib\libSDL.a(SDL_blit_1.o)
 .rdata$zzz     0x004e029c       0x14 C:/Dev/msys/local/lib\libSDL.a(SDL_blit_A.o)
 .rdata$zzz     0x004e02b0       0x14 c:/Dev/TDM-GCC-32/bin/../lib/gcc/mingw32/5.1.0\libgcc.a(_divdi3.o)
 .rdata$zzz     0x004e02c4       0x14 c:/Dev/TDM-GCC-32/bin/../lib/gcc/mingw32/5.1.0\libgcc.a(_ctors.o)
 .rdata$zzz     0x004e02d8       0x14 c:/Dev/TDM-GCC-32/bin/../lib/gcc/mingw32/5.1.0\libgcc.a(_udivdi3.o)
 .rdata$zzz     0x004e02ec       0x14 c:/Dev/TDM-GCC-32/bin/../lib/gcc/mingw32/5.1.0\libgcc.a(_umoddi3.o)
 .rdata$zzz     0x004e0300       0x14 c:/Dev/TDM-GCC-32/bin/../lib/gcc/mingw32/5.1.0/crtend.o
                0x004e0314                __rt_psrelocs_start = .
 *(.rdata_runtime_pseudo_reloc)
                0x004e0314                __rt_psrelocs_end = .
                0x00000000                __rt_psrelocs_size = (__rt_psrelocs_end - __rt_psrelocs_start)
                0x004e0314                ___RUNTIME_PSEUDO_RELOC_LIST_END__ = .
                0x004e0314                __RUNTIME_PSEUDO_RELOC_LIST_END__ = .
                0x004e0314                ___RUNTIME_PSEUDO_RELOC_LIST__ = (. - __rt_psrelocs_size)
                0x004e0314                __RUNTIME_PSEUDO_RELOC_LIST__ = (. - __rt_psrelocs_size)

.eh_frame       0x004e1000     0x1000
 *(.eh_frame*)
 .eh_frame      0x004e1000       0xb8 c:/Dev/TDM-GCC-32/bin/../lib/gcc/mingw32/5.1.0/../../../crt2.o
 .eh_frame      0x004e10b8       0x88 c:/Dev/TDM-GCC-32/bin/../lib/gcc/mingw32/5.1.0/../../..\libmingw32.a(tlssup.o)
 .eh_frame      0x004e1140       0x38 c:/Dev/TDM-GCC-32/bin/../lib/gcc/mingw32/5.1.0/../../..\libmingw32.a(cpu_features.o)
 .eh_frame      0x004e1178       0x2c c:/Dev/TDM-GCC-32/bin/../lib/gcc/mingw32/5.1.0/../../..\libmingw32.a(CRT_fp10.o)
 .eh_frame      0x004e11a4       0x9c c:/Dev/TDM-GCC-32/bin/../lib/gcc/mingw32/5.1.0/../../..\libmingw32.a(pseudo-reloc.o)
 .eh_frame      0x004e1240       0x68 c:/Dev/TDM-GCC-32/bin/../lib/gcc/mingw32/5.1.0/../../..\libmingw32.a(gccmain.o)
 .eh_frame      0x004e12a8       0x58 c:/Dev/TDM-GCC-32/bin/../lib/gcc/mingw32/5.1.0/../../..\libmingw32.a(main.o)
 .eh_frame      0x004e1300       0xf8 c:/Dev/TDM-GCC-32/bin/../lib/gcc/mingw32/5.1.0/../../..\libmingw32.a(tlsthrd.o)
 .eh_frame      0x004e13f8       0x30 c:/Dev/TDM-GCC-32/bin/../lib/gcc/mingw32/5.1.0/../../..\libmingwex.a(vfprintf.o)
 .eh_frame      0x004e1428       0x30 c:/Dev/TDM-GCC-32/bin/../lib/gcc/mingw32/5.1.0/../../..\libmingwex.a(vprintf.o)
 .eh_frame      0x004e1458       0x30 c:/Dev/TDM-GCC-32/bin/../lib/gcc/mingw32/5.1.0/../../..\libmingwex.a(snprintf.o)
 .eh_frame      0x004e1488       0x40 c:/Dev/TDM-GCC-32/bin/../lib/gcc/mingw32/5.1.0/../../..\libmingwex.a(vsnprintf.o)
 .eh_frame      0x004e14c8       0x88 c:/Dev/TDM-GCC-32/bin/../lib/gcc/mingw32/5.1.0/../../..\libmingwex.a(strtoumax.o)
 .eh_frame      0x004e1550      0x318 c:/Dev/TDM-GCC-32/bin/../lib/gcc/mingw32/5.1.0/../../..\libmingwex.a(pformat.o)
 .eh_frame      0x004e1868       0x9c c:/Dev/TDM-GCC-32/bin/../lib/gcc/mingw32/5.1.0/../../..\libmingwex.a(gdtoa.o)
 .eh_frame      0x004e1904       0xd0 c:/Dev/TDM-GCC-32/bin/../lib/gcc/mingw32/5.1.0/../../..\libmingwex.a(wcrtomb.o)
 .eh_frame      0x004e19d4      0x14c c:/Dev/TDM-GCC-32/bin/../lib/gcc/mingw32/5.1.0/../../..\libmingwex.a(mbrtowc.o)
 .eh_frame      0x004e1b20       0xb8 c:/Dev/TDM-GCC-32/bin/../lib/gcc/mingw32/5.1.0/../../..\libmingwex.a(dmisc.o)
 .eh_frame      0x004e1bd8      0x328 c:/Dev/TDM-GCC-32/bin/../lib/gcc/mingw32/5.1.0/../../..\libmingwex.a(misc.o)
 .eh_frame      0x004e1f00       0x98 c:/Dev/TDM-GCC-32/bin/../lib/gcc/mingw32/5.1.0/../../..\libmingwex.a(gmisc.o)

.pdata
 *(.pdata)

.bss            0x004e2000   0x749978
                0x004e2000                __bss_start__ = .
 *(.bss)
 .bss           0x004e2000        0x8 c:/Dev/TDM-GCC-32/bin/../lib/gcc/mingw32/5.1.0/../../../crt2.o
                0x004e2000                _argv
                0x004e2004                _argc
 .bss           0x004e2008        0x0 c:/Dev/TDM-GCC-32/bin/../lib/gcc/mingw32/5.1.0/crtbegin.o
 *fill*         0x004e2008       0x18 
 .bss           0x004e2020      0x5e0 obj/z80.oa
 .bss           0x004e2600        0x0 obj/genesis.o
 .bss           0x004e2600      0x140 obj/vdp.o
 .bss           0x004e2740      0x9e0 obj/render.o
                0x004e2740                lcd
                0x004e2741                phos
                0x004e2742                tvblur
 .bss           0x004e3120      0x660 obj/system.o
                0x004e3120                line_cycles
                0x004e3124                total_m68k
                0x004e3128                frame_m68k
                0x004e312c                aim_m68k
 .bss           0x004e3780        0x0 obj/unzip.o
 .bss           0x004e3780        0x0 obj/fileio.o
 .bss           0x004e3780     0x4020 obj/loadrom.o
                0x004e3780                country
 .bss           0x004e77a0        0x0 obj/mio.o
 .bss           0x004e77a0        0x0 obj/mem68k.o
 .bss           0x004e77a0        0x0 obj/mem68k_c.o
 .bss           0x004e77a0        0x0 obj/memz80.o
 .bss           0x004e77a0        0x0 obj/membnk.o
 .bss           0x004e77a0        0x0 obj/memvdp.o
 .bss           0x004e77a0        0x0 obj/state.o
 .bss           0x004e77a0        0x4 obj/gtkopts.o
                0x004e77a0                gtkopts_conf
 .bss           0x004e77a4        0x4 obj/locopts.o
                0x004e77a4                locopts_conf
 .bss           0x004e77a8        0x0 obj/eeprom.o
 .bss           0x004e77a8        0x0 obj/sound.o
 *fill*         0x004e77a8       0x18 
 .bss           0x004e77c0    0x3ab40 obj/fm.o
 .bss           0x00522300        0x0 obj/sn76496.o
 .bss           0x00522300      0x5c0 obj/main.o
                0x00522300                mypath
                0x00522420                szFile
                0x00522640                cfgfilename
                0x00522760                filename
                0x00522864                z80_counter_16
                0x00522868                z80_counter_8
                0x0052286c                skipnext
                0x00522870                need_sound
                0x00522871                need_reinit
                0x00522872                ToolbarState
                0x00522874                autofs
                0x00522878                UncachedRender
                0x00522879                xbrz
                0x0052287a                cheat
                0x0052287b                llsfilter
                0x0052287c                sixbuttonpad
                0x0052287d                use_sem
                0x0052287e                sound
                0x0052287f                fastsound
                0x00522880                crop_screen
                0x00522881                square_screen
                0x00522882                rotateright
                0x00522883                fullscreen
                0x00522884                renderer
                0x00522888                cdir
                0x0052288c                sdir
                0x00522890                FRPosY
                0x00522894                FRPosX
                0x00522898                FSPosY
                0x0052289c                FSPosX
                0x005228a0                rendered_frames
                0x005228a4                frame_count
                0x005228a8                paused
                0x005228ac                old_timer_count
                0x005228b0                timer_count
                0x005228b4                so
 .bss           0x005228c0        0x0 obj/error.o
 .bss           0x005228c0        0x0 obj/msg.o
 .bss           0x005228c0        0x0 obj/options.o
 .bss           0x005228c0        0x8 obj/xBRZ.o
                0x005228c0                picture_out32
                0x005228c4                picture_in32
 *fill*         0x005228c8       0x18 
 .bss           0x005228e0      0x120 m68k/m68k.oa(m68kcpu.o)
                0x005228e0                m68ki_cpu
                0x005229e8                m68ki_tracing
                0x005229ec                m68ki_remaining_cycles
 .bss           0x00522a00        0x0 m68k/m68k.oa(m68kops.o)
 .bss           0x00522a00        0x0 m68k/m68k.oa(m68kopdm.o)
 .bss           0x00522a00        0x0 m68k/m68k.oa(m68kopac.o)
 .bss           0x00522a00        0x0 m68k/m68k.oa(m68kopnz.o)
 .bss           0x00522a00        0x0 C:/Dev/msys/lib\libz.a(inflate.o)
 .bss           0x00522a00        0x0 C:/Dev/msys/lib\libz.a(crc32.o)
 .bss           0x00522a00        0x0 C:/Dev/msys/lib\libz.a(gzlib.o)
 .bss           0x00522a00        0x0 C:/Dev/msys/lib\libz.a(gzread.o)
 .bss           0x00522a00        0x0 C:/Dev/msys/lib\libz.a(gzclose.o)
 .bss           0x00522a00        0x0 C:/Dev/msys/lib\libz.a(gzwrite.o)
 .bss           0x00522a00        0x0 C:/Dev/msys/lib\libz.a(zutil.o)
 .bss           0x00522a00        0x0 C:/Dev/msys/lib\libz.a(adler32.o)
 .bss           0x00522a00        0x0 C:/Dev/msys/lib\libz.a(inftrees.o)
 .bss           0x00522a00        0x0 C:/Dev/msys/lib\libz.a(inffast.o)
 .bss           0x00522a00        0x0 C:/Dev/msys/lib\libz.a(deflate.o)
 .bss           0x00522a00        0x0 C:/Dev/msys/lib\libz.a(trees.o)
 .bss           0x00522a00        0xc C:/Dev/msys/local/lib\libSDL.a(SDL_audio.o)
                0x00522a00                current_audio
 .bss           0x00522a0c        0x0 C:/Dev/msys/local/lib\libSDL.a(SDL_syssem.o)
 .bss           0x00522a0c       0x54 C:/Dev/msys/local/lib\libSDL.a(SDL_sysevents.o)
                0x00522a0c                SDL_windowid
                0x00522a10                sysevents_mouse_pressed
                0x00522a14                HandleMessage
                0x00522a18                gamma_saved
                0x00522a1c                posted
                0x00522a20                mouse_relative
                0x00522a24                SDL_resizing
                0x00522a28                SDL_windowY
                0x00522a2c                SDL_windowX
                0x00522a30                SDL_bounds
                0x00522a40                SDL_Window
                0x00522a44                SDL_Instance
                0x00522a48                SDL_Appstyle
                0x00522a4c                SDL_Appname
 .bss           0x00522a60     0x1440 C:/Dev/msys/local/lib\libSDL.a(SDL_events.o)
                0x00522a60                SDL_EventOK
 .bss           0x00523ea0        0x8 C:/Dev/msys/local/lib\libSDL.a(SDL_video.o)
                0x00523ea0                current_video
 .bss           0x00523ea8        0x8 C:/Dev/msys/local/lib\libSDL.a(SDL.o)
 *fill*         0x00523eb0       0x10 
 .bss           0x00523ec0      0x400 C:/Dev/msys/local/lib\libSDL.a(SDL_error.o)
 .bss           0x005242c0        0xc C:/Dev/msys/local/lib\libSDL.a(SDL_systimer.o)
 .bss           0x005242cc       0x1c C:/Dev/msys/local/lib\libSDL.a(SDL_timer.o)
                0x005242cc                SDL_alarm_interval
                0x005242d0                SDL_timer_running
                0x005242d4                SDL_timer_started
 .bss           0x005242e8        0x0 C:/Dev/msys/local/lib\libSDL.a(SDL_dibaudio.o)
 .bss           0x005242e8        0x0 C:/Dev/msys/local/lib\libSDL.a(SDL_diskaudio.o)
 .bss           0x005242e8        0x0 C:/Dev/msys/local/lib\libSDL.a(SDL_dummyaudio.o)
 .bss           0x005242e8        0x0 C:/Dev/msys/local/lib\libSDL.a(SDL_systhread.o)
 .bss           0x005242e8        0x0 C:/Dev/msys/local/lib\libSDL.a(SDL_sysmutex.o)
 .bss           0x005242e8        0x0 C:/Dev/msys/local/lib\libSDL.a(SDL_audiocvt.o)
 .bss           0x005242e8        0x0 C:/Dev/msys/local/lib\libSDL.a(SDL_string.o)
 *fill*         0x005242e8       0x18 
 .bss           0x00524300      0x320 C:/Dev/msys/local/lib\libSDL.a(SDL_thread.o)
 .bss           0x00524620        0x8 C:/Dev/msys/local/lib\libSDL.a(SDL_getenv.o)
 .bss           0x00524628        0x4 C:/Dev/msys/local/lib\libSDL.a(SDL_sysmouse.o)
                0x00524628                SDL_hcursor
 .bss           0x0052462c        0x4 C:/Dev/msys/local/lib\libSDL.a(SDL_active.o)
 .bss           0x00524630        0x0 C:/Dev/msys/local/lib\libSDL.a(SDL_dibvideo.o)
 .bss           0x00524630        0x0 C:/Dev/msys/local/lib\libSDL.a(SDL_expose.o)
 .bss           0x00524630        0x0 C:/Dev/msys/local/lib\libSDL.a(SDL_quit.o)
 .bss           0x00524630       0x10 C:/Dev/msys/local/lib\libSDL.a(SDL_mouse.o)
 .bss           0x00524640        0x8 C:/Dev/msys/local/lib\libSDL.a(SDL_resize.o)
 .bss           0x00524648        0x4 C:/Dev/msys/local/lib\libSDL.a(SDL_syswm.o)
                0x00524648                screen_icn
 .bss           0x0052464c        0x0 C:/Dev/msys/local/lib\libSDL.a(SDL_iconv.o)
 .bss           0x0052464c        0xc C:/Dev/msys/local/lib\libSDL.a(SDL_joystick.o)
                0x0052464c                SDL_joysticks
                0x00524650                SDL_allocatedjoysticks
                0x00524654                SDL_numjoysticks
 *fill*         0x00524658        0x8 
 .bss           0x00524660      0x6a0 C:/Dev/msys/local/lib\libSDL.a(SDL_keyboard.o)
                0x00524660                SDL_TranslateUNICODE
 .bss           0x00524d00       0x10 C:/Dev/msys/local/lib\libSDL.a(SDL_cursor.o)
                0x00524d00                SDL_cursorlock
                0x00524d04                SDL_cursor
 .bss           0x00524d10        0x0 C:/Dev/msys/local/lib\libSDL.a(SDL_nullvideo.o)
 .bss           0x00524d10        0x0 C:/Dev/msys/local/lib\libSDL.a(SDL_surface.o)
 .bss           0x00524d10        0x4 C:/Dev/msys/local/lib\libSDL.a(SDL_pixels.o)
 *fill*         0x00524d14        0xc 
 .bss           0x00524d20       0x40 C:/Dev/msys/local/lib\libSDL.a(SDL_cdrom.o)
                0x00524d20                SDL_CDcaps
 .bss           0x00524d60        0x0 C:/Dev/msys/local/lib\libSDL.a(SDL_fatal.o)
 .bss           0x00524d60        0x0 C:/Dev/msys/local/lib\libSDL.a(SDL_rwops.o)
 .bss           0x00524d60        0x0 C:/Dev/msys/local/lib\libSDL.a(SDL_wingl.o)
 .bss           0x00524d60      0x540 C:/Dev/msys/local/lib\libSDL.a(SDL_dibevents.o)
 .bss           0x005252a0     0x1de0 C:/Dev/msys/local/lib\libSDL.a(SDL_mmjoystick.o)
 .bss           0x00527080        0x0 C:/Dev/msys/local/lib\libSDL.a(SDL_nullevents.o)
 .bss           0x00527080        0x0 C:/Dev/msys/local/lib\libSDL.a(SDL_RLEaccel.o)
 .bss           0x00527080        0x0 C:/Dev/msys/local/lib\libSDL.a(SDL_blit.o)
 .bss           0x00527080      0x1a0 C:/Dev/msys/local/lib\libSDL.a(SDL_syscdrom.o)
 .bss           0x00527220        0x0 C:/Dev/msys/local/lib\libSDL.a(SDL_cpuinfo.o)
 .bss           0x00527220        0x0 C:/Dev/msys/local/lib\libSDL.a(SDL_blit_N.o)
 .bss           0x00527220        0x0 C:/Dev/msys/local/lib\libSDL.a(SDL_blit_0.o)
 .bss           0x00527220        0x0 C:/Dev/msys/local/lib\libSDL.a(SDL_blit_1.o)
 .bss           0x00527220        0x0 C:/Dev/msys/local/lib\libSDL.a(SDL_blit_A.o)
 .bss           0x00527220        0x0 c:/Dev/TDM-GCC-32/bin/../lib/gcc/mingw32/5.1.0/../../..\libwinmm.a(dopcs00144.o)
 .bss           0x00527220        0x0 c:/Dev/TDM-GCC-32/bin/../lib/gcc/mingw32/5.1.0/../../..\libwinmm.a(dopcs00148.o)
 .bss           0x00527220        0x0 c:/Dev/TDM-GCC-32/bin/../lib/gcc/mingw32/5.1.0/../../..\libwinmm.a(dopcs00150.o)
 .bss           0x00527220        0x0 c:/Dev/TDM-GCC-32/bin/../lib/gcc/mingw32/5.1.0/../../..\libwinmm.a(dopcs00149.o)
 .bss           0x00527220        0x0 c:/Dev/TDM-GCC-32/bin/../lib/gcc/mingw32/5.1.0/../../..\libwinmm.a(dopcs00145.o)
 .bss           0x00527220        0x0 c:/Dev/TDM-GCC-32/bin/../lib/gcc/mingw32/5.1.0/../../..\libwinmm.a(dopcs00168.o)
 .bss           0x00527220        0x0 c:/Dev/TDM-GCC-32/bin/../lib/gcc/mingw32/5.1.0/../../..\libwinmm.a(dopcs00188.o)
 .bss           0x00527220        0x0 c:/Dev/TDM-GCC-32/bin/../lib/gcc/mingw32/5.1.0/../../..\libwinmm.a(dopcs00189.o)
 .bss           0x00527220        0x0 c:/Dev/TDM-GCC-32/bin/../lib/gcc/mingw32/5.1.0/../../..\libwinmm.a(dopcs00171.o)
 .bss           0x00527220        0x0 c:/Dev/TDM-GCC-32/bin/../lib/gcc/mingw32/5.1.0/../../..\libwinmm.a(dopcs00180.o)
 .bss           0x00527220        0x0 c:/Dev/TDM-GCC-32/bin/../lib/gcc/mingw32/5.1.0/../../..\libwinmm.a(dopcs00182.o)
 .bss           0x00527220        0x0 c:/Dev/TDM-GCC-32/bin/../lib/gcc/mingw32/5.1.0/../../..\libwinmm.a(dopcs00025.o)
 .bss           0x00527220        0x0 c:/Dev/TDM-GCC-32/bin/../lib/gcc/mingw32/5.1.0/../../..\libwinmm.a(dopcs00027.o)
 .bss           0x00527220        0x0 c:/Dev/TDM-GCC-32/bin/../lib/gcc/mingw32/5.1.0/../../..\libwinmm.a(dopcs00023.o)
 .bss           0x00527220        0x0 c:/Dev/TDM-GCC-32/bin/../lib/gcc/mingw32/5.1.0/../../..\libwinmm.a(dopcs00047.o)
 .bss           0x00527220        0x0 c:/Dev/TDM-GCC-32/bin/../lib/gcc/mingw32/5.1.0/../../..\libwinmm.a(dopcs00043.o)
 .bss           0x00527220        0x0 c:/Dev/TDM-GCC-32/bin/../lib/gcc/mingw32/5.1.0/../../..\libwinmm.a(dopch.o)
 .bss           0x00527220        0x0 c:/Dev/TDM-GCC-32/bin/../lib/gcc/mingw32/5.1.0/../../..\libwinmm.a(dopct.o)
 .bss           0x00527220        0x0 c:/Dev/TDM-GCC-32/bin/../lib/gcc/mingw32/5.1.0/../../..\libcomdlg32.a(demds00009.o)
 .bss           0x00527220        0x0 c:/Dev/TDM-GCC-32/bin/../lib/gcc/mingw32/5.1.0/../../..\libcomdlg32.a(demdh.o)
 .bss           0x00527220        0x0 c:/Dev/TDM-GCC-32/bin/../lib/gcc/mingw32/5.1.0/../../..\libcomdlg32.a(demdt.o)
 .bss           0x00527220        0x0 c:/Dev/TDM-GCC-32/bin/../lib/gcc/mingw32/5.1.0/../../..\libgdi32.a(dkfhs00282.o)
 .bss           0x00527220        0x0 c:/Dev/TDM-GCC-32/bin/../lib/gcc/mingw32/5.1.0/../../..\libgdi32.a(dkfhs00034.o)
 .bss           0x00527220        0x0 c:/Dev/TDM-GCC-32/bin/../lib/gcc/mingw32/5.1.0/../../..\libgdi32.a(dkfhs00281.o)
 .bss           0x00527220        0x0 c:/Dev/TDM-GCC-32/bin/../lib/gcc/mingw32/5.1.0/../../..\libgdi32.a(dkfhs00012.o)
 .bss           0x00527220        0x0 c:/Dev/TDM-GCC-32/bin/../lib/gcc/mingw32/5.1.0/../../..\libgdi32.a(dkfhs00070.o)
 .bss           0x00527220        0x0 c:/Dev/TDM-GCC-32/bin/../lib/gcc/mingw32/5.1.0/../../..\libgdi32.a(dkfhs00342.o)
 .bss           0x00527220        0x0 c:/Dev/TDM-GCC-32/bin/../lib/gcc/mingw32/5.1.0/../../..\libgdi32.a(dkfhs00260.o)
 .bss           0x00527220        0x0 c:/Dev/TDM-GCC-32/bin/../lib/gcc/mingw32/5.1.0/../../..\libgdi32.a(dkfhs00320.o)
 .bss           0x00527220        0x0 c:/Dev/TDM-GCC-32/bin/../lib/gcc/mingw32/5.1.0/../../..\libgdi32.a(dkfhs00204.o)
 .bss           0x00527220        0x0 c:/Dev/TDM-GCC-32/bin/../lib/gcc/mingw32/5.1.0/../../..\libgdi32.a(dkfhs00311.o)
 .bss           0x00527220        0x0 c:/Dev/TDM-GCC-32/bin/../lib/gcc/mingw32/5.1.0/../../..\libgdi32.a(dkfhs00295.o)
 .bss           0x00527220        0x0 c:/Dev/TDM-GCC-32/bin/../lib/gcc/mingw32/5.1.0/../../..\libgdi32.a(dkfhs00033.o)
 .bss           0x00527220        0x0 c:/Dev/TDM-GCC-32/bin/../lib/gcc/mingw32/5.1.0/../../..\libgdi32.a(dkfhs00147.o)
 .bss           0x00527220        0x0 c:/Dev/TDM-GCC-32/bin/../lib/gcc/mingw32/5.1.0/../../..\libgdi32.a(dkfhs00073.o)
 .bss           0x00527220        0x0 c:/Dev/TDM-GCC-32/bin/../lib/gcc/mingw32/5.1.0/../../..\libgdi32.a(dkfhs00149.o)
 .bss           0x00527220        0x0 c:/Dev/TDM-GCC-32/bin/../lib/gcc/mingw32/5.1.0/../../..\libgdi32.a(dkfhs00298.o)
 .bss           0x00527220        0x0 c:/Dev/TDM-GCC-32/bin/../lib/gcc/mingw32/5.1.0/../../..\libgdi32.a(dkfhs00203.o)
 .bss           0x00527220        0x0 c:/Dev/TDM-GCC-32/bin/../lib/gcc/mingw32/5.1.0/../../..\libgdi32.a(dkfhs00056.o)
 .bss           0x00527220        0x0 c:/Dev/TDM-GCC-32/bin/../lib/gcc/mingw32/5.1.0/../../..\libgdi32.a(dkfhs00039.o)
 .bss           0x00527220        0x0 c:/Dev/TDM-GCC-32/bin/../lib/gcc/mingw32/5.1.0/../../..\libgdi32.a(dkfhs00015.o)
 .bss           0x00527220        0x0 c:/Dev/TDM-GCC-32/bin/../lib/gcc/mingw32/5.1.0/../../..\libgdi32.a(dkfhs00313.o)
 .bss           0x00527220        0x0 c:/Dev/TDM-GCC-32/bin/../lib/gcc/mingw32/5.1.0/../../..\libgdi32.a(dkfhs00338.o)
 .bss           0x00527220        0x0 c:/Dev/TDM-GCC-32/bin/../lib/gcc/mingw32/5.1.0/../../..\libgdi32.a(dkfhs00074.o)
 .bss           0x00527220        0x0 c:/Dev/TDM-GCC-32/bin/../lib/gcc/mingw32/5.1.0/../../..\libgdi32.a(dkfhh.o)
 .bss           0x00527220        0x0 c:/Dev/TDM-GCC-32/bin/../lib/gcc/mingw32/5.1.0/../../..\libgdi32.a(dkfht.o)
 .bss           0x00527220       0x10 c:/Dev/TDM-GCC-32/bin/../lib/gcc/mingw32/5.1.0/../../..\libmingw32.a(tlssup.o)
                0x00527220                mingw_initltssuo_force
                0x00527224                mingw_initltsdyn_force
                0x00527228                mingw_initltsdrot_force
                0x0052722c                _tls_index
 .bss           0x00527230        0x0 c:/Dev/TDM-GCC-32/bin/../lib/gcc/mingw32/5.1.0/../../..\libmingw32.a(CRTglob.o)
 .bss           0x00527230        0x4 c:/Dev/TDM-GCC-32/bin/../lib/gcc/mingw32/5.1.0/../../..\libmingw32.a(CRTfmode.o)
                0x00527230                _CRT_fmode
 .bss           0x00527234        0x0 c:/Dev/TDM-GCC-32/bin/../lib/gcc/mingw32/5.1.0/../../..\libmingw32.a(txtmode.o)
 .bss           0x00527234        0x4 c:/Dev/TDM-GCC-32/bin/../lib/gcc/mingw32/5.1.0/../../..\libmingw32.a(cpu_features.o)
                0x00527234                __cpu_features
 .bss           0x00527238        0x0 c:/Dev/TDM-GCC-32/bin/../lib/gcc/mingw32/5.1.0/../../..\libmingw32.a(CRT_fp10.o)
 .bss           0x00527238        0x4 c:/Dev/TDM-GCC-32/bin/../lib/gcc/mingw32/5.1.0/../../..\libmingw32.a(pseudo-reloc.o)
 .bss           0x0052723c        0x4 c:/Dev/TDM-GCC-32/bin/../lib/gcc/mingw32/5.1.0/../../..\libmingw32.a(gccmain.o)
 .bss           0x00527240        0x0 c:/Dev/TDM-GCC-32/bin/../lib/gcc/mingw32/5.1.0/../../..\libmingw32.a(main.o)
 .bss           0x00527240        0x4 c:/Dev/TDM-GCC-32/bin/../lib/gcc/mingw32/5.1.0/../../..\libmingw32.a(crtst.o)
                0x00527240                _CRT_MT
 .bss           0x00527244       0x20 c:/Dev/TDM-GCC-32/bin/../lib/gcc/mingw32/5.1.0/../../..\libmingw32.a(tlsthrd.o)
 .bss           0x00527264        0x4 c:/Dev/TDM-GCC-32/bin/../lib/gcc/mingw32/5.1.0/../../..\libmingw32.a(pseudo-reloc-list.o)
 .bss           0x00527268        0x0 c:/Dev/TDM-GCC-32/bin/../lib/gcc/mingw32/5.1.0\libgcc.a(_chkstk_ms.o)
 .bss           0x00527268        0x0 c:/Dev/TDM-GCC-32/bin/../lib/gcc/mingw32/5.1.0\libgcc.a(_divdi3.o)
 .bss           0x00527268        0x0 c:/Dev/TDM-GCC-32/bin/../lib/gcc/mingw32/5.1.0\libgcc.a(_ctors.o)
 .bss           0x00527268        0x0 c:/Dev/TDM-GCC-32/bin/../lib/gcc/mingw32/5.1.0/../../..\libmoldname.a(dofms00097.o)
 .bss           0x00527268        0x0 c:/Dev/TDM-GCC-32/bin/../lib/gcc/mingw32/5.1.0/../../..\libmoldname.a(dofms00037.o)
 .bss           0x00527268        0x0 c:/Dev/TDM-GCC-32/bin/../lib/gcc/mingw32/5.1.0/../../..\libmoldname.a(dofms00081.o)
 .bss           0x00527268        0x0 c:/Dev/TDM-GCC-32/bin/../lib/gcc/mingw32/5.1.0/../../..\libmoldname.a(dofms00058.o)
 .bss           0x00527268        0x0 c:/Dev/TDM-GCC-32/bin/../lib/gcc/mingw32/5.1.0/../../..\libmoldname.a(dofms00064.o)
 .bss           0x00527268        0x0 c:/Dev/TDM-GCC-32/bin/../lib/gcc/mingw32/5.1.0/../../..\libmoldname.a(dofms00006.o)
 .bss           0x00527268        0x0 c:/Dev/TDM-GCC-32/bin/../lib/gcc/mingw32/5.1.0/../../..\libmoldname.a(dofms00109.o)
 .bss           0x00527268        0x0 c:/Dev/TDM-GCC-32/bin/../lib/gcc/mingw32/5.1.0/../../..\libmoldname.a(dofms00080.o)
 .bss           0x00527268        0x0 c:/Dev/TDM-GCC-32/bin/../lib/gcc/mingw32/5.1.0/../../..\libmoldname.a(dofmh.o)
 .bss           0x00527268        0x0 c:/Dev/TDM-GCC-32/bin/../lib/gcc/mingw32/5.1.0/../../..\libmoldname.a(dofmt.o)
 .bss           0x00527268        0x0 c:/Dev/TDM-GCC-32/bin/../lib/gcc/mingw32/5.1.0/../../..\libmingwex.a(vfprintf.o)
 .bss           0x00527268        0x0 c:/Dev/TDM-GCC-32/bin/../lib/gcc/mingw32/5.1.0/../../..\libmingwex.a(vprintf.o)
 .bss           0x00527268        0x0 c:/Dev/TDM-GCC-32/bin/../lib/gcc/mingw32/5.1.0/../../..\libmingwex.a(snprintf.o)
 .bss           0x00527268        0x0 c:/Dev/TDM-GCC-32/bin/../lib/gcc/mingw32/5.1.0/../../..\libmingwex.a(vsnprintf.o)
 .bss           0x00527268        0x0 c:/Dev/TDM-GCC-32/bin/../lib/gcc/mingw32/5.1.0/../../..\libmingwex.a(strtoumax.o)
 .bss           0x00527268        0x0 c:/Dev/TDM-GCC-32/bin/../lib/gcc/mingw32/5.1.0/../../..\libmingwex.a(pformat.o)
 .bss           0x00527268        0x0 c:/Dev/TDM-GCC-32/bin/../lib/gcc/mingw32/5.1.0/../../..\libmingwex.a(gdtoa.o)
 .bss           0x00527268        0x0 c:/Dev/TDM-GCC-32/bin/../lib/gcc/mingw32/5.1.0/../../..\libmingwex.a(wcrtomb.o)
 .bss           0x00527268        0xc c:/Dev/TDM-GCC-32/bin/../lib/gcc/mingw32/5.1.0/../../..\libmingwex.a(mbrtowc.o)
 .bss           0x00527274        0x0 c:/Dev/TDM-GCC-32/bin/../lib/gcc/mingw32/5.1.0/../../..\libmingwex.a(dmisc.o)
 *fill*         0x00527274        0xc 
 .bss           0x00527280      0x9a0 c:/Dev/TDM-GCC-32/bin/../lib/gcc/mingw32/5.1.0/../../..\libmingwex.a(misc.o)
 .bss           0x00527c20        0x0 c:/Dev/TDM-GCC-32/bin/../lib/gcc/mingw32/5.1.0/../../..\libmingwex.a(gmisc.o)
 .bss           0x00527c20        0x0 c:/Dev/TDM-GCC-32/bin/../lib/gcc/mingw32/5.1.0/../../..\libmsvcrt.a(dsnos00266.o)
 .bss           0x00527c20        0x0 c:/Dev/TDM-GCC-32/bin/../lib/gcc/mingw32/5.1.0/../../..\libmsvcrt.a(dsnos00099.o)
 .bss           0x00527c20        0x0 c:/Dev/TDM-GCC-32/bin/../lib/gcc/mingw32/5.1.0/../../..\libmsvcrt.a(dsnos00590.o)
 .bss           0x00527c20        0x0 c:/Dev/TDM-GCC-32/bin/../lib/gcc/mingw32/5.1.0/../../..\libmsvcrt.a(dsnos00383.o)
 .bss           0x00527c20        0x0 c:/Dev/TDM-GCC-32/bin/../lib/gcc/mingw32/5.1.0/../../..\libmsvcrt.a(dsnos00055.o)
 .bss           0x00527c20        0x0 c:/Dev/TDM-GCC-32/bin/../lib/gcc/mingw32/5.1.0/../../..\libmsvcrt.a(dsnos00426.o)
 .bss           0x00527c20        0x0 c:/Dev/TDM-GCC-32/bin/../lib/gcc/mingw32/5.1.0/../../..\libmsvcrt.a(dsnos00079.o)
 .bss           0x00527c20        0x0 c:/Dev/TDM-GCC-32/bin/../lib/gcc/mingw32/5.1.0/../../..\libmsvcrt.a(dsnos00077.o)
 .bss           0x00527c20        0x0 c:/Dev/TDM-GCC-32/bin/../lib/gcc/mingw32/5.1.0/../../..\libmsvcrt.a(dsnos00147.o)
 .bss           0x00527c20        0x0 c:/Dev/TDM-GCC-32/bin/../lib/gcc/mingw32/5.1.0/../../..\libmsvcrt.a(dsnos00706.o)
 .bss           0x00527c20        0x0 c:/Dev/TDM-GCC-32/bin/../lib/gcc/mingw32/5.1.0/../../..\libmsvcrt.a(dsnos00676.o)
 .bss           0x00527c20        0x0 c:/Dev/TDM-GCC-32/bin/../lib/gcc/mingw32/5.1.0/../../..\libmsvcrt.a(dsnos00696.o)
 .bss           0x00527c20        0x0 c:/Dev/TDM-GCC-32/bin/../lib/gcc/mingw32/5.1.0/../../..\libmsvcrt.a(dsnos00625.o)
 .bss           0x00527c20        0x0 c:/Dev/TDM-GCC-32/bin/../lib/gcc/mingw32/5.1.0/../../..\libmsvcrt.a(dsnos00684.o)
 .bss           0x00527c20        0x0 c:/Dev/TDM-GCC-32/bin/../lib/gcc/mingw32/5.1.0/../../..\libmsvcrt.a(dsnos00709.o)
 .bss           0x00527c20        0x0 c:/Dev/TDM-GCC-32/bin/../lib/gcc/mingw32/5.1.0/../../..\libmsvcrt.a(dsnos00624.o)
 .bss           0x00527c20        0x0 c:/Dev/TDM-GCC-32/bin/../lib/gcc/mingw32/5.1.0/../../..\libmsvcrt.a(dsnos00629.o)
 .bss           0x00527c20        0x0 c:/Dev/TDM-GCC-32/bin/../lib/gcc/mingw32/5.1.0/../../..\libmsvcrt.a(dsnos00715.o)
 .bss           0x00527c20        0x0 c:/Dev/TDM-GCC-32/bin/../lib/gcc/mingw32/5.1.0/../../..\libmsvcrt.a(dsnos00618.o)
 .bss           0x00527c20        0x0 c:/Dev/TDM-GCC-32/bin/../lib/gcc/mingw32/5.1.0/../../..\libmsvcrt.a(dsnos00607.o)
 .bss           0x00527c20        0x0 c:/Dev/TDM-GCC-32/bin/../lib/gcc/mingw32/5.1.0/../../..\libmsvcrt.a(dsnos00631.o)
 .bss           0x00527c20        0x0 c:/Dev/TDM-GCC-32/bin/../lib/gcc/mingw32/5.1.0/../../..\libmsvcrt.a(dsnos00721.o)
 .bss           0x00527c20        0x0 c:/Dev/TDM-GCC-32/bin/../lib/gcc/mingw32/5.1.0/../../..\libmsvcrt.a(dsnos00681.o)
 .bss           0x00527c20        0x0 c:/Dev/TDM-GCC-32/bin/../lib/gcc/mingw32/5.1.0/../../..\libmsvcrt.a(dsnos00619.o)
 .bss           0x00527c20        0x0 c:/Dev/TDM-GCC-32/bin/../lib/gcc/mingw32/5.1.0/../../..\libmsvcrt.a(dsnos00633.o)
 .bss           0x00527c20        0x0 c:/Dev/TDM-GCC-32/bin/../lib/gcc/mingw32/5.1.0/../../..\libmsvcrt.a(dsnos00182.o)
 .bss           0x00527c20        0x0 c:/Dev/TDM-GCC-32/bin/../lib/gcc/mingw32/5.1.0/../../..\libmsvcrt.a(dsnos00613.o)
 .bss           0x00527c20        0x0 c:/Dev/TDM-GCC-32/bin/../lib/gcc/mingw32/5.1.0/../../..\libmsvcrt.a(dsnos00714.o)
 .bss           0x00527c20        0x0 c:/Dev/TDM-GCC-32/bin/../lib/gcc/mingw32/5.1.0/../../..\libmsvcrt.a(dsnos00717.o)
 .bss           0x00527c20        0x0 c:/Dev/TDM-GCC-32/bin/../lib/gcc/mingw32/5.1.0/../../..\libmsvcrt.a(dsnos00719.o)
 .bss           0x00527c20        0x0 c:/Dev/TDM-GCC-32/bin/../lib/gcc/mingw32/5.1.0/../../..\libmsvcrt.a(dsnos00451.o)
 .bss           0x00527c20        0x0 c:/Dev/TDM-GCC-32/bin/../lib/gcc/mingw32/5.1.0/../../..\libmsvcrt.a(dsnos00688.o)
 .bss           0x00527c20        0x0 c:/Dev/TDM-GCC-32/bin/../lib/gcc/mingw32/5.1.0/../../..\libmsvcrt.a(dsnos00604.o)
 .bss           0x00527c20        0x0 c:/Dev/TDM-GCC-32/bin/../lib/gcc/mingw32/5.1.0/../../..\libmsvcrt.a(dsnos00772.o)
 .bss           0x00527c20        0x0 c:/Dev/TDM-GCC-32/bin/../lib/gcc/mingw32/5.1.0/../../..\libmsvcrt.a(dsnos00592.o)
 .bss           0x00527c20        0x0 c:/Dev/TDM-GCC-32/bin/../lib/gcc/mingw32/5.1.0/../../..\libmsvcrt.a(dsnos00682.o)
 .bss           0x00527c20        0x0 c:/Dev/TDM-GCC-32/bin/../lib/gcc/mingw32/5.1.0/../../..\libmsvcrt.a(dsnos00317.o)
 .bss           0x00527c20        0x0 c:/Dev/TDM-GCC-32/bin/../lib/gcc/mingw32/5.1.0/../../..\libmsvcrt.a(dsnos00544.o)
 .bss           0x00527c20        0x0 c:/Dev/TDM-GCC-32/bin/../lib/gcc/mingw32/5.1.0/../../..\libmsvcrt.a(dsnos00680.o)
 .bss           0x00527c20        0x0 c:/Dev/TDM-GCC-32/bin/../lib/gcc/mingw32/5.1.0/../../..\libmsvcrt.a(dsnos00728.o)
 .bss           0x00527c20        0x0 c:/Dev/TDM-GCC-32/bin/../lib/gcc/mingw32/5.1.0/../../..\libmsvcrt.a(dsnos00591.o)
 .bss           0x00527c20        0x0 c:/Dev/TDM-GCC-32/bin/../lib/gcc/mingw32/5.1.0/../../..\libmsvcrt.a(dsnos00595.o)
 .bss           0x00527c20        0x0 c:/Dev/TDM-GCC-32/bin/../lib/gcc/mingw32/5.1.0/../../..\libmsvcrt.a(dsnos00179.o)
 .bss           0x00527c20        0x0 c:/Dev/TDM-GCC-32/bin/../lib/gcc/mingw32/5.1.0/../../..\libmsvcrt.a(dsnos00143.o)
 .bss           0x00527c20        0x0 c:/Dev/TDM-GCC-32/bin/../lib/gcc/mingw32/5.1.0/../../..\libmsvcrt.a(dsnos00698.o)
 .bss           0x00527c20        0x0 c:/Dev/TDM-GCC-32/bin/../lib/gcc/mingw32/5.1.0/../../..\libmsvcrt.a(dsnos00695.o)
 .bss           0x00527c20        0x0 c:/Dev/TDM-GCC-32/bin/../lib/gcc/mingw32/5.1.0/../../..\libmsvcrt.a(dsnos00712.o)
 .bss           0x00527c20        0x0 c:/Dev/TDM-GCC-32/bin/../lib/gcc/mingw32/5.1.0/../../..\libmsvcrt.a(dsnos00683.o)
 .bss           0x00527c20        0x0 c:/Dev/TDM-GCC-32/bin/../lib/gcc/mingw32/5.1.0/../../..\libmsvcrt.a(dsnos00748.o)
 .bss           0x00527c20        0x0 c:/Dev/TDM-GCC-32/bin/../lib/gcc/mingw32/5.1.0/../../..\libmsvcrt.a(dsnos00583.o)
 .bss           0x00527c20        0x0 c:/Dev/TDM-GCC-32/bin/../lib/gcc/mingw32/5.1.0/../../..\libmsvcrt.a(dsnos00065.o)
 .bss           0x00527c20        0x0 c:/Dev/TDM-GCC-32/bin/../lib/gcc/mingw32/5.1.0/../../..\libmsvcrt.a(dsnos00392.o)
 .bss           0x00527c20        0x0 c:/Dev/TDM-GCC-32/bin/../lib/gcc/mingw32/5.1.0/../../..\libmsvcrt.a(dsnos00268.o)
 .bss           0x00527c20        0x0 c:/Dev/TDM-GCC-32/bin/../lib/gcc/mingw32/5.1.0/../../..\libmsvcrt.a(dsnos00620.o)
 .bss           0x00527c20        0x0 c:/Dev/TDM-GCC-32/bin/../lib/gcc/mingw32/5.1.0/../../..\libmsvcrt.a(dsnos00671.o)
 .bss           0x00527c20        0x0 c:/Dev/TDM-GCC-32/bin/../lib/gcc/mingw32/5.1.0/../../..\libmsvcrt.a(dsnos00637.o)
 .bss           0x00527c20        0x0 c:/Dev/TDM-GCC-32/bin/../lib/gcc/mingw32/5.1.0/../../..\libmsvcrt.a(ofmt_stub.o)
 .bss           0x00527c20        0x0 c:/Dev/TDM-GCC-32/bin/../lib/gcc/mingw32/5.1.0/../../..\libmsvcrt.a(dsnos00761.o)
 .bss           0x00527c20        0x0 c:/Dev/TDM-GCC-32/bin/../lib/gcc/mingw32/5.1.0/../../..\libmsvcrt.a(dsnos00704.o)
 .bss           0x00527c20        0x0 c:/Dev/TDM-GCC-32/bin/../lib/gcc/mingw32/5.1.0/../../..\libmsvcrt.a(dsnoh.o)
 .bss           0x00527c20        0x0 c:/Dev/TDM-GCC-32/bin/../lib/gcc/mingw32/5.1.0/../../..\libmsvcrt.a(dsnot.o)
 .bss           0x00527c20        0x0 c:/Dev/TDM-GCC-32/bin/../lib/gcc/mingw32/5.1.0/../../..\libadvapi32.a(dgxgs00413.o)
 .bss           0x00527c20        0x0 c:/Dev/TDM-GCC-32/bin/../lib/gcc/mingw32/5.1.0/../../..\libadvapi32.a(dgxgs00423.o)
 .bss           0x00527c20        0x0 c:/Dev/TDM-GCC-32/bin/../lib/gcc/mingw32/5.1.0/../../..\libadvapi32.a(dgxgs00386.o)
 .bss           0x00527c20        0x0 c:/Dev/TDM-GCC-32/bin/../lib/gcc/mingw32/5.1.0/../../..\libadvapi32.a(dgxgh.o)
 .bss           0x00527c20        0x0 c:/Dev/TDM-GCC-32/bin/../lib/gcc/mingw32/5.1.0/../../..\libadvapi32.a(dgxgt.o)
 .bss           0x00527c20        0x0 c:/Dev/TDM-GCC-32/bin/../lib/gcc/mingw32/5.1.0/../../..\libuser32.a(daois00575.o)
 .bss           0x00527c20        0x0 c:/Dev/TDM-GCC-32/bin/../lib/gcc/mingw32/5.1.0/../../..\libuser32.a(daois00574.o)
 .bss           0x00527c20        0x0 c:/Dev/TDM-GCC-32/bin/../lib/gcc/mingw32/5.1.0/../../..\libuser32.a(daois00534.o)
 .bss           0x00527c20        0x0 c:/Dev/TDM-GCC-32/bin/../lib/gcc/mingw32/5.1.0/../../..\libuser32.a(daois00269.o)
 .bss           0x00527c20        0x0 c:/Dev/TDM-GCC-32/bin/../lib/gcc/mingw32/5.1.0/../../..\libuser32.a(daois00598.o)
 .bss           0x00527c20        0x0 c:/Dev/TDM-GCC-32/bin/../lib/gcc/mingw32/5.1.0/../../..\libuser32.a(daois00134.o)
 .bss           0x00527c20        0x0 c:/Dev/TDM-GCC-32/bin/../lib/gcc/mingw32/5.1.0/../../..\libuser32.a(daois00468.o)
 .bss           0x00527c20        0x0 c:/Dev/TDM-GCC-32/bin/../lib/gcc/mingw32/5.1.0/../../..\libuser32.a(daois00348.o)
 .bss           0x00527c20        0x0 c:/Dev/TDM-GCC-32/bin/../lib/gcc/mingw32/5.1.0/../../..\libuser32.a(daois00342.o)
 .bss           0x00527c20        0x0 c:/Dev/TDM-GCC-32/bin/../lib/gcc/mingw32/5.1.0/../../..\libuser32.a(daois00279.o)
 .bss           0x00527c20        0x0 c:/Dev/TDM-GCC-32/bin/../lib/gcc/mingw32/5.1.0/../../..\libuser32.a(daois00001.o)
 .bss           0x00527c20        0x0 c:/Dev/TDM-GCC-32/bin/../lib/gcc/mingw32/5.1.0/../../..\libuser32.a(daois00533.o)
 .bss           0x00527c20        0x0 c:/Dev/TDM-GCC-32/bin/../lib/gcc/mingw32/5.1.0/../../..\libuser32.a(daois00525.o)
 .bss           0x00527c20        0x0 c:/Dev/TDM-GCC-32/bin/../lib/gcc/mingw32/5.1.0/../../..\libuser32.a(daois00236.o)
 .bss           0x00527c20        0x0 c:/Dev/TDM-GCC-32/bin/../lib/gcc/mingw32/5.1.0/../../..\libuser32.a(daois00059.o)
 .bss           0x00527c20        0x0 c:/Dev/TDM-GCC-32/bin/../lib/gcc/mingw32/5.1.0/../../..\libuser32.a(daois00011.o)
 .bss           0x00527c20        0x0 c:/Dev/TDM-GCC-32/bin/../lib/gcc/mingw32/5.1.0/../../..\libuser32.a(daois00184.o)
 .bss           0x00527c20        0x0 c:/Dev/TDM-GCC-32/bin/../lib/gcc/mingw32/5.1.0/../../..\libuser32.a(daois00398.o)
 .bss           0x00527c20        0x0 c:/Dev/TDM-GCC-32/bin/../lib/gcc/mingw32/5.1.0/../../..\libuser32.a(daois00060.o)
 .bss           0x00527c20        0x0 c:/Dev/TDM-GCC-32/bin/../lib/gcc/mingw32/5.1.0/../../..\libuser32.a(daois00517.o)
 .bss           0x00527c20        0x0 c:/Dev/TDM-GCC-32/bin/../lib/gcc/mingw32/5.1.0/../../..\libuser32.a(daois00493.o)
 .bss           0x00527c20        0x0 c:/Dev/TDM-GCC-32/bin/../lib/gcc/mingw32/5.1.0/../../..\libuser32.a(daois00585.o)
 .bss           0x00527c20        0x0 c:/Dev/TDM-GCC-32/bin/../lib/gcc/mingw32/5.1.0/../../..\libuser32.a(daois00029.o)
 .bss           0x00527c20        0x0 c:/Dev/TDM-GCC-32/bin/../lib/gcc/mingw32/5.1.0/../../..\libuser32.a(daois00563.o)
 .bss           0x00527c20        0x0 c:/Dev/TDM-GCC-32/bin/../lib/gcc/mingw32/5.1.0/../../..\libuser32.a(daois00431.o)
 .bss           0x00527c20        0x0 c:/Dev/TDM-GCC-32/bin/../lib/gcc/mingw32/5.1.0/../../..\libuser32.a(daois00247.o)
 .bss           0x00527c20        0x0 c:/Dev/TDM-GCC-32/bin/../lib/gcc/mingw32/5.1.0/../../..\libuser32.a(daois00474.o)
 .bss           0x00527c20        0x0 c:/Dev/TDM-GCC-32/bin/../lib/gcc/mingw32/5.1.0/../../..\libuser32.a(daois00635.o)
 .bss           0x00527c20        0x0 c:/Dev/TDM-GCC-32/bin/../lib/gcc/mingw32/5.1.0/../../..\libuser32.a(daois00400.o)
 .bss           0x00527c20        0x0 c:/Dev/TDM-GCC-32/bin/../lib/gcc/mingw32/5.1.0/../../..\libuser32.a(daois00466.o)
 .bss           0x00527c20        0x0 c:/Dev/TDM-GCC-32/bin/../lib/gcc/mingw32/5.1.0/../../..\libuser32.a(daois00608.o)
 .bss           0x00527c20        0x0 c:/Dev/TDM-GCC-32/bin/../lib/gcc/mingw32/5.1.0/../../..\libuser32.a(daois00149.o)
 .bss           0x00527c20        0x0 c:/Dev/TDM-GCC-32/bin/../lib/gcc/mingw32/5.1.0/../../..\libuser32.a(daois00464.o)
 .bss           0x00527c20        0x0 c:/Dev/TDM-GCC-32/bin/../lib/gcc/mingw32/5.1.0/../../..\libuser32.a(daois00411.o)
 .bss           0x00527c20        0x0 c:/Dev/TDM-GCC-32/bin/../lib/gcc/mingw32/5.1.0/../../..\libuser32.a(daois00479.o)
 .bss           0x00527c20        0x0 c:/Dev/TDM-GCC-32/bin/../lib/gcc/mingw32/5.1.0/../../..\libuser32.a(daois00599.o)
 .bss           0x00527c20        0x0 c:/Dev/TDM-GCC-32/bin/../lib/gcc/mingw32/5.1.0/../../..\libuser32.a(daois00227.o)
 .bss           0x00527c20        0x0 c:/Dev/TDM-GCC-32/bin/../lib/gcc/mingw32/5.1.0/../../..\libuser32.a(daois00615.o)
 .bss           0x00527c20        0x0 c:/Dev/TDM-GCC-32/bin/../lib/gcc/mingw32/5.1.0/../../..\libuser32.a(daois00245.o)
 .bss           0x00527c20        0x0 c:/Dev/TDM-GCC-32/bin/../lib/gcc/mingw32/5.1.0/../../..\libuser32.a(daois00141.o)
 .bss           0x00527c20        0x0 c:/Dev/TDM-GCC-32/bin/../lib/gcc/mingw32/5.1.0/../../..\libuser32.a(daois00326.o)
 .bss           0x00527c20        0x0 c:/Dev/TDM-GCC-32/bin/../lib/gcc/mingw32/5.1.0/../../..\libuser32.a(daois00075.o)
 .bss           0x00527c20        0x0 c:/Dev/TDM-GCC-32/bin/../lib/gcc/mingw32/5.1.0/../../..\libuser32.a(daois00526.o)
 .bss           0x00527c20        0x0 c:/Dev/TDM-GCC-32/bin/../lib/gcc/mingw32/5.1.0/../../..\libuser32.a(daois00500.o)
 .bss           0x00527c20        0x0 c:/Dev/TDM-GCC-32/bin/../lib/gcc/mingw32/5.1.0/../../..\libuser32.a(daois00248.o)
 .bss           0x00527c20        0x0 c:/Dev/TDM-GCC-32/bin/../lib/gcc/mingw32/5.1.0/../../..\libuser32.a(daois00494.o)
 .bss           0x00527c20        0x0 c:/Dev/TDM-GCC-32/bin/../lib/gcc/mingw32/5.1.0/../../..\libuser32.a(daois00370.o)
 .bss           0x00527c20        0x0 c:/Dev/TDM-GCC-32/bin/../lib/gcc/mingw32/5.1.0/../../..\libuser32.a(daois00194.o)
 .bss           0x00527c20        0x0 c:/Dev/TDM-GCC-32/bin/../lib/gcc/mingw32/5.1.0/../../..\libuser32.a(daois00002.o)
 .bss           0x00527c20        0x0 c:/Dev/TDM-GCC-32/bin/../lib/gcc/mingw32/5.1.0/../../..\libuser32.a(daois00572.o)
 .bss           0x00527c20        0x0 c:/Dev/TDM-GCC-32/bin/../lib/gcc/mingw32/5.1.0/../../..\libuser32.a(daois00304.o)
 .bss           0x00527c20        0x0 c:/Dev/TDM-GCC-32/bin/../lib/gcc/mingw32/5.1.0/../../..\libuser32.a(daois00569.o)
 .bss           0x00527c20        0x0 c:/Dev/TDM-GCC-32/bin/../lib/gcc/mingw32/5.1.0/../../..\libuser32.a(daois00142.o)
 .bss           0x00527c20        0x0 c:/Dev/TDM-GCC-32/bin/../lib/gcc/mingw32/5.1.0/../../..\libuser32.a(daois00084.o)
 .bss           0x00527c20        0x0 c:/Dev/TDM-GCC-32/bin/../lib/gcc/mingw32/5.1.0/../../..\libuser32.a(daois00520.o)
 .bss           0x00527c20        0x0 c:/Dev/TDM-GCC-32/bin/../lib/gcc/mingw32/5.1.0/../../..\libuser32.a(daois00090.o)
 .bss           0x00527c20        0x0 c:/Dev/TDM-GCC-32/bin/../lib/gcc/mingw32/5.1.0/../../..\libuser32.a(daois00144.o)
 .bss           0x00527c20        0x0 c:/Dev/TDM-GCC-32/bin/../lib/gcc/mingw32/5.1.0/../../..\libuser32.a(daois00273.o)
 .bss           0x00527c20        0x0 c:/Dev/TDM-GCC-32/bin/../lib/gcc/mingw32/5.1.0/../../..\libuser32.a(daois00428.o)
 .bss           0x00527c20        0x0 c:/Dev/TDM-GCC-32/bin/../lib/gcc/mingw32/5.1.0/../../..\libuser32.a(daois00024.o)
 .bss           0x00527c20        0x0 c:/Dev/TDM-GCC-32/bin/../lib/gcc/mingw32/5.1.0/../../..\libuser32.a(daois00268.o)
 .bss           0x00527c20        0x0 c:/Dev/TDM-GCC-32/bin/../lib/gcc/mingw32/5.1.0/../../..\libuser32.a(daois00293.o)
 .bss           0x00527c20        0x0 c:/Dev/TDM-GCC-32/bin/../lib/gcc/mingw32/5.1.0/../../..\libuser32.a(daois00271.o)
 .bss           0x00527c20        0x0 c:/Dev/TDM-GCC-32/bin/../lib/gcc/mingw32/5.1.0/../../..\libuser32.a(daois00413.o)
 .bss           0x00527c20        0x0 c:/Dev/TDM-GCC-32/bin/../lib/gcc/mingw32/5.1.0/../../..\libuser32.a(daoih.o)
 .bss           0x00527c20        0x0 c:/Dev/TDM-GCC-32/bin/../lib/gcc/mingw32/5.1.0/../../..\libuser32.a(daoit.o)
 .bss           0x00527c20        0x0 c:/Dev/TDM-GCC-32/bin/../lib/gcc/mingw32/5.1.0/../../..\libkernel32.a(dchds01140.o)
 .bss           0x00527c20        0x0 c:/Dev/TDM-GCC-32/bin/../lib/gcc/mingw32/5.1.0/../../..\libkernel32.a(dchds00279.o)
 .bss           0x00527c20        0x0 c:/Dev/TDM-GCC-32/bin/../lib/gcc/mingw32/5.1.0/../../..\libkernel32.a(dchds00529.o)
 .bss           0x00527c20        0x0 c:/Dev/TDM-GCC-32/bin/../lib/gcc/mingw32/5.1.0/../../..\libkernel32.a(dchds00577.o)
 .bss           0x00527c20        0x0 c:/Dev/TDM-GCC-32/bin/../lib/gcc/mingw32/5.1.0/../../..\libkernel32.a(dchds00923.o)
 .bss           0x00527c20        0x0 c:/Dev/TDM-GCC-32/bin/../lib/gcc/mingw32/5.1.0/../../..\libkernel32.a(dchds00922.o)
 .bss           0x00527c20        0x0 c:/Dev/TDM-GCC-32/bin/../lib/gcc/mingw32/5.1.0/../../..\libkernel32.a(dchds01152.o)
 .bss           0x00527c20        0x0 c:/Dev/TDM-GCC-32/bin/../lib/gcc/mingw32/5.1.0/../../..\libkernel32.a(dchds00169.o)
 .bss           0x00527c20        0x0 c:/Dev/TDM-GCC-32/bin/../lib/gcc/mingw32/5.1.0/../../..\libkernel32.a(dchds00082.o)
 .bss           0x00527c20        0x0 c:/Dev/TDM-GCC-32/bin/../lib/gcc/mingw32/5.1.0/../../..\libkernel32.a(dchds01223.o)
 .bss           0x00527c20        0x0 c:/Dev/TDM-GCC-32/bin/../lib/gcc/mingw32/5.1.0/../../..\libkernel32.a(dchds00743.o)
 .bss           0x00527c20        0x0 c:/Dev/TDM-GCC-32/bin/../lib/gcc/mingw32/5.1.0/../../..\libkernel32.a(dchds00747.o)
 .bss           0x00527c20        0x0 c:/Dev/TDM-GCC-32/bin/../lib/gcc/mingw32/5.1.0/../../..\libkernel32.a(dchds00978.o)
 .bss           0x00527c20        0x0 c:/Dev/TDM-GCC-32/bin/../lib/gcc/mingw32/5.1.0/../../..\libkernel32.a(dchds00860.o)
 .bss           0x00527c20        0x0 c:/Dev/TDM-GCC-32/bin/../lib/gcc/mingw32/5.1.0/../../..\libkernel32.a(dchds00358.o)
 .bss           0x00527c20        0x0 c:/Dev/TDM-GCC-32/bin/../lib/gcc/mingw32/5.1.0/../../..\libkernel32.a(dchds00512.o)
 .bss           0x00527c20        0x0 c:/Dev/TDM-GCC-32/bin/../lib/gcc/mingw32/5.1.0/../../..\libkernel32.a(dchds00671.o)
 .bss           0x00527c20        0x0 c:/Dev/TDM-GCC-32/bin/../lib/gcc/mingw32/5.1.0/../../..\libkernel32.a(dchds00450.o)
 .bss           0x00527c20        0x0 c:/Dev/TDM-GCC-32/bin/../lib/gcc/mingw32/5.1.0/../../..\libkernel32.a(dchds01129.o)
 .bss           0x00527c20        0x0 c:/Dev/TDM-GCC-32/bin/../lib/gcc/mingw32/5.1.0/../../..\libkernel32.a(dchds00451.o)
 .bss           0x00527c20        0x0 c:/Dev/TDM-GCC-32/bin/../lib/gcc/mingw32/5.1.0/../../..\libkernel32.a(dchds01167.o)
 .bss           0x00527c20        0x0 c:/Dev/TDM-GCC-32/bin/../lib/gcc/mingw32/5.1.0/../../..\libkernel32.a(dchds00154.o)
 .bss           0x00527c20        0x0 c:/Dev/TDM-GCC-32/bin/../lib/gcc/mingw32/5.1.0/../../..\libkernel32.a(dchds00974.o)
 .bss           0x00527c20        0x0 c:/Dev/TDM-GCC-32/bin/../lib/gcc/mingw32/5.1.0/../../..\libkernel32.a(dchds01062.o)
 .bss           0x00527c20        0x0 c:/Dev/TDM-GCC-32/bin/../lib/gcc/mingw32/5.1.0/../../..\libkernel32.a(dchds00473.o)
 .bss           0x00527c20        0x0 c:/Dev/TDM-GCC-32/bin/../lib/gcc/mingw32/5.1.0/../../..\libkernel32.a(dchds01247.o)
 .bss           0x00527c20        0x0 c:/Dev/TDM-GCC-32/bin/../lib/gcc/mingw32/5.1.0/../../..\libkernel32.a(dchds01078.o)
 .bss           0x00527c20        0x0 c:/Dev/TDM-GCC-32/bin/../lib/gcc/mingw32/5.1.0/../../..\libkernel32.a(dchds01267.o)
 .bss           0x00527c20        0x0 c:/Dev/TDM-GCC-32/bin/../lib/gcc/mingw32/5.1.0/../../..\libkernel32.a(dchds00947.o)
 .bss           0x00527c20        0x0 c:/Dev/TDM-GCC-32/bin/../lib/gcc/mingw32/5.1.0/../../..\libkernel32.a(dchds01064.o)
 .bss           0x00527c20        0x0 c:/Dev/TDM-GCC-32/bin/../lib/gcc/mingw32/5.1.0/../../..\libkernel32.a(dchds00142.o)
 .bss           0x00527c20        0x0 c:/Dev/TDM-GCC-32/bin/../lib/gcc/mingw32/5.1.0/../../..\libkernel32.a(dchds00135.o)
 .bss           0x00527c20        0x0 c:/Dev/TDM-GCC-32/bin/../lib/gcc/mingw32/5.1.0/../../..\libkernel32.a(dchds00352.o)
 .bss           0x00527c20        0x0 c:/Dev/TDM-GCC-32/bin/../lib/gcc/mingw32/5.1.0/../../..\libkernel32.a(dchds00817.o)
 .bss           0x00527c20        0x0 c:/Dev/TDM-GCC-32/bin/../lib/gcc/mingw32/5.1.0/../../..\libkernel32.a(dchds00464.o)
 .bss           0x00527c20        0x0 c:/Dev/TDM-GCC-32/bin/../lib/gcc/mingw32/5.1.0/../../..\libkernel32.a(dchds01215.o)
 .bss           0x00527c20        0x0 c:/Dev/TDM-GCC-32/bin/../lib/gcc/mingw32/5.1.0/../../..\libkernel32.a(dchds01213.o)
 .bss           0x00527c20        0x0 c:/Dev/TDM-GCC-32/bin/../lib/gcc/mingw32/5.1.0/../../..\libkernel32.a(dchds00388.o)
 .bss           0x00527c20        0x0 c:/Dev/TDM-GCC-32/bin/../lib/gcc/mingw32/5.1.0/../../..\libkernel32.a(dchds00606.o)
 .bss           0x00527c20        0x0 c:/Dev/TDM-GCC-32/bin/../lib/gcc/mingw32/5.1.0/../../..\libkernel32.a(dchds00236.o)
 .bss           0x00527c20        0x0 c:/Dev/TDM-GCC-32/bin/../lib/gcc/mingw32/5.1.0/../../..\libkernel32.a(dchds01173.o)
 .bss           0x00527c20        0x0 c:/Dev/TDM-GCC-32/bin/../lib/gcc/mingw32/5.1.0/../../..\libkernel32.a(dchds00510.o)
 .bss           0x00527c20        0x0 c:/Dev/TDM-GCC-32/bin/../lib/gcc/mingw32/5.1.0/../../..\libkernel32.a(dchds00814.o)
 .bss           0x00527c20        0x0 c:/Dev/TDM-GCC-32/bin/../lib/gcc/mingw32/5.1.0/../../..\libkernel32.a(dchds00207.o)
 .bss           0x00527c20        0x0 c:/Dev/TDM-GCC-32/bin/../lib/gcc/mingw32/5.1.0/../../..\libkernel32.a(dchds00734.o)
 .bss           0x00527c20        0x0 c:/Dev/TDM-GCC-32/bin/../lib/gcc/mingw32/5.1.0/../../..\libkernel32.a(dchds00763.o)
 .bss           0x00527c20        0x0 c:/Dev/TDM-GCC-32/bin/../lib/gcc/mingw32/5.1.0/../../..\libkernel32.a(dchds00744.o)
 .bss           0x00527c20        0x0 c:/Dev/TDM-GCC-32/bin/../lib/gcc/mingw32/5.1.0/../../..\libkernel32.a(dchdh.o)
 .bss           0x00527c20        0x0 c:/Dev/TDM-GCC-32/bin/../lib/gcc/mingw32/5.1.0/../../..\libkernel32.a(dchdt.o)
 .bss           0x00527c20        0x0 c:/Dev/TDM-GCC-32/bin/../lib/gcc/mingw32/5.1.0\libgcc.a(_udivdi3.o)
 .bss           0x00527c20        0x0 c:/Dev/TDM-GCC-32/bin/../lib/gcc/mingw32/5.1.0\libgcc.a(_umoddi3.o)
 .bss           0x00527c20        0x0 c:/Dev/TDM-GCC-32/bin/../lib/gcc/mingw32/5.1.0/crtend.o
 *(COMMON)
 COMMON         0x00527c20       0xd4 obj/z80.oa
                0x00527c20                sram
                0x00527c3c                z80_ICount
                0x00527c40                sn
 *fill*         0x00527cf4        0xc 
 COMMON         0x00527d00   0x41217d obj/genesis.o
                0x00527d00                gen_running
                0x00527d20                work_ram
                0x00537d20                CycloneCPU
                0x00537de0                cart_rom
                0x00937de0                zram
                0x00939de0                zbank
                0x00939de4                total_cycles
                0x00939de8                zbusreq
                0x00939de9                zreset
                0x00939dea                zbusack
                0x00939e00                DrZ80CPU
                0x00939e7c                zirq
 *fill*         0x00939e7d        0x3 
 COMMON         0x00939e80    0x92da4 obj/vdp.o
                0x00939e80                _x_
                0x00939ea0                vdp
                0x0094a408                vc_table
                0x0094a420                bg
 *fill*         0x009ccc24       0x1c 
 COMMON         0x009ccc40   0x12eee0 obj/render.o
                0x009ccc40                _align_11
                0x009ccc44                lut_base
                0x009ccc48                _align_1
                0x009ccc4c                object_index_count
                0x009ccc60                pixel_32_lut
                0x009ce460                pixel_16
                0x009ce660                RenderLine
                0x009ce664                lut
                0x009ce680                Buffer
                0x00a64680                Cache
                0x00afa680                object_info
                0x00afa720                name_lut
                0x00afab20                pixel_32
                0x00afaf20                pixel_16_lut
 COMMON         0x00afbb20     0x5ee8 obj/system.o
                0x00afbb20                snd
                0x00afbb50                la
                0x00afbb60                bitmap
                0x00afbba0                pcmbuffer
                0x00afcb40                pcmstep
                0x00afcb60                input
                0x00afcbe0                sndbuffer
                0x00afeb20                sndfmbuffer
                0x00b00a60                sndpsgbuffer
                0x00b01a00                lines_per_frame
                0x00b01a04                ra
 COMMON         0x00b01a08        0xc obj/loadrom.o
                0x00b01a08                flag_usa
                0x00b01a09                vdp_rate
                0x00b01a0a                flag_japan
                0x00b01a0b                hw
                0x00b01a0c                hardware
                0x00b01a0d                flag_europe
                0x00b01a10                rom_size
 COMMON         0x00b01a14       0x28 obj/mio.o
                0x00b01a14                io_reg
                0x00b01a24                port
 COMMON         0x00b01a3c        0x2 obj/mem68k_c.o
                0x00b01a3c                fake_bus
 *fill*         0x00b01a3e        0x2 
 COMMON         0x00b01a40       0x84 obj/state.o
                0x00b01a40                cyc_state
                0x00b01ac0                dummy
 *fill*         0x00b01ac4       0x1c 
 COMMON         0x00b01ae0      0x230 obj/sound.o
                0x00b01ae0                fm_tat
                0x00b01ae4                fm_ta
                0x00b01ae8                fm_tb
                0x00b01ae9                fm_addr
                0x00b01aec                fm_mode
                0x00b01b00                fm_regs
                0x00b01d00                fm_tbc
                0x00b01d04                fm_status
                0x00b01d08                fm_tbt
                0x00b01d0c                fm_tac
 *fill*         0x00b01d10       0x10 
 COMMON         0x00b01d20     0x339c obj/fm.o
                0x00b01d20                y_dacout
                0x00b01d40                ym2612
                0x00b050b8                y_dacen
 *fill*         0x00b050bc        0x4 
 COMMON         0x00b050c0    0x903e4 obj/main.o
                0x00b050c0                ToolbarHeight
                0x00b050c4                DrawLine
                0x00b050c8                acc_ft
                0x00b050e0                tzones
                0x00b05104                sfiles
                0x00b05110                int_ft
                0x00b05120                ScreenCache
                0x00b37120                sound_sem
                0x00b37124                UpdateToolbar
                0x00b37140                RomName
                0x00b37248                s_t
                0x00b37260                temp_tzones
                0x00b37284                HandleMouseButton
                0x00b372a0                tempname
                0x00b373a8                e_t
                0x00b373b0                t_res
                0x00b373c0                RomDir
                0x00b374e0                RomPath
                0x00b37600                ofn
                0x00b37660                AltToolbar
                0x00b5ce60                SaveDir
                0x00b5cf68                p_c
                0x00b5cf70                screen
                0x00b5cf74                PrepareToolbar
                0x00b5cf80                ConfigDir
                0x00b5d0a0                Toolbar
                0x00b828a0                Map
                0x00b954a0                num_blocks
 COMMON         0x00b954a4       0x10 obj/error.o
                0x00b954a4                t_error
                0x00b954b0                error_log
 *fill*         0x00b954b4        0xc 
 COMMON         0x00b954c0    0x262a0 obj/msg.o
                0x00b954c0                messages
                0x00b95f60                MsgBuf
 COMMON         0x00bbb760        0x8 m68k/m68k.oa(m68kcpu.o)
                0x00bbb760                m68ki_initial_cycles
                0x00bbb764                m68ki_address_space
 *fill*         0x00bbb768       0x18 
 COMMON         0x00bbb780    0x70000 m68k/m68k.oa(m68kops.o)
                0x00bbb780                m68ki_instruction_jump_table
                0x00bfb780                m68ki_cycles
 COMMON         0x00c2b780      0x164 C:/Dev/msys/local/lib\libSDL.a(SDL_sysevents.o)
                0x00c2b780                SDL_fullscreen_mode
                0x00c2b81c                WIN_RealizePalette
                0x00c2b820                WIN_PaletteChanged
                0x00c2b840                SDL_desktop_mode
                0x00c2b8dc                WIN_WinPAINT
                0x00c2b8e0                WIN_Activate
 *fill*         0x00c2b8e4       0x1c 
 COMMON         0x00c2b900       0x20 C:/Dev/msys/local/lib\libSDL.a(SDL_events.o)
                0x00c2b900                SDL_ProcessEvents
 COMMON         0x00c2b920        0x4 C:/Dev/msys/local/lib\libSDL.a(SDL_timer.o)
                0x00c2b920                SDL_alarm_callback
 *fill*         0x00c2b924       0x1c 
 COMMON         0x00c2b940       0x24 C:/Dev/msys/local/lib\libSDL.a(SDL_keyboard.o)
                0x00c2b940                SDL_KeyRepeat
 COMMON         0x00c2b964        0x4 C:/Dev/msys/local/lib\libSDL.a(SDL_cdrom.o)
                0x00c2b964                SDL_numcds
 COMMON         0x00c2b968       0x10 c:/Dev/TDM-GCC-32/bin/../lib/gcc/mingw32/5.1.0\libgcc.a(_ctors.o)
                0x00c2b978                __bss_end__ = .

.edata          0x00c2c000     0x1200
 *(.edata)
 .edata         0x00c2c000     0x11da dll stuff

/DISCARD/
 *(.debug$S)
 *(.debug$T)
 *(.debug$F)
 *(.drectve)
 *(.note.GNU-stack)
 *(.gnu.lto_*)

.idata          0x00c2e000     0x1a00
 SORT(*)(.idata$2)
 .idata$2       0x00c2e000       0x14 c:/Dev/TDM-GCC-32/bin/../lib/gcc/mingw32/5.1.0/../../..\libadvapi32.a(dgxgh.o)
                0x00c2e000                _head_libadvapi32_a
 .idata$2       0x00c2e014       0x14 c:/Dev/TDM-GCC-32/bin/../lib/gcc/mingw32/5.1.0/../../..\libcomdlg32.a(demdh.o)
                0x00c2e014                _head_libcomdlg32_a
 .idata$2       0x00c2e028       0x14 c:/Dev/TDM-GCC-32/bin/../lib/gcc/mingw32/5.1.0/../../..\libgdi32.a(dkfhh.o)
                0x00c2e028                _head_libgdi32_a
 .idata$2       0x00c2e03c       0x14 c:/Dev/TDM-GCC-32/bin/../lib/gcc/mingw32/5.1.0/../../..\libkernel32.a(dchdh.o)
                0x00c2e03c                _head_libkernel32_a
 .idata$2       0x00c2e050       0x14 c:/Dev/TDM-GCC-32/bin/../lib/gcc/mingw32/5.1.0/../../..\libmoldname.a(dofmh.o)
                0x00c2e050                _head_libmoldname_a
 .idata$2       0x00c2e064       0x14 c:/Dev/TDM-GCC-32/bin/../lib/gcc/mingw32/5.1.0/../../..\libmsvcrt.a(dsnoh.o)
                0x00c2e064                _head_libmsvcrt_a
 .idata$2       0x00c2e078       0x14 c:/Dev/TDM-GCC-32/bin/../lib/gcc/mingw32/5.1.0/../../..\libuser32.a(daoih.o)
                0x00c2e078                _head_libuser32_a
 .idata$2       0x00c2e08c       0x14 c:/Dev/TDM-GCC-32/bin/../lib/gcc/mingw32/5.1.0/../../..\libwinmm.a(dopch.o)
                0x00c2e08c                _head_libwinmm_a
 SORT(*)(.idata$3)
                0x00c2e0a0        0x4 LONG 0x0
                0x00c2e0a4        0x4 LONG 0x0
                0x00c2e0a8        0x4 LONG 0x0
                0x00c2e0ac        0x4 LONG 0x0
                0x00c2e0b0        0x4 LONG 0x0
 SORT(*)(.idata$4)
 .idata$4       0x00c2e0b4        0x0 c:/Dev/TDM-GCC-32/bin/../lib/gcc/mingw32/5.1.0/../../..\libadvapi32.a(dgxgh.o)
 .idata$4       0x00c2e0b4        0x4 c:/Dev/TDM-GCC-32/bin/../lib/gcc/mingw32/5.1.0/../../..\libadvapi32.a(dgxgs00386.o)
 .idata$4       0x00c2e0b8        0x4 c:/Dev/TDM-GCC-32/bin/../lib/gcc/mingw32/5.1.0/../../..\libadvapi32.a(dgxgs00413.o)
 .idata$4       0x00c2e0bc        0x4 c:/Dev/TDM-GCC-32/bin/../lib/gcc/mingw32/5.1.0/../../..\libadvapi32.a(dgxgs00423.o)
 .idata$4       0x00c2e0c0        0x4 c:/Dev/TDM-GCC-32/bin/../lib/gcc/mingw32/5.1.0/../../..\libadvapi32.a(dgxgt.o)
 .idata$4       0x00c2e0c4        0x0 c:/Dev/TDM-GCC-32/bin/../lib/gcc/mingw32/5.1.0/../../..\libcomdlg32.a(demdh.o)
 .idata$4       0x00c2e0c4        0x4 c:/Dev/TDM-GCC-32/bin/../lib/gcc/mingw32/5.1.0/../../..\libcomdlg32.a(demds00009.o)
 .idata$4       0x00c2e0c8        0x4 c:/Dev/TDM-GCC-32/bin/../lib/gcc/mingw32/5.1.0/../../..\libcomdlg32.a(demdt.o)
 .idata$4       0x00c2e0cc        0x0 c:/Dev/TDM-GCC-32/bin/../lib/gcc/mingw32/5.1.0/../../..\libgdi32.a(dkfhh.o)
 .idata$4       0x00c2e0cc        0x4 c:/Dev/TDM-GCC-32/bin/../lib/gcc/mingw32/5.1.0/../../..\libgdi32.a(dkfhs00012.o)
 .idata$4       0x00c2e0d0        0x4 c:/Dev/TDM-GCC-32/bin/../lib/gcc/mingw32/5.1.0/../../..\libgdi32.a(dkfhs00015.o)
 .idata$4       0x00c2e0d4        0x4 c:/Dev/TDM-GCC-32/bin/../lib/gcc/mingw32/5.1.0/../../..\libgdi32.a(dkfhs00033.o)
 .idata$4       0x00c2e0d8        0x4 c:/Dev/TDM-GCC-32/bin/../lib/gcc/mingw32/5.1.0/../../..\libgdi32.a(dkfhs00034.o)
 .idata$4       0x00c2e0dc        0x4 c:/Dev/TDM-GCC-32/bin/../lib/gcc/mingw32/5.1.0/../../..\libgdi32.a(dkfhs00039.o)
 .idata$4       0x00c2e0e0        0x4 c:/Dev/TDM-GCC-32/bin/../lib/gcc/mingw32/5.1.0/../../..\libgdi32.a(dkfhs00056.o)
 .idata$4       0x00c2e0e4        0x4 c:/Dev/TDM-GCC-32/bin/../lib/gcc/mingw32/5.1.0/../../..\libgdi32.a(dkfhs00070.o)
 .idata$4       0x00c2e0e8        0x4 c:/Dev/TDM-GCC-32/bin/../lib/gcc/mingw32/5.1.0/../../..\libgdi32.a(dkfhs00073.o)
 .idata$4       0x00c2e0ec        0x4 c:/Dev/TDM-GCC-32/bin/../lib/gcc/mingw32/5.1.0/../../..\libgdi32.a(dkfhs00074.o)
 .idata$4       0x00c2e0f0        0x4 c:/Dev/TDM-GCC-32/bin/../lib/gcc/mingw32/5.1.0/../../..\libgdi32.a(dkfhs00147.o)
 .idata$4       0x00c2e0f4        0x4 c:/Dev/TDM-GCC-32/bin/../lib/gcc/mingw32/5.1.0/../../..\libgdi32.a(dkfhs00149.o)
 .idata$4       0x00c2e0f8        0x4 c:/Dev/TDM-GCC-32/bin/../lib/gcc/mingw32/5.1.0/../../..\libgdi32.a(dkfhs00203.o)
 .idata$4       0x00c2e0fc        0x4 c:/Dev/TDM-GCC-32/bin/../lib/gcc/mingw32/5.1.0/../../..\libgdi32.a(dkfhs00204.o)
 .idata$4       0x00c2e100        0x4 c:/Dev/TDM-GCC-32/bin/../lib/gcc/mingw32/5.1.0/../../..\libgdi32.a(dkfhs00260.o)
 .idata$4       0x00c2e104        0x4 c:/Dev/TDM-GCC-32/bin/../lib/gcc/mingw32/5.1.0/../../..\libgdi32.a(dkfhs00281.o)
 .idata$4       0x00c2e108        0x4 c:/Dev/TDM-GCC-32/bin/../lib/gcc/mingw32/5.1.0/../../..\libgdi32.a(dkfhs00282.o)
 .idata$4       0x00c2e10c        0x4 c:/Dev/TDM-GCC-32/bin/../lib/gcc/mingw32/5.1.0/../../..\libgdi32.a(dkfhs00295.o)
 .idata$4       0x00c2e110        0x4 c:/Dev/TDM-GCC-32/bin/../lib/gcc/mingw32/5.1.0/../../..\libgdi32.a(dkfhs00298.o)
 .idata$4       0x00c2e114        0x4 c:/Dev/TDM-GCC-32/bin/../lib/gcc/mingw32/5.1.0/../../..\libgdi32.a(dkfhs00311.o)
 .idata$4       0x00c2e118        0x4 c:/Dev/TDM-GCC-32/bin/../lib/gcc/mingw32/5.1.0/../../..\libgdi32.a(dkfhs00313.o)
 .idata$4       0x00c2e11c        0x4 c:/Dev/TDM-GCC-32/bin/../lib/gcc/mingw32/5.1.0/../../..\libgdi32.a(dkfhs00320.o)
 .idata$4       0x00c2e120        0x4 c:/Dev/TDM-GCC-32/bin/../lib/gcc/mingw32/5.1.0/../../..\libgdi32.a(dkfhs00338.o)
 .idata$4       0x00c2e124        0x4 c:/Dev/TDM-GCC-32/bin/../lib/gcc/mingw32/5.1.0/../../..\libgdi32.a(dkfhs00342.o)
 .idata$4       0x00c2e128        0x4 c:/Dev/TDM-GCC-32/bin/../lib/gcc/mingw32/5.1.0/../../..\libgdi32.a(dkfht.o)
 .idata$4       0x00c2e12c        0x0 c:/Dev/TDM-GCC-32/bin/../lib/gcc/mingw32/5.1.0/../../..\libkernel32.a(dchdh.o)
 .idata$4       0x00c2e12c        0x4 c:/Dev/TDM-GCC-32/bin/../lib/gcc/mingw32/5.1.0/../../..\libkernel32.a(dchds00082.o)
 .idata$4       0x00c2e130        0x4 c:/Dev/TDM-GCC-32/bin/../lib/gcc/mingw32/5.1.0/../../..\libkernel32.a(dchds00135.o)
 .idata$4       0x00c2e134        0x4 c:/Dev/TDM-GCC-32/bin/../lib/gcc/mingw32/5.1.0/../../..\libkernel32.a(dchds00142.o)
 .idata$4       0x00c2e138        0x4 c:/Dev/TDM-GCC-32/bin/../lib/gcc/mingw32/5.1.0/../../..\libkernel32.a(dchds00154.o)
 .idata$4       0x00c2e13c        0x4 c:/Dev/TDM-GCC-32/bin/../lib/gcc/mingw32/5.1.0/../../..\libkernel32.a(dchds00169.o)
 .idata$4       0x00c2e140        0x4 c:/Dev/TDM-GCC-32/bin/../lib/gcc/mingw32/5.1.0/../../..\libkernel32.a(dchds00207.o)
 .idata$4       0x00c2e144        0x4 c:/Dev/TDM-GCC-32/bin/../lib/gcc/mingw32/5.1.0/../../..\libkernel32.a(dchds00236.o)
 .idata$4       0x00c2e148        0x4 c:/Dev/TDM-GCC-32/bin/../lib/gcc/mingw32/5.1.0/../../..\libkernel32.a(dchds00279.o)
 .idata$4       0x00c2e14c        0x4 c:/Dev/TDM-GCC-32/bin/../lib/gcc/mingw32/5.1.0/../../..\libkernel32.a(dchds00352.o)
 .idata$4       0x00c2e150        0x4 c:/Dev/TDM-GCC-32/bin/../lib/gcc/mingw32/5.1.0/../../..\libkernel32.a(dchds00358.o)
 .idata$4       0x00c2e154        0x4 c:/Dev/TDM-GCC-32/bin/../lib/gcc/mingw32/5.1.0/../../..\libkernel32.a(dchds00388.o)
 .idata$4       0x00c2e158        0x4 c:/Dev/TDM-GCC-32/bin/../lib/gcc/mingw32/5.1.0/../../..\libkernel32.a(dchds00450.o)
 .idata$4       0x00c2e15c        0x4 c:/Dev/TDM-GCC-32/bin/../lib/gcc/mingw32/5.1.0/../../..\libkernel32.a(dchds00451.o)
 .idata$4       0x00c2e160        0x4 c:/Dev/TDM-GCC-32/bin/../lib/gcc/mingw32/5.1.0/../../..\libkernel32.a(dchds00464.o)
 .idata$4       0x00c2e164        0x4 c:/Dev/TDM-GCC-32/bin/../lib/gcc/mingw32/5.1.0/../../..\libkernel32.a(dchds00473.o)
 .idata$4       0x00c2e168        0x4 c:/Dev/TDM-GCC-32/bin/../lib/gcc/mingw32/5.1.0/../../..\libkernel32.a(dchds00510.o)
 .idata$4       0x00c2e16c        0x4 c:/Dev/TDM-GCC-32/bin/../lib/gcc/mingw32/5.1.0/../../..\libkernel32.a(dchds00512.o)
 .idata$4       0x00c2e170        0x4 c:/Dev/TDM-GCC-32/bin/../lib/gcc/mingw32/5.1.0/../../..\libkernel32.a(dchds00529.o)
 .idata$4       0x00c2e174        0x4 c:/Dev/TDM-GCC-32/bin/../lib/gcc/mingw32/5.1.0/../../..\libkernel32.a(dchds00577.o)
 .idata$4       0x00c2e178        0x4 c:/Dev/TDM-GCC-32/bin/../lib/gcc/mingw32/5.1.0/../../..\libkernel32.a(dchds00606.o)
 .idata$4       0x00c2e17c        0x4 c:/Dev/TDM-GCC-32/bin/../lib/gcc/mingw32/5.1.0/../../..\libkernel32.a(dchds00671.o)
 .idata$4       0x00c2e180        0x4 c:/Dev/TDM-GCC-32/bin/../lib/gcc/mingw32/5.1.0/../../..\libkernel32.a(dchds00734.o)
 .idata$4       0x00c2e184        0x4 c:/Dev/TDM-GCC-32/bin/../lib/gcc/mingw32/5.1.0/../../..\libkernel32.a(dchds00743.o)
 .idata$4       0x00c2e188        0x4 c:/Dev/TDM-GCC-32/bin/../lib/gcc/mingw32/5.1.0/../../..\libkernel32.a(dchds00744.o)
 .idata$4       0x00c2e18c        0x4 c:/Dev/TDM-GCC-32/bin/../lib/gcc/mingw32/5.1.0/../../..\libkernel32.a(dchds00747.o)
 .idata$4       0x00c2e190        0x4 c:/Dev/TDM-GCC-32/bin/../lib/gcc/mingw32/5.1.0/../../..\libkernel32.a(dchds00763.o)
 .idata$4       0x00c2e194        0x4 c:/Dev/TDM-GCC-32/bin/../lib/gcc/mingw32/5.1.0/../../..\libkernel32.a(dchds00814.o)
 .idata$4       0x00c2e198        0x4 c:/Dev/TDM-GCC-32/bin/../lib/gcc/mingw32/5.1.0/../../..\libkernel32.a(dchds00817.o)
 .idata$4       0x00c2e19c        0x4 c:/Dev/TDM-GCC-32/bin/../lib/gcc/mingw32/5.1.0/../../..\libkernel32.a(dchds00860.o)
 .idata$4       0x00c2e1a0        0x4 c:/Dev/TDM-GCC-32/bin/../lib/gcc/mingw32/5.1.0/../../..\libkernel32.a(dchds00922.o)
 .idata$4       0x00c2e1a4        0x4 c:/Dev/TDM-GCC-32/bin/../lib/gcc/mingw32/5.1.0/../../..\libkernel32.a(dchds00923.o)
 .idata$4       0x00c2e1a8        0x4 c:/Dev/TDM-GCC-32/bin/../lib/gcc/mingw32/5.1.0/../../..\libkernel32.a(dchds00947.o)
 .idata$4       0x00c2e1ac        0x4 c:/Dev/TDM-GCC-32/bin/../lib/gcc/mingw32/5.1.0/../../..\libkernel32.a(dchds00974.o)
 .idata$4       0x00c2e1b0        0x4 c:/Dev/TDM-GCC-32/bin/../lib/gcc/mingw32/5.1.0/../../..\libkernel32.a(dchds00978.o)
 .idata$4       0x00c2e1b4        0x4 c:/Dev/TDM-GCC-32/bin/../lib/gcc/mingw32/5.1.0/../../..\libkernel32.a(dchds01062.o)
 .idata$4       0x00c2e1b8        0x4 c:/Dev/TDM-GCC-32/bin/../lib/gcc/mingw32/5.1.0/../../..\libkernel32.a(dchds01064.o)
 .idata$4       0x00c2e1bc        0x4 c:/Dev/TDM-GCC-32/bin/../lib/gcc/mingw32/5.1.0/../../..\libkernel32.a(dchds01078.o)
 .idata$4       0x00c2e1c0        0x4 c:/Dev/TDM-GCC-32/bin/../lib/gcc/mingw32/5.1.0/../../..\libkernel32.a(dchds01129.o)
 .idata$4       0x00c2e1c4        0x4 c:/Dev/TDM-GCC-32/bin/../lib/gcc/mingw32/5.1.0/../../..\libkernel32.a(dchds01140.o)
 .idata$4       0x00c2e1c8        0x4 c:/Dev/TDM-GCC-32/bin/../lib/gcc/mingw32/5.1.0/../../..\libkernel32.a(dchds01152.o)
 .idata$4       0x00c2e1cc        0x4 c:/Dev/TDM-GCC-32/bin/../lib/gcc/mingw32/5.1.0/../../..\libkernel32.a(dchds01167.o)
 .idata$4       0x00c2e1d0        0x4 c:/Dev/TDM-GCC-32/bin/../lib/gcc/mingw32/5.1.0/../../..\libkernel32.a(dchds01173.o)
 .idata$4       0x00c2e1d4        0x4 c:/Dev/TDM-GCC-32/bin/../lib/gcc/mingw32/5.1.0/../../..\libkernel32.a(dchds01213.o)
 .idata$4       0x00c2e1d8        0x4 c:/Dev/TDM-GCC-32/bin/../lib/gcc/mingw32/5.1.0/../../..\libkernel32.a(dchds01215.o)
 .idata$4       0x00c2e1dc        0x4 c:/Dev/TDM-GCC-32/bin/../lib/gcc/mingw32/5.1.0/../../..\libkernel32.a(dchds01223.o)
 .idata$4       0x00c2e1e0        0x4 c:/Dev/TDM-GCC-32/bin/../lib/gcc/mingw32/5.1.0/../../..\libkernel32.a(dchds01247.o)
 .idata$4       0x00c2e1e4        0x4 c:/Dev/TDM-GCC-32/bin/../lib/gcc/mingw32/5.1.0/../../..\libkernel32.a(dchds01267.o)
 .idata$4       0x00c2e1e8        0x4 c:/Dev/TDM-GCC-32/bin/../lib/gcc/mingw32/5.1.0/../../..\libkernel32.a(dchdt.o)
 .idata$4       0x00c2e1ec        0x0 c:/Dev/TDM-GCC-32/bin/../lib/gcc/mingw32/5.1.0/../../..\libmoldname.a(dofmh.o)
 .idata$4       0x00c2e1ec        0x4 c:/Dev/TDM-GCC-32/bin/../lib/gcc/mingw32/5.1.0/../../..\libmoldname.a(dofms00006.o)
 .idata$4       0x00c2e1f0        0x4 c:/Dev/TDM-GCC-32/bin/../lib/gcc/mingw32/5.1.0/../../..\libmoldname.a(dofms00037.o)
 .idata$4       0x00c2e1f4        0x4 c:/Dev/TDM-GCC-32/bin/../lib/gcc/mingw32/5.1.0/../../..\libmoldname.a(dofms00058.o)
 .idata$4       0x00c2e1f8        0x4 c:/Dev/TDM-GCC-32/bin/../lib/gcc/mingw32/5.1.0/../../..\libmoldname.a(dofms00064.o)
 .idata$4       0x00c2e1fc        0x4 c:/Dev/TDM-GCC-32/bin/../lib/gcc/mingw32/5.1.0/../../..\libmoldname.a(dofms00080.o)
 .idata$4       0x00c2e200        0x4 c:/Dev/TDM-GCC-32/bin/../lib/gcc/mingw32/5.1.0/../../..\libmoldname.a(dofms00081.o)
 .idata$4       0x00c2e204        0x4 c:/Dev/TDM-GCC-32/bin/../lib/gcc/mingw32/5.1.0/../../..\libmoldname.a(dofms00097.o)
 .idata$4       0x00c2e208        0x4 c:/Dev/TDM-GCC-32/bin/../lib/gcc/mingw32/5.1.0/../../..\libmoldname.a(dofms00109.o)
 .idata$4       0x00c2e20c        0x4 c:/Dev/TDM-GCC-32/bin/../lib/gcc/mingw32/5.1.0/../../..\libmoldname.a(dofmt.o)
 .idata$4       0x00c2e210        0x0 c:/Dev/TDM-GCC-32/bin/../lib/gcc/mingw32/5.1.0/../../..\libmsvcrt.a(dsnoh.o)
 .idata$4       0x00c2e210        0x4 c:/Dev/TDM-GCC-32/bin/../lib/gcc/mingw32/5.1.0/../../..\libmsvcrt.a(dsnos00055.o)
 .idata$4       0x00c2e214        0x4 c:/Dev/TDM-GCC-32/bin/../lib/gcc/mingw32/5.1.0/../../..\libmsvcrt.a(dsnos00065.o)
 .idata$4       0x00c2e218        0x4 c:/Dev/TDM-GCC-32/bin/../lib/gcc/mingw32/5.1.0/../../..\libmsvcrt.a(dsnos00077.o)
 .idata$4       0x00c2e21c        0x4 c:/Dev/TDM-GCC-32/bin/../lib/gcc/mingw32/5.1.0/../../..\libmsvcrt.a(dsnos00079.o)
 .idata$4       0x00c2e220        0x4 c:/Dev/TDM-GCC-32/bin/../lib/gcc/mingw32/5.1.0/../../..\libmsvcrt.a(dsnos00099.o)
 .idata$4       0x00c2e224        0x4 c:/Dev/TDM-GCC-32/bin/../lib/gcc/mingw32/5.1.0/../../..\libmsvcrt.a(dsnos00143.o)
 .idata$4       0x00c2e228        0x4 c:/Dev/TDM-GCC-32/bin/../lib/gcc/mingw32/5.1.0/../../..\libmsvcrt.a(dsnos00147.o)
 .idata$4       0x00c2e22c        0x4 c:/Dev/TDM-GCC-32/bin/../lib/gcc/mingw32/5.1.0/../../..\libmsvcrt.a(dsnos00179.o)
 .idata$4       0x00c2e230        0x4 c:/Dev/TDM-GCC-32/bin/../lib/gcc/mingw32/5.1.0/../../..\libmsvcrt.a(dsnos00182.o)
 .idata$4       0x00c2e234        0x4 c:/Dev/TDM-GCC-32/bin/../lib/gcc/mingw32/5.1.0/../../..\libmsvcrt.a(dsnos00266.o)
 .idata$4       0x00c2e238        0x4 c:/Dev/TDM-GCC-32/bin/../lib/gcc/mingw32/5.1.0/../../..\libmsvcrt.a(dsnos00268.o)
 .idata$4       0x00c2e23c        0x4 c:/Dev/TDM-GCC-32/bin/../lib/gcc/mingw32/5.1.0/../../..\libmsvcrt.a(dsnos00317.o)
 .idata$4       0x00c2e240        0x4 c:/Dev/TDM-GCC-32/bin/../lib/gcc/mingw32/5.1.0/../../..\libmsvcrt.a(dsnos00383.o)
 .idata$4       0x00c2e244        0x4 c:/Dev/TDM-GCC-32/bin/../lib/gcc/mingw32/5.1.0/../../..\libmsvcrt.a(dsnos00392.o)
 .idata$4       0x00c2e248        0x4 c:/Dev/TDM-GCC-32/bin/../lib/gcc/mingw32/5.1.0/../../..\libmsvcrt.a(dsnos00426.o)
 .idata$4       0x00c2e24c        0x4 c:/Dev/TDM-GCC-32/bin/../lib/gcc/mingw32/5.1.0/../../..\libmsvcrt.a(dsnos00451.o)
 .idata$4       0x00c2e250        0x4 c:/Dev/TDM-GCC-32/bin/../lib/gcc/mingw32/5.1.0/../../..\libmsvcrt.a(dsnos00544.o)
 .idata$4       0x00c2e254        0x4 c:/Dev/TDM-GCC-32/bin/../lib/gcc/mingw32/5.1.0/../../..\libmsvcrt.a(dsnos00583.o)
 .idata$4       0x00c2e258        0x4 c:/Dev/TDM-GCC-32/bin/../lib/gcc/mingw32/5.1.0/../../..\libmsvcrt.a(dsnos00590.o)
 .idata$4       0x00c2e25c        0x4 c:/Dev/TDM-GCC-32/bin/../lib/gcc/mingw32/5.1.0/../../..\libmsvcrt.a(dsnos00591.o)
 .idata$4       0x00c2e260        0x4 c:/Dev/TDM-GCC-32/bin/../lib/gcc/mingw32/5.1.0/../../..\libmsvcrt.a(dsnos00592.o)
 .idata$4       0x00c2e264        0x4 c:/Dev/TDM-GCC-32/bin/../lib/gcc/mingw32/5.1.0/../../..\libmsvcrt.a(dsnos00595.o)
 .idata$4       0x00c2e268        0x4 c:/Dev/TDM-GCC-32/bin/../lib/gcc/mingw32/5.1.0/../../..\libmsvcrt.a(dsnos00604.o)
 .idata$4       0x00c2e26c        0x4 c:/Dev/TDM-GCC-32/bin/../lib/gcc/mingw32/5.1.0/../../..\libmsvcrt.a(dsnos00607.o)
 .idata$4       0x00c2e270        0x4 c:/Dev/TDM-GCC-32/bin/../lib/gcc/mingw32/5.1.0/../../..\libmsvcrt.a(dsnos00613.o)
 .idata$4       0x00c2e274        0x4 c:/Dev/TDM-GCC-32/bin/../lib/gcc/mingw32/5.1.0/../../..\libmsvcrt.a(dsnos00618.o)
 .idata$4       0x00c2e278        0x4 c:/Dev/TDM-GCC-32/bin/../lib/gcc/mingw32/5.1.0/../../..\libmsvcrt.a(dsnos00619.o)
 .idata$4       0x00c2e27c        0x4 c:/Dev/TDM-GCC-32/bin/../lib/gcc/mingw32/5.1.0/../../..\libmsvcrt.a(dsnos00620.o)
 .idata$4       0x00c2e280        0x4 c:/Dev/TDM-GCC-32/bin/../lib/gcc/mingw32/5.1.0/../../..\libmsvcrt.a(dsnos00624.o)
 .idata$4       0x00c2e284        0x4 c:/Dev/TDM-GCC-32/bin/../lib/gcc/mingw32/5.1.0/../../..\libmsvcrt.a(dsnos00625.o)
 .idata$4       0x00c2e288        0x4 c:/Dev/TDM-GCC-32/bin/../lib/gcc/mingw32/5.1.0/../../..\libmsvcrt.a(dsnos00629.o)
 .idata$4       0x00c2e28c        0x4 c:/Dev/TDM-GCC-32/bin/../lib/gcc/mingw32/5.1.0/../../..\libmsvcrt.a(dsnos00631.o)
 .idata$4       0x00c2e290        0x4 c:/Dev/TDM-GCC-32/bin/../lib/gcc/mingw32/5.1.0/../../..\libmsvcrt.a(dsnos00633.o)
 .idata$4       0x00c2e294        0x4 c:/Dev/TDM-GCC-32/bin/../lib/gcc/mingw32/5.1.0/../../..\libmsvcrt.a(dsnos00637.o)
 .idata$4       0x00c2e298        0x4 c:/Dev/TDM-GCC-32/bin/../lib/gcc/mingw32/5.1.0/../../..\libmsvcrt.a(dsnos00671.o)
 .idata$4       0x00c2e29c        0x4 c:/Dev/TDM-GCC-32/bin/../lib/gcc/mingw32/5.1.0/../../..\libmsvcrt.a(dsnos00676.o)
 .idata$4       0x00c2e2a0        0x4 c:/Dev/TDM-GCC-32/bin/../lib/gcc/mingw32/5.1.0/../../..\libmsvcrt.a(dsnos00680.o)
 .idata$4       0x00c2e2a4        0x4 c:/Dev/TDM-GCC-32/bin/../lib/gcc/mingw32/5.1.0/../../..\libmsvcrt.a(dsnos00681.o)
 .idata$4       0x00c2e2a8        0x4 c:/Dev/TDM-GCC-32/bin/../lib/gcc/mingw32/5.1.0/../../..\libmsvcrt.a(dsnos00682.o)
 .idata$4       0x00c2e2ac        0x4 c:/Dev/TDM-GCC-32/bin/../lib/gcc/mingw32/5.1.0/../../..\libmsvcrt.a(dsnos00683.o)
 .idata$4       0x00c2e2b0        0x4 c:/Dev/TDM-GCC-32/bin/../lib/gcc/mingw32/5.1.0/../../..\libmsvcrt.a(dsnos00684.o)
 .idata$4       0x00c2e2b4        0x4 c:/Dev/TDM-GCC-32/bin/../lib/gcc/mingw32/5.1.0/../../..\libmsvcrt.a(dsnos00688.o)
 .idata$4       0x00c2e2b8        0x4 c:/Dev/TDM-GCC-32/bin/../lib/gcc/mingw32/5.1.0/../../..\libmsvcrt.a(dsnos00695.o)
 .idata$4       0x00c2e2bc        0x4 c:/Dev/TDM-GCC-32/bin/../lib/gcc/mingw32/5.1.0/../../..\libmsvcrt.a(dsnos00696.o)
 .idata$4       0x00c2e2c0        0x4 c:/Dev/TDM-GCC-32/bin/../lib/gcc/mingw32/5.1.0/../../..\libmsvcrt.a(dsnos00698.o)
 .idata$4       0x00c2e2c4        0x4 c:/Dev/TDM-GCC-32/bin/../lib/gcc/mingw32/5.1.0/../../..\libmsvcrt.a(dsnos00704.o)
 .idata$4       0x00c2e2c8        0x4 c:/Dev/TDM-GCC-32/bin/../lib/gcc/mingw32/5.1.0/../../..\libmsvcrt.a(dsnos00706.o)
 .idata$4       0x00c2e2cc        0x4 c:/Dev/TDM-GCC-32/bin/../lib/gcc/mingw32/5.1.0/../../..\libmsvcrt.a(dsnos00709.o)
 .idata$4       0x00c2e2d0        0x4 c:/Dev/TDM-GCC-32/bin/../lib/gcc/mingw32/5.1.0/../../..\libmsvcrt.a(dsnos00712.o)
 .idata$4       0x00c2e2d4        0x4 c:/Dev/TDM-GCC-32/bin/../lib/gcc/mingw32/5.1.0/../../..\libmsvcrt.a(dsnos00714.o)
 .idata$4       0x00c2e2d8        0x4 c:/Dev/TDM-GCC-32/bin/../lib/gcc/mingw32/5.1.0/../../..\libmsvcrt.a(dsnos00715.o)
 .idata$4       0x00c2e2dc        0x4 c:/Dev/TDM-GCC-32/bin/../lib/gcc/mingw32/5.1.0/../../..\libmsvcrt.a(dsnos00717.o)
 .idata$4       0x00c2e2e0        0x4 c:/Dev/TDM-GCC-32/bin/../lib/gcc/mingw32/5.1.0/../../..\libmsvcrt.a(dsnos00719.o)
 .idata$4       0x00c2e2e4        0x4 c:/Dev/TDM-GCC-32/bin/../lib/gcc/mingw32/5.1.0/../../..\libmsvcrt.a(dsnos00721.o)
 .idata$4       0x00c2e2e8        0x4 c:/Dev/TDM-GCC-32/bin/../lib/gcc/mingw32/5.1.0/../../..\libmsvcrt.a(dsnos00728.o)
 .idata$4       0x00c2e2ec        0x4 c:/Dev/TDM-GCC-32/bin/../lib/gcc/mingw32/5.1.0/../../..\libmsvcrt.a(dsnos00748.o)
 .idata$4       0x00c2e2f0        0x4 c:/Dev/TDM-GCC-32/bin/../lib/gcc/mingw32/5.1.0/../../..\libmsvcrt.a(dsnos00761.o)
 .idata$4       0x00c2e2f4        0x4 c:/Dev/TDM-GCC-32/bin/../lib/gcc/mingw32/5.1.0/../../..\libmsvcrt.a(dsnos00772.o)
 .idata$4       0x00c2e2f8        0x4 c:/Dev/TDM-GCC-32/bin/../lib/gcc/mingw32/5.1.0/../../..\libmsvcrt.a(dsnot.o)
 .idata$4       0x00c2e2fc        0x0 c:/Dev/TDM-GCC-32/bin/../lib/gcc/mingw32/5.1.0/../../..\libuser32.a(daoih.o)
 .idata$4       0x00c2e2fc        0x4 c:/Dev/TDM-GCC-32/bin/../lib/gcc/mingw32/5.1.0/../../..\libuser32.a(daois00001.o)
 .idata$4       0x00c2e300        0x4 c:/Dev/TDM-GCC-32/bin/../lib/gcc/mingw32/5.1.0/../../..\libuser32.a(daois00002.o)
 .idata$4       0x00c2e304        0x4 c:/Dev/TDM-GCC-32/bin/../lib/gcc/mingw32/5.1.0/../../..\libuser32.a(daois00011.o)
 .idata$4       0x00c2e308        0x4 c:/Dev/TDM-GCC-32/bin/../lib/gcc/mingw32/5.1.0/../../..\libuser32.a(daois00024.o)
 .idata$4       0x00c2e30c        0x4 c:/Dev/TDM-GCC-32/bin/../lib/gcc/mingw32/5.1.0/../../..\libuser32.a(daois00029.o)
 .idata$4       0x00c2e310        0x4 c:/Dev/TDM-GCC-32/bin/../lib/gcc/mingw32/5.1.0/../../..\libuser32.a(daois00059.o)
 .idata$4       0x00c2e314        0x4 c:/Dev/TDM-GCC-32/bin/../lib/gcc/mingw32/5.1.0/../../..\libuser32.a(daois00060.o)
 .idata$4       0x00c2e318        0x4 c:/Dev/TDM-GCC-32/bin/../lib/gcc/mingw32/5.1.0/../../..\libuser32.a(daois00075.o)
 .idata$4       0x00c2e31c        0x4 c:/Dev/TDM-GCC-32/bin/../lib/gcc/mingw32/5.1.0/../../..\libuser32.a(daois00084.o)
 .idata$4       0x00c2e320        0x4 c:/Dev/TDM-GCC-32/bin/../lib/gcc/mingw32/5.1.0/../../..\libuser32.a(daois00090.o)
 .idata$4       0x00c2e324        0x4 c:/Dev/TDM-GCC-32/bin/../lib/gcc/mingw32/5.1.0/../../..\libuser32.a(daois00134.o)
 .idata$4       0x00c2e328        0x4 c:/Dev/TDM-GCC-32/bin/../lib/gcc/mingw32/5.1.0/../../..\libuser32.a(daois00141.o)
 .idata$4       0x00c2e32c        0x4 c:/Dev/TDM-GCC-32/bin/../lib/gcc/mingw32/5.1.0/../../..\libuser32.a(daois00142.o)
 .idata$4       0x00c2e330        0x4 c:/Dev/TDM-GCC-32/bin/../lib/gcc/mingw32/5.1.0/../../..\libuser32.a(daois00144.o)
 .idata$4       0x00c2e334        0x4 c:/Dev/TDM-GCC-32/bin/../lib/gcc/mingw32/5.1.0/../../..\libuser32.a(daois00149.o)
 .idata$4       0x00c2e338        0x4 c:/Dev/TDM-GCC-32/bin/../lib/gcc/mingw32/5.1.0/../../..\libuser32.a(daois00184.o)
 .idata$4       0x00c2e33c        0x4 c:/Dev/TDM-GCC-32/bin/../lib/gcc/mingw32/5.1.0/../../..\libuser32.a(daois00194.o)
 .idata$4       0x00c2e340        0x4 c:/Dev/TDM-GCC-32/bin/../lib/gcc/mingw32/5.1.0/../../..\libuser32.a(daois00227.o)
 .idata$4       0x00c2e344        0x4 c:/Dev/TDM-GCC-32/bin/../lib/gcc/mingw32/5.1.0/../../..\libuser32.a(daois00236.o)
 .idata$4       0x00c2e348        0x4 c:/Dev/TDM-GCC-32/bin/../lib/gcc/mingw32/5.1.0/../../..\libuser32.a(daois00245.o)
 .idata$4       0x00c2e34c        0x4 c:/Dev/TDM-GCC-32/bin/../lib/gcc/mingw32/5.1.0/../../..\libuser32.a(daois00247.o)
 .idata$4       0x00c2e350        0x4 c:/Dev/TDM-GCC-32/bin/../lib/gcc/mingw32/5.1.0/../../..\libuser32.a(daois00248.o)
 .idata$4       0x00c2e354        0x4 c:/Dev/TDM-GCC-32/bin/../lib/gcc/mingw32/5.1.0/../../..\libuser32.a(daois00268.o)
 .idata$4       0x00c2e358        0x4 c:/Dev/TDM-GCC-32/bin/../lib/gcc/mingw32/5.1.0/../../..\libuser32.a(daois00269.o)
 .idata$4       0x00c2e35c        0x4 c:/Dev/TDM-GCC-32/bin/../lib/gcc/mingw32/5.1.0/../../..\libuser32.a(daois00271.o)
 .idata$4       0x00c2e360        0x4 c:/Dev/TDM-GCC-32/bin/../lib/gcc/mingw32/5.1.0/../../..\libuser32.a(daois00273.o)
 .idata$4       0x00c2e364        0x4 c:/Dev/TDM-GCC-32/bin/../lib/gcc/mingw32/5.1.0/../../..\libuser32.a(daois00279.o)
 .idata$4       0x00c2e368        0x4 c:/Dev/TDM-GCC-32/bin/../lib/gcc/mingw32/5.1.0/../../..\libuser32.a(daois00293.o)
 .idata$4       0x00c2e36c        0x4 c:/Dev/TDM-GCC-32/bin/../lib/gcc/mingw32/5.1.0/../../..\libuser32.a(daois00304.o)
 .idata$4       0x00c2e370        0x4 c:/Dev/TDM-GCC-32/bin/../lib/gcc/mingw32/5.1.0/../../..\libuser32.a(daois00326.o)
 .idata$4       0x00c2e374        0x4 c:/Dev/TDM-GCC-32/bin/../lib/gcc/mingw32/5.1.0/../../..\libuser32.a(daois00342.o)
 .idata$4       0x00c2e378        0x4 c:/Dev/TDM-GCC-32/bin/../lib/gcc/mingw32/5.1.0/../../..\libuser32.a(daois00348.o)
 .idata$4       0x00c2e37c        0x4 c:/Dev/TDM-GCC-32/bin/../lib/gcc/mingw32/5.1.0/../../..\libuser32.a(daois00370.o)
 .idata$4       0x00c2e380        0x4 c:/Dev/TDM-GCC-32/bin/../lib/gcc/mingw32/5.1.0/../../..\libuser32.a(daois00398.o)
 .idata$4       0x00c2e384        0x4 c:/Dev/TDM-GCC-32/bin/../lib/gcc/mingw32/5.1.0/../../..\libuser32.a(daois00400.o)
 .idata$4       0x00c2e388        0x4 c:/Dev/TDM-GCC-32/bin/../lib/gcc/mingw32/5.1.0/../../..\libuser32.a(daois00411.o)
 .idata$4       0x00c2e38c        0x4 c:/Dev/TDM-GCC-32/bin/../lib/gcc/mingw32/5.1.0/../../..\libuser32.a(daois00413.o)
 .idata$4       0x00c2e390        0x4 c:/Dev/TDM-GCC-32/bin/../lib/gcc/mingw32/5.1.0/../../..\libuser32.a(daois00428.o)
 .idata$4       0x00c2e394        0x4 c:/Dev/TDM-GCC-32/bin/../lib/gcc/mingw32/5.1.0/../../..\libuser32.a(daois00431.o)
 .idata$4       0x00c2e398        0x4 c:/Dev/TDM-GCC-32/bin/../lib/gcc/mingw32/5.1.0/../../..\libuser32.a(daois00464.o)
 .idata$4       0x00c2e39c        0x4 c:/Dev/TDM-GCC-32/bin/../lib/gcc/mingw32/5.1.0/../../..\libuser32.a(daois00466.o)
 .idata$4       0x00c2e3a0        0x4 c:/Dev/TDM-GCC-32/bin/../lib/gcc/mingw32/5.1.0/../../..\libuser32.a(daois00468.o)
 .idata$4       0x00c2e3a4        0x4 c:/Dev/TDM-GCC-32/bin/../lib/gcc/mingw32/5.1.0/../../..\libuser32.a(daois00474.o)
 .idata$4       0x00c2e3a8        0x4 c:/Dev/TDM-GCC-32/bin/../lib/gcc/mingw32/5.1.0/../../..\libuser32.a(daois00479.o)
 .idata$4       0x00c2e3ac        0x4 c:/Dev/TDM-GCC-32/bin/../lib/gcc/mingw32/5.1.0/../../..\libuser32.a(daois00493.o)
 .idata$4       0x00c2e3b0        0x4 c:/Dev/TDM-GCC-32/bin/../lib/gcc/mingw32/5.1.0/../../..\libuser32.a(daois00494.o)
 .idata$4       0x00c2e3b4        0x4 c:/Dev/TDM-GCC-32/bin/../lib/gcc/mingw32/5.1.0/../../..\libuser32.a(daois00500.o)
 .idata$4       0x00c2e3b8        0x4 c:/Dev/TDM-GCC-32/bin/../lib/gcc/mingw32/5.1.0/../../..\libuser32.a(daois00517.o)
 .idata$4       0x00c2e3bc        0x4 c:/Dev/TDM-GCC-32/bin/../lib/gcc/mingw32/5.1.0/../../..\libuser32.a(daois00520.o)
 .idata$4       0x00c2e3c0        0x4 c:/Dev/TDM-GCC-32/bin/../lib/gcc/mingw32/5.1.0/../../..\libuser32.a(daois00525.o)
 .idata$4       0x00c2e3c4        0x4 c:/Dev/TDM-GCC-32/bin/../lib/gcc/mingw32/5.1.0/../../..\libuser32.a(daois00526.o)
 .idata$4       0x00c2e3c8        0x4 c:/Dev/TDM-GCC-32/bin/../lib/gcc/mingw32/5.1.0/../../..\libuser32.a(daois00533.o)
 .idata$4       0x00c2e3cc        0x4 c:/Dev/TDM-GCC-32/bin/../lib/gcc/mingw32/5.1.0/../../..\libuser32.a(daois00534.o)
 .idata$4       0x00c2e3d0        0x4 c:/Dev/TDM-GCC-32/bin/../lib/gcc/mingw32/5.1.0/../../..\libuser32.a(daois00563.o)
 .idata$4       0x00c2e3d4        0x4 c:/Dev/TDM-GCC-32/bin/../lib/gcc/mingw32/5.1.0/../../..\libuser32.a(daois00569.o)
 .idata$4       0x00c2e3d8        0x4 c:/Dev/TDM-GCC-32/bin/../lib/gcc/mingw32/5.1.0/../../..\libuser32.a(daois00572.o)
 .idata$4       0x00c2e3dc        0x4 c:/Dev/TDM-GCC-32/bin/../lib/gcc/mingw32/5.1.0/../../..\libuser32.a(daois00574.o)
 .idata$4       0x00c2e3e0        0x4 c:/Dev/TDM-GCC-32/bin/../lib/gcc/mingw32/5.1.0/../../..\libuser32.a(daois00575.o)
 .idata$4       0x00c2e3e4        0x4 c:/Dev/TDM-GCC-32/bin/../lib/gcc/mingw32/5.1.0/../../..\libuser32.a(daois00585.o)
 .idata$4       0x00c2e3e8        0x4 c:/Dev/TDM-GCC-32/bin/../lib/gcc/mingw32/5.1.0/../../..\libuser32.a(daois00598.o)
 .idata$4       0x00c2e3ec        0x4 c:/Dev/TDM-GCC-32/bin/../lib/gcc/mingw32/5.1.0/../../..\libuser32.a(daois00599.o)
 .idata$4       0x00c2e3f0        0x4 c:/Dev/TDM-GCC-32/bin/../lib/gcc/mingw32/5.1.0/../../..\libuser32.a(daois00608.o)
 .idata$4       0x00c2e3f4        0x4 c:/Dev/TDM-GCC-32/bin/../lib/gcc/mingw32/5.1.0/../../..\libuser32.a(daois00615.o)
 .idata$4       0x00c2e3f8        0x4 c:/Dev/TDM-GCC-32/bin/../lib/gcc/mingw32/5.1.0/../../..\libuser32.a(daois00635.o)
 .idata$4       0x00c2e3fc        0x4 c:/Dev/TDM-GCC-32/bin/../lib/gcc/mingw32/5.1.0/../../..\libuser32.a(daoit.o)
 .idata$4       0x00c2e400        0x0 c:/Dev/TDM-GCC-32/bin/../lib/gcc/mingw32/5.1.0/../../..\libwinmm.a(dopch.o)
 .idata$4       0x00c2e400        0x4 c:/Dev/TDM-GCC-32/bin/../lib/gcc/mingw32/5.1.0/../../..\libwinmm.a(dopcs00023.o)
 .idata$4       0x00c2e404        0x4 c:/Dev/TDM-GCC-32/bin/../lib/gcc/mingw32/5.1.0/../../..\libwinmm.a(dopcs00025.o)
 .idata$4       0x00c2e408        0x4 c:/Dev/TDM-GCC-32/bin/../lib/gcc/mingw32/5.1.0/../../..\libwinmm.a(dopcs00027.o)
 .idata$4       0x00c2e40c        0x4 c:/Dev/TDM-GCC-32/bin/../lib/gcc/mingw32/5.1.0/../../..\libwinmm.a(dopcs00043.o)
 .idata$4       0x00c2e410        0x4 c:/Dev/TDM-GCC-32/bin/../lib/gcc/mingw32/5.1.0/../../..\libwinmm.a(dopcs00047.o)
 .idata$4       0x00c2e414        0x4 c:/Dev/TDM-GCC-32/bin/../lib/gcc/mingw32/5.1.0/../../..\libwinmm.a(dopcs00144.o)
 .idata$4       0x00c2e418        0x4 c:/Dev/TDM-GCC-32/bin/../lib/gcc/mingw32/5.1.0/../../..\libwinmm.a(dopcs00145.o)
 .idata$4       0x00c2e41c        0x4 c:/Dev/TDM-GCC-32/bin/../lib/gcc/mingw32/5.1.0/../../..\libwinmm.a(dopcs00148.o)
 .idata$4       0x00c2e420        0x4 c:/Dev/TDM-GCC-32/bin/../lib/gcc/mingw32/5.1.0/../../..\libwinmm.a(dopcs00149.o)
 .idata$4       0x00c2e424        0x4 c:/Dev/TDM-GCC-32/bin/../lib/gcc/mingw32/5.1.0/../../..\libwinmm.a(dopcs00150.o)
 .idata$4       0x00c2e428        0x4 c:/Dev/TDM-GCC-32/bin/../lib/gcc/mingw32/5.1.0/../../..\libwinmm.a(dopcs00168.o)
 .idata$4       0x00c2e42c        0x4 c:/Dev/TDM-GCC-32/bin/../lib/gcc/mingw32/5.1.0/../../..\libwinmm.a(dopcs00171.o)
 .idata$4       0x00c2e430        0x4 c:/Dev/TDM-GCC-32/bin/../lib/gcc/mingw32/5.1.0/../../..\libwinmm.a(dopcs00180.o)
 .idata$4       0x00c2e434        0x4 c:/Dev/TDM-GCC-32/bin/../lib/gcc/mingw32/5.1.0/../../..\libwinmm.a(dopcs00182.o)
 .idata$4       0x00c2e438        0x4 c:/Dev/TDM-GCC-32/bin/../lib/gcc/mingw32/5.1.0/../../..\libwinmm.a(dopcs00188.o)
 .idata$4       0x00c2e43c        0x4 c:/Dev/TDM-GCC-32/bin/../lib/gcc/mingw32/5.1.0/../../..\libwinmm.a(dopcs00189.o)
 .idata$4       0x00c2e440        0x4 c:/Dev/TDM-GCC-32/bin/../lib/gcc/mingw32/5.1.0/../../..\libwinmm.a(dopct.o)
                0x00c2e444                __IAT_start__ = .
 SORT(*)(.idata$5)
 .idata$5       0x00c2e444        0x0 c:/Dev/TDM-GCC-32/bin/../lib/gcc/mingw32/5.1.0/../../..\libadvapi32.a(dgxgh.o)
 .idata$5       0x00c2e444        0x4 c:/Dev/TDM-GCC-32/bin/../lib/gcc/mingw32/5.1.0/../../..\libadvapi32.a(dgxgs00386.o)
                0x00c2e444                _imp__RegCloseKey@4
 .idata$5       0x00c2e448        0x4 c:/Dev/TDM-GCC-32/bin/../lib/gcc/mingw32/5.1.0/../../..\libadvapi32.a(dgxgs00413.o)
                0x00c2e448                _imp__RegOpenKeyExA@20
 .idata$5       0x00c2e44c        0x4 c:/Dev/TDM-GCC-32/bin/../lib/gcc/mingw32/5.1.0/../../..\libadvapi32.a(dgxgs00423.o)
                0x00c2e44c                _imp__RegQueryValueExA@24
 .idata$5       0x00c2e450        0x4 c:/Dev/TDM-GCC-32/bin/../lib/gcc/mingw32/5.1.0/../../..\libadvapi32.a(dgxgt.o)
 .idata$5       0x00c2e454        0x0 c:/Dev/TDM-GCC-32/bin/../lib/gcc/mingw32/5.1.0/../../..\libcomdlg32.a(demdh.o)
 .idata$5       0x00c2e454        0x4 c:/Dev/TDM-GCC-32/bin/../lib/gcc/mingw32/5.1.0/../../..\libcomdlg32.a(demds00009.o)
                0x00c2e454                _imp__GetOpenFileNameA@4
 .idata$5       0x00c2e458        0x4 c:/Dev/TDM-GCC-32/bin/../lib/gcc/mingw32/5.1.0/../../..\libcomdlg32.a(demdt.o)
 .idata$5       0x00c2e45c        0x0 c:/Dev/TDM-GCC-32/bin/../lib/gcc/mingw32/5.1.0/../../..\libgdi32.a(dkfhh.o)
 .idata$5       0x00c2e45c        0x4 c:/Dev/TDM-GCC-32/bin/../lib/gcc/mingw32/5.1.0/../../..\libgdi32.a(dkfhs00012.o)
                0x00c2e45c                _imp__BitBlt@36
 .idata$5       0x00c2e460        0x4 c:/Dev/TDM-GCC-32/bin/../lib/gcc/mingw32/5.1.0/../../..\libgdi32.a(dkfhs00015.o)
                0x00c2e460                _imp__ChoosePixelFormat@8
 .idata$5       0x00c2e464        0x4 c:/Dev/TDM-GCC-32/bin/../lib/gcc/mingw32/5.1.0/../../..\libgdi32.a(dkfhs00033.o)
                0x00c2e464                _imp__CreateCompatibleBitmap@12
 .idata$5       0x00c2e468        0x4 c:/Dev/TDM-GCC-32/bin/../lib/gcc/mingw32/5.1.0/../../..\libgdi32.a(dkfhs00034.o)
                0x00c2e468                _imp__CreateCompatibleDC@4
 .idata$5       0x00c2e46c        0x4 c:/Dev/TDM-GCC-32/bin/../lib/gcc/mingw32/5.1.0/../../..\libgdi32.a(dkfhs00039.o)
                0x00c2e46c                _imp__CreateDIBSection@24
 .idata$5       0x00c2e470        0x4 c:/Dev/TDM-GCC-32/bin/../lib/gcc/mingw32/5.1.0/../../..\libgdi32.a(dkfhs00056.o)
                0x00c2e470                _imp__CreatePalette@4
 .idata$5       0x00c2e474        0x4 c:/Dev/TDM-GCC-32/bin/../lib/gcc/mingw32/5.1.0/../../..\libgdi32.a(dkfhs00070.o)
                0x00c2e474                _imp__DeleteDC@4
 .idata$5       0x00c2e478        0x4 c:/Dev/TDM-GCC-32/bin/../lib/gcc/mingw32/5.1.0/../../..\libgdi32.a(dkfhs00073.o)
                0x00c2e478                _imp__DeleteObject@4
 .idata$5       0x00c2e47c        0x4 c:/Dev/TDM-GCC-32/bin/../lib/gcc/mingw32/5.1.0/../../..\libgdi32.a(dkfhs00074.o)
                0x00c2e47c                _imp__DescribePixelFormat@16
 .idata$5       0x00c2e480        0x4 c:/Dev/TDM-GCC-32/bin/../lib/gcc/mingw32/5.1.0/../../..\libgdi32.a(dkfhs00147.o)
                0x00c2e480                _imp__GetDIBits@28
 .idata$5       0x00c2e484        0x4 c:/Dev/TDM-GCC-32/bin/../lib/gcc/mingw32/5.1.0/../../..\libgdi32.a(dkfhs00149.o)
                0x00c2e484                _imp__GetDeviceGammaRamp@8
 .idata$5       0x00c2e488        0x4 c:/Dev/TDM-GCC-32/bin/../lib/gcc/mingw32/5.1.0/../../..\libgdi32.a(dkfhs00203.o)
                0x00c2e488                _imp__GetSystemPaletteEntries@16
 .idata$5       0x00c2e48c        0x4 c:/Dev/TDM-GCC-32/bin/../lib/gcc/mingw32/5.1.0/../../..\libgdi32.a(dkfhs00204.o)
                0x00c2e48c                _imp__GetSystemPaletteUse@4
 .idata$5       0x00c2e490        0x4 c:/Dev/TDM-GCC-32/bin/../lib/gcc/mingw32/5.1.0/../../..\libgdi32.a(dkfhs00260.o)
                0x00c2e490                _imp__RealizePalette@4
 .idata$5       0x00c2e494        0x4 c:/Dev/TDM-GCC-32/bin/../lib/gcc/mingw32/5.1.0/../../..\libgdi32.a(dkfhs00281.o)
                0x00c2e494                _imp__SelectObject@8
 .idata$5       0x00c2e498        0x4 c:/Dev/TDM-GCC-32/bin/../lib/gcc/mingw32/5.1.0/../../..\libgdi32.a(dkfhs00282.o)
                0x00c2e498                _imp__SelectPalette@12
 .idata$5       0x00c2e49c        0x4 c:/Dev/TDM-GCC-32/bin/../lib/gcc/mingw32/5.1.0/../../..\libgdi32.a(dkfhs00295.o)
                0x00c2e49c                _imp__SetDIBColorTable@16
 .idata$5       0x00c2e4a0        0x4 c:/Dev/TDM-GCC-32/bin/../lib/gcc/mingw32/5.1.0/../../..\libgdi32.a(dkfhs00298.o)
                0x00c2e4a0                _imp__SetDeviceGammaRamp@8
 .idata$5       0x00c2e4a4        0x4 c:/Dev/TDM-GCC-32/bin/../lib/gcc/mingw32/5.1.0/../../..\libgdi32.a(dkfhs00311.o)
                0x00c2e4a4                _imp__SetPaletteEntries@16
 .idata$5       0x00c2e4a8        0x4 c:/Dev/TDM-GCC-32/bin/../lib/gcc/mingw32/5.1.0/../../..\libgdi32.a(dkfhs00313.o)
                0x00c2e4a8                _imp__SetPixelFormat@12
 .idata$5       0x00c2e4ac        0x4 c:/Dev/TDM-GCC-32/bin/../lib/gcc/mingw32/5.1.0/../../..\libgdi32.a(dkfhs00320.o)
                0x00c2e4ac                _imp__SetSystemPaletteUse@8
 .idata$5       0x00c2e4b0        0x4 c:/Dev/TDM-GCC-32/bin/../lib/gcc/mingw32/5.1.0/../../..\libgdi32.a(dkfhs00338.o)
                0x00c2e4b0                _imp__SwapBuffers@4
 .idata$5       0x00c2e4b4        0x4 c:/Dev/TDM-GCC-32/bin/../lib/gcc/mingw32/5.1.0/../../..\libgdi32.a(dkfhs00342.o)
                0x00c2e4b4                _imp__UnrealizeObject@4
 .idata$5       0x00c2e4b8        0x4 c:/Dev/TDM-GCC-32/bin/../lib/gcc/mingw32/5.1.0/../../..\libgdi32.a(dkfht.o)
 .idata$5       0x00c2e4bc        0x0 c:/Dev/TDM-GCC-32/bin/../lib/gcc/mingw32/5.1.0/../../..\libkernel32.a(dchdh.o)
 .idata$5       0x00c2e4bc        0x4 c:/Dev/TDM-GCC-32/bin/../lib/gcc/mingw32/5.1.0/../../..\libkernel32.a(dchds00082.o)
                0x00c2e4bc                _imp__CloseHandle@4
 .idata$5       0x00c2e4c0        0x4 c:/Dev/TDM-GCC-32/bin/../lib/gcc/mingw32/5.1.0/../../..\libkernel32.a(dchds00135.o)
                0x00c2e4c0                _imp__CreateFileA@28
 .idata$5       0x00c2e4c4        0x4 c:/Dev/TDM-GCC-32/bin/../lib/gcc/mingw32/5.1.0/../../..\libkernel32.a(dchds00142.o)
                0x00c2e4c4                _imp__CreateFileW@28
 .idata$5       0x00c2e4c8        0x4 c:/Dev/TDM-GCC-32/bin/../lib/gcc/mingw32/5.1.0/../../..\libkernel32.a(dchds00154.o)
                0x00c2e4c8                _imp__CreateMutexA@12
 .idata$5       0x00c2e4cc        0x4 c:/Dev/TDM-GCC-32/bin/../lib/gcc/mingw32/5.1.0/../../..\libkernel32.a(dchds00169.o)
                0x00c2e4cc                _imp__CreateSemaphoreA@16
 .idata$5       0x00c2e4d0        0x4 c:/Dev/TDM-GCC-32/bin/../lib/gcc/mingw32/5.1.0/../../..\libkernel32.a(dchds00207.o)
                0x00c2e4d0                _imp__DeleteCriticalSection@4
 .idata$5       0x00c2e4d4        0x4 c:/Dev/TDM-GCC-32/bin/../lib/gcc/mingw32/5.1.0/../../..\libkernel32.a(dchds00236.o)
                0x00c2e4d4                _imp__EnterCriticalSection@4
 .idata$5       0x00c2e4d8        0x4 c:/Dev/TDM-GCC-32/bin/../lib/gcc/mingw32/5.1.0/../../..\libkernel32.a(dchds00279.o)
                0x00c2e4d8                _imp__ExitProcess@4
 .idata$5       0x00c2e4dc        0x4 c:/Dev/TDM-GCC-32/bin/../lib/gcc/mingw32/5.1.0/../../..\libkernel32.a(dchds00352.o)
                0x00c2e4dc                _imp__FreeLibrary@4
 .idata$5       0x00c2e4e0        0x4 c:/Dev/TDM-GCC-32/bin/../lib/gcc/mingw32/5.1.0/../../..\libkernel32.a(dchds00358.o)
                0x00c2e4e0                _imp__GetACP@0
 .idata$5       0x00c2e4e4        0x4 c:/Dev/TDM-GCC-32/bin/../lib/gcc/mingw32/5.1.0/../../..\libkernel32.a(dchds00388.o)
                0x00c2e4e4                _imp__GetCommandLineA@0
 .idata$5       0x00c2e4e8        0x4 c:/Dev/TDM-GCC-32/bin/../lib/gcc/mingw32/5.1.0/../../..\libkernel32.a(dchds00450.o)
                0x00c2e4e8                _imp__GetCurrentThread@0
 .idata$5       0x00c2e4ec        0x4 c:/Dev/TDM-GCC-32/bin/../lib/gcc/mingw32/5.1.0/../../..\libkernel32.a(dchds00451.o)
                0x00c2e4ec                _imp__GetCurrentThreadId@0
 .idata$5       0x00c2e4f0        0x4 c:/Dev/TDM-GCC-32/bin/../lib/gcc/mingw32/5.1.0/../../..\libkernel32.a(dchds00464.o)
                0x00c2e4f0                _imp__GetDriveTypeA@4
 .idata$5       0x00c2e4f4        0x4 c:/Dev/TDM-GCC-32/bin/../lib/gcc/mingw32/5.1.0/../../..\libkernel32.a(dchds00473.o)
                0x00c2e4f4                _imp__GetEnvironmentVariableA@12
 .idata$5       0x00c2e4f8        0x4 c:/Dev/TDM-GCC-32/bin/../lib/gcc/mingw32/5.1.0/../../..\libkernel32.a(dchds00510.o)
                0x00c2e4f8                _imp__GetLastError@0
 .idata$5       0x00c2e4fc        0x4 c:/Dev/TDM-GCC-32/bin/../lib/gcc/mingw32/5.1.0/../../..\libkernel32.a(dchds00512.o)
                0x00c2e4fc                _imp__GetLocaleInfoA@16
 .idata$5       0x00c2e500        0x4 c:/Dev/TDM-GCC-32/bin/../lib/gcc/mingw32/5.1.0/../../..\libkernel32.a(dchds00529.o)
                0x00c2e500                _imp__GetModuleHandleA@4
 .idata$5       0x00c2e504        0x4 c:/Dev/TDM-GCC-32/bin/../lib/gcc/mingw32/5.1.0/../../..\libkernel32.a(dchds00577.o)
                0x00c2e504                _imp__GetProcAddress@8
 .idata$5       0x00c2e508        0x4 c:/Dev/TDM-GCC-32/bin/../lib/gcc/mingw32/5.1.0/../../..\libkernel32.a(dchds00606.o)
                0x00c2e508                _imp__GetStartupInfoA@4
 .idata$5       0x00c2e50c        0x4 c:/Dev/TDM-GCC-32/bin/../lib/gcc/mingw32/5.1.0/../../..\libkernel32.a(dchds00671.o)
                0x00c2e50c                _imp__GetVersionExA@4
 .idata$5       0x00c2e510        0x4 c:/Dev/TDM-GCC-32/bin/../lib/gcc/mingw32/5.1.0/../../..\libkernel32.a(dchds00734.o)
                0x00c2e510                _imp__InitializeCriticalSection@4
 .idata$5       0x00c2e514        0x4 c:/Dev/TDM-GCC-32/bin/../lib/gcc/mingw32/5.1.0/../../..\libkernel32.a(dchds00743.o)
                0x00c2e514                _imp__InterlockedDecrement@4
 .idata$5       0x00c2e518        0x4 c:/Dev/TDM-GCC-32/bin/../lib/gcc/mingw32/5.1.0/../../..\libkernel32.a(dchds00744.o)
                0x00c2e518                _imp__InterlockedExchange@8
 .idata$5       0x00c2e51c        0x4 c:/Dev/TDM-GCC-32/bin/../lib/gcc/mingw32/5.1.0/../../..\libkernel32.a(dchds00747.o)
                0x00c2e51c                _imp__InterlockedIncrement@4
 .idata$5       0x00c2e520        0x4 c:/Dev/TDM-GCC-32/bin/../lib/gcc/mingw32/5.1.0/../../..\libkernel32.a(dchds00763.o)
                0x00c2e520                _imp__IsDBCSLeadByteEx@8
 .idata$5       0x00c2e524        0x4 c:/Dev/TDM-GCC-32/bin/../lib/gcc/mingw32/5.1.0/../../..\libkernel32.a(dchds00814.o)
                0x00c2e524                _imp__LeaveCriticalSection@4
 .idata$5       0x00c2e528        0x4 c:/Dev/TDM-GCC-32/bin/../lib/gcc/mingw32/5.1.0/../../..\libkernel32.a(dchds00817.o)
                0x00c2e528                _imp__LoadLibraryA@4
 .idata$5       0x00c2e52c        0x4 c:/Dev/TDM-GCC-32/bin/../lib/gcc/mingw32/5.1.0/../../..\libkernel32.a(dchds00860.o)
                0x00c2e52c                _imp__MultiByteToWideChar@24
 .idata$5       0x00c2e530        0x4 c:/Dev/TDM-GCC-32/bin/../lib/gcc/mingw32/5.1.0/../../..\libkernel32.a(dchds00922.o)
                0x00c2e530                _imp__QueryPerformanceCounter@4
 .idata$5       0x00c2e534        0x4 c:/Dev/TDM-GCC-32/bin/../lib/gcc/mingw32/5.1.0/../../..\libkernel32.a(dchds00923.o)
                0x00c2e534                _imp__QueryPerformanceFrequency@4
 .idata$5       0x00c2e538        0x4 c:/Dev/TDM-GCC-32/bin/../lib/gcc/mingw32/5.1.0/../../..\libkernel32.a(dchds00947.o)
                0x00c2e538                _imp__ReadFile@20
 .idata$5       0x00c2e53c        0x4 c:/Dev/TDM-GCC-32/bin/../lib/gcc/mingw32/5.1.0/../../..\libkernel32.a(dchds00974.o)
                0x00c2e53c                _imp__ReleaseMutex@4
 .idata$5       0x00c2e540        0x4 c:/Dev/TDM-GCC-32/bin/../lib/gcc/mingw32/5.1.0/../../..\libkernel32.a(dchds00978.o)
                0x00c2e540                _imp__ReleaseSemaphore@12
 .idata$5       0x00c2e544        0x4 c:/Dev/TDM-GCC-32/bin/../lib/gcc/mingw32/5.1.0/../../..\libkernel32.a(dchds01062.o)
                0x00c2e544                _imp__SetEnvironmentVariableA@8
 .idata$5       0x00c2e548        0x4 c:/Dev/TDM-GCC-32/bin/../lib/gcc/mingw32/5.1.0/../../..\libkernel32.a(dchds01064.o)
                0x00c2e548                _imp__SetErrorMode@4
 .idata$5       0x00c2e54c        0x4 c:/Dev/TDM-GCC-32/bin/../lib/gcc/mingw32/5.1.0/../../..\libkernel32.a(dchds01078.o)
                0x00c2e54c                _imp__SetFilePointer@16
 .idata$5       0x00c2e550        0x4 c:/Dev/TDM-GCC-32/bin/../lib/gcc/mingw32/5.1.0/../../..\libkernel32.a(dchds01129.o)
                0x00c2e550                _imp__SetThreadPriority@8
 .idata$5       0x00c2e554        0x4 c:/Dev/TDM-GCC-32/bin/../lib/gcc/mingw32/5.1.0/../../..\libkernel32.a(dchds01140.o)
                0x00c2e554                _imp__SetUnhandledExceptionFilter@4
 .idata$5       0x00c2e558        0x4 c:/Dev/TDM-GCC-32/bin/../lib/gcc/mingw32/5.1.0/../../..\libkernel32.a(dchds01152.o)
                0x00c2e558                _imp__Sleep@4
 .idata$5       0x00c2e55c        0x4 c:/Dev/TDM-GCC-32/bin/../lib/gcc/mingw32/5.1.0/../../..\libkernel32.a(dchds01167.o)
                0x00c2e55c                _imp__TerminateThread@8
 .idata$5       0x00c2e560        0x4 c:/Dev/TDM-GCC-32/bin/../lib/gcc/mingw32/5.1.0/../../..\libkernel32.a(dchds01173.o)
                0x00c2e560                _imp__TlsGetValue@4
 .idata$5       0x00c2e564        0x4 c:/Dev/TDM-GCC-32/bin/../lib/gcc/mingw32/5.1.0/../../..\libkernel32.a(dchds01213.o)
                0x00c2e564                _imp__VirtualProtect@16
 .idata$5       0x00c2e568        0x4 c:/Dev/TDM-GCC-32/bin/../lib/gcc/mingw32/5.1.0/../../..\libkernel32.a(dchds01215.o)
                0x00c2e568                _imp__VirtualQuery@12
 .idata$5       0x00c2e56c        0x4 c:/Dev/TDM-GCC-32/bin/../lib/gcc/mingw32/5.1.0/../../..\libkernel32.a(dchds01223.o)
                0x00c2e56c                _imp__WaitForSingleObject@8
 .idata$5       0x00c2e570        0x4 c:/Dev/TDM-GCC-32/bin/../lib/gcc/mingw32/5.1.0/../../..\libkernel32.a(dchds01247.o)
                0x00c2e570                _imp__WideCharToMultiByte@32
 .idata$5       0x00c2e574        0x4 c:/Dev/TDM-GCC-32/bin/../lib/gcc/mingw32/5.1.0/../../..\libkernel32.a(dchds01267.o)
                0x00c2e574                _imp__WriteFile@20
 .idata$5       0x00c2e578        0x4 c:/Dev/TDM-GCC-32/bin/../lib/gcc/mingw32/5.1.0/../../..\libkernel32.a(dchdt.o)
 .idata$5       0x00c2e57c        0x0 c:/Dev/TDM-GCC-32/bin/../lib/gcc/mingw32/5.1.0/../../..\libmoldname.a(dofmh.o)
 .idata$5       0x00c2e57c        0x4 c:/Dev/TDM-GCC-32/bin/../lib/gcc/mingw32/5.1.0/../../..\libmoldname.a(dofms00006.o)
                0x00c2e57c                _imp__close
 .idata$5       0x00c2e580        0x4 c:/Dev/TDM-GCC-32/bin/../lib/gcc/mingw32/5.1.0/../../..\libmoldname.a(dofms00037.o)
                0x00c2e580                _imp__getcwd
 .idata$5       0x00c2e584        0x4 c:/Dev/TDM-GCC-32/bin/../lib/gcc/mingw32/5.1.0/../../..\libmoldname.a(dofms00058.o)
                0x00c2e584                _imp__open
 .idata$5       0x00c2e588        0x4 c:/Dev/TDM-GCC-32/bin/../lib/gcc/mingw32/5.1.0/../../..\libmoldname.a(dofms00064.o)
                0x00c2e588                _imp__read
 .idata$5       0x00c2e58c        0x4 c:/Dev/TDM-GCC-32/bin/../lib/gcc/mingw32/5.1.0/../../..\libmoldname.a(dofms00080.o)
                0x00c2e58c                _imp__strdup
 .idata$5       0x00c2e590        0x4 c:/Dev/TDM-GCC-32/bin/../lib/gcc/mingw32/5.1.0/../../..\libmoldname.a(dofms00081.o)
                0x00c2e590                _imp__stricmp
 .idata$5       0x00c2e594        0x4 c:/Dev/TDM-GCC-32/bin/../lib/gcc/mingw32/5.1.0/../../..\libmoldname.a(dofms00097.o)
                0x00c2e594                _imp__unlink
 .idata$5       0x00c2e598        0x4 c:/Dev/TDM-GCC-32/bin/../lib/gcc/mingw32/5.1.0/../../..\libmoldname.a(dofms00109.o)
                0x00c2e598                _imp__write
 .idata$5       0x00c2e59c        0x4 c:/Dev/TDM-GCC-32/bin/../lib/gcc/mingw32/5.1.0/../../..\libmoldname.a(dofmt.o)
 .idata$5       0x00c2e5a0        0x0 c:/Dev/TDM-GCC-32/bin/../lib/gcc/mingw32/5.1.0/../../..\libmsvcrt.a(dsnoh.o)
 .idata$5       0x00c2e5a0        0x4 c:/Dev/TDM-GCC-32/bin/../lib/gcc/mingw32/5.1.0/../../..\libmsvcrt.a(dsnos00055.o)
                0x00c2e5a0                _imp____getmainargs
 .idata$5       0x00c2e5a4        0x4 c:/Dev/TDM-GCC-32/bin/../lib/gcc/mingw32/5.1.0/../../..\libmsvcrt.a(dsnos00065.o)
                0x00c2e5a4                _imp____mb_cur_max
 .idata$5       0x00c2e5a8        0x4 c:/Dev/TDM-GCC-32/bin/../lib/gcc/mingw32/5.1.0/../../..\libmsvcrt.a(dsnos00077.o)
                0x00c2e5a8                _imp____p__environ
 .idata$5       0x00c2e5ac        0x4 c:/Dev/TDM-GCC-32/bin/../lib/gcc/mingw32/5.1.0/../../..\libmsvcrt.a(dsnos00079.o)
                0x00c2e5ac                _imp____p__fmode
 .idata$5       0x00c2e5b0        0x4 c:/Dev/TDM-GCC-32/bin/../lib/gcc/mingw32/5.1.0/../../..\libmsvcrt.a(dsnos00099.o)
                0x00c2e5b0                _imp____set_app_type
 .idata$5       0x00c2e5b4        0x4 c:/Dev/TDM-GCC-32/bin/../lib/gcc/mingw32/5.1.0/../../..\libmsvcrt.a(dsnos00143.o)
                0x00c2e5b4                _imp___beginthreadex
 .idata$5       0x00c2e5b8        0x4 c:/Dev/TDM-GCC-32/bin/../lib/gcc/mingw32/5.1.0/../../..\libmsvcrt.a(dsnos00147.o)
                0x00c2e5b8                _imp___cexit
 .idata$5       0x00c2e5bc        0x4 c:/Dev/TDM-GCC-32/bin/../lib/gcc/mingw32/5.1.0/../../..\libmsvcrt.a(dsnos00179.o)
                0x00c2e5bc                _imp___endthreadex
 .idata$5       0x00c2e5c0        0x4 c:/Dev/TDM-GCC-32/bin/../lib/gcc/mingw32/5.1.0/../../..\libmsvcrt.a(dsnos00182.o)
                0x00c2e5c0                _imp___errno
 .idata$5       0x00c2e5c4        0x4 c:/Dev/TDM-GCC-32/bin/../lib/gcc/mingw32/5.1.0/../../..\libmsvcrt.a(dsnos00266.o)
                0x00c2e5c4                _imp___iob
 .idata$5       0x00c2e5c8        0x4 c:/Dev/TDM-GCC-32/bin/../lib/gcc/mingw32/5.1.0/../../..\libmsvcrt.a(dsnos00268.o)
                0x00c2e5c8                _imp___isctype
 .idata$5       0x00c2e5cc        0x4 c:/Dev/TDM-GCC-32/bin/../lib/gcc/mingw32/5.1.0/../../..\libmsvcrt.a(dsnos00317.o)
                0x00c2e5cc                _imp___lseeki64
 .idata$5       0x00c2e5d0        0x4 c:/Dev/TDM-GCC-32/bin/../lib/gcc/mingw32/5.1.0/../../..\libmsvcrt.a(dsnos00383.o)
                0x00c2e5d0                _imp___onexit
 .idata$5       0x00c2e5d4        0x4 c:/Dev/TDM-GCC-32/bin/../lib/gcc/mingw32/5.1.0/../../..\libmsvcrt.a(dsnos00392.o)
                0x00c2e5d4                _imp___pctype
 .idata$5       0x00c2e5d8        0x4 c:/Dev/TDM-GCC-32/bin/../lib/gcc/mingw32/5.1.0/../../..\libmsvcrt.a(dsnos00426.o)
                0x00c2e5d8                _imp___setmode
 .idata$5       0x00c2e5dc        0x4 c:/Dev/TDM-GCC-32/bin/../lib/gcc/mingw32/5.1.0/../../..\libmsvcrt.a(dsnos00451.o)
                0x00c2e5dc                _imp___stricmp
 .idata$5       0x00c2e5e0        0x4 c:/Dev/TDM-GCC-32/bin/../lib/gcc/mingw32/5.1.0/../../..\libmsvcrt.a(dsnos00544.o)
                0x00c2e5e0                _imp___wopen
 .idata$5       0x00c2e5e4        0x4 c:/Dev/TDM-GCC-32/bin/../lib/gcc/mingw32/5.1.0/../../..\libmsvcrt.a(dsnos00583.o)
                0x00c2e5e4                _imp__abort
 .idata$5       0x00c2e5e8        0x4 c:/Dev/TDM-GCC-32/bin/../lib/gcc/mingw32/5.1.0/../../..\libmsvcrt.a(dsnos00590.o)
                0x00c2e5e8                _imp__atexit
 .idata$5       0x00c2e5ec        0x4 c:/Dev/TDM-GCC-32/bin/../lib/gcc/mingw32/5.1.0/../../..\libmsvcrt.a(dsnos00591.o)
                0x00c2e5ec                _imp__atof
 .idata$5       0x00c2e5f0        0x4 c:/Dev/TDM-GCC-32/bin/../lib/gcc/mingw32/5.1.0/../../..\libmsvcrt.a(dsnos00592.o)
                0x00c2e5f0                _imp__atoi
 .idata$5       0x00c2e5f4        0x4 c:/Dev/TDM-GCC-32/bin/../lib/gcc/mingw32/5.1.0/../../..\libmsvcrt.a(dsnos00595.o)
                0x00c2e5f4                _imp__calloc
 .idata$5       0x00c2e5f8        0x4 c:/Dev/TDM-GCC-32/bin/../lib/gcc/mingw32/5.1.0/../../..\libmsvcrt.a(dsnos00604.o)
                0x00c2e5f8                _imp__exit
 .idata$5       0x00c2e5fc        0x4 c:/Dev/TDM-GCC-32/bin/../lib/gcc/mingw32/5.1.0/../../..\libmsvcrt.a(dsnos00607.o)
                0x00c2e5fc                _imp__fclose
 .idata$5       0x00c2e600        0x4 c:/Dev/TDM-GCC-32/bin/../lib/gcc/mingw32/5.1.0/../../..\libmsvcrt.a(dsnos00613.o)
                0x00c2e600                _imp__fgets
 .idata$5       0x00c2e604        0x4 c:/Dev/TDM-GCC-32/bin/../lib/gcc/mingw32/5.1.0/../../..\libmsvcrt.a(dsnos00618.o)
                0x00c2e604                _imp__fopen
 .idata$5       0x00c2e608        0x4 c:/Dev/TDM-GCC-32/bin/../lib/gcc/mingw32/5.1.0/../../..\libmsvcrt.a(dsnos00619.o)
                0x00c2e608                _imp__fprintf
 .idata$5       0x00c2e60c        0x4 c:/Dev/TDM-GCC-32/bin/../lib/gcc/mingw32/5.1.0/../../..\libmsvcrt.a(dsnos00620.o)
                0x00c2e60c                _imp__fputc
 .idata$5       0x00c2e610        0x4 c:/Dev/TDM-GCC-32/bin/../lib/gcc/mingw32/5.1.0/../../..\libmsvcrt.a(dsnos00624.o)
                0x00c2e610                _imp__fread
 .idata$5       0x00c2e614        0x4 c:/Dev/TDM-GCC-32/bin/../lib/gcc/mingw32/5.1.0/../../..\libmsvcrt.a(dsnos00625.o)
                0x00c2e614                _imp__free
 .idata$5       0x00c2e618        0x4 c:/Dev/TDM-GCC-32/bin/../lib/gcc/mingw32/5.1.0/../../..\libmsvcrt.a(dsnos00629.o)
                0x00c2e618                _imp__fseek
 .idata$5       0x00c2e61c        0x4 c:/Dev/TDM-GCC-32/bin/../lib/gcc/mingw32/5.1.0/../../..\libmsvcrt.a(dsnos00631.o)
                0x00c2e61c                _imp__ftell
 .idata$5       0x00c2e620        0x4 c:/Dev/TDM-GCC-32/bin/../lib/gcc/mingw32/5.1.0/../../..\libmsvcrt.a(dsnos00633.o)
                0x00c2e620                _imp__fwrite
 .idata$5       0x00c2e624        0x4 c:/Dev/TDM-GCC-32/bin/../lib/gcc/mingw32/5.1.0/../../..\libmsvcrt.a(dsnos00637.o)
                0x00c2e624                _imp__getenv
 .idata$5       0x00c2e628        0x4 c:/Dev/TDM-GCC-32/bin/../lib/gcc/mingw32/5.1.0/../../..\libmsvcrt.a(dsnos00671.o)
                0x00c2e628                _imp__localeconv
 .idata$5       0x00c2e62c        0x4 c:/Dev/TDM-GCC-32/bin/../lib/gcc/mingw32/5.1.0/../../..\libmsvcrt.a(dsnos00676.o)
                0x00c2e62c                _imp__malloc
 .idata$5       0x00c2e630        0x4 c:/Dev/TDM-GCC-32/bin/../lib/gcc/mingw32/5.1.0/../../..\libmsvcrt.a(dsnos00680.o)
                0x00c2e630                _imp__memchr
 .idata$5       0x00c2e634        0x4 c:/Dev/TDM-GCC-32/bin/../lib/gcc/mingw32/5.1.0/../../..\libmsvcrt.a(dsnos00681.o)
                0x00c2e634                _imp__memcmp
 .idata$5       0x00c2e638        0x4 c:/Dev/TDM-GCC-32/bin/../lib/gcc/mingw32/5.1.0/../../..\libmsvcrt.a(dsnos00682.o)
                0x00c2e638                _imp__memcpy
 .idata$5       0x00c2e63c        0x4 c:/Dev/TDM-GCC-32/bin/../lib/gcc/mingw32/5.1.0/../../..\libmsvcrt.a(dsnos00683.o)
                0x00c2e63c                _imp__memmove
 .idata$5       0x00c2e640        0x4 c:/Dev/TDM-GCC-32/bin/../lib/gcc/mingw32/5.1.0/../../..\libmsvcrt.a(dsnos00684.o)
                0x00c2e640                _imp__memset
 .idata$5       0x00c2e644        0x4 c:/Dev/TDM-GCC-32/bin/../lib/gcc/mingw32/5.1.0/../../..\libmsvcrt.a(dsnos00688.o)
                0x00c2e644                _imp__pow
 .idata$5       0x00c2e648        0x4 c:/Dev/TDM-GCC-32/bin/../lib/gcc/mingw32/5.1.0/../../..\libmsvcrt.a(dsnos00695.o)
                0x00c2e648                _imp__qsort
 .idata$5       0x00c2e64c        0x4 c:/Dev/TDM-GCC-32/bin/../lib/gcc/mingw32/5.1.0/../../..\libmsvcrt.a(dsnos00696.o)
                0x00c2e64c                _imp__raise
 .idata$5       0x00c2e650        0x4 c:/Dev/TDM-GCC-32/bin/../lib/gcc/mingw32/5.1.0/../../..\libmsvcrt.a(dsnos00698.o)
                0x00c2e650                _imp__realloc
 .idata$5       0x00c2e654        0x4 c:/Dev/TDM-GCC-32/bin/../lib/gcc/mingw32/5.1.0/../../..\libmsvcrt.a(dsnos00704.o)
                0x00c2e654                _imp__setlocale
 .idata$5       0x00c2e658        0x4 c:/Dev/TDM-GCC-32/bin/../lib/gcc/mingw32/5.1.0/../../..\libmsvcrt.a(dsnos00706.o)
                0x00c2e658                _imp__signal
 .idata$5       0x00c2e65c        0x4 c:/Dev/TDM-GCC-32/bin/../lib/gcc/mingw32/5.1.0/../../..\libmsvcrt.a(dsnos00709.o)
                0x00c2e65c                _imp__sprintf
 .idata$5       0x00c2e660        0x4 c:/Dev/TDM-GCC-32/bin/../lib/gcc/mingw32/5.1.0/../../..\libmsvcrt.a(dsnos00712.o)
                0x00c2e660                _imp__sscanf
 .idata$5       0x00c2e664        0x4 c:/Dev/TDM-GCC-32/bin/../lib/gcc/mingw32/5.1.0/../../..\libmsvcrt.a(dsnos00714.o)
                0x00c2e664                _imp__strchr
 .idata$5       0x00c2e668        0x4 c:/Dev/TDM-GCC-32/bin/../lib/gcc/mingw32/5.1.0/../../..\libmsvcrt.a(dsnos00715.o)
                0x00c2e668                _imp__strcmp
 .idata$5       0x00c2e66c        0x4 c:/Dev/TDM-GCC-32/bin/../lib/gcc/mingw32/5.1.0/../../..\libmsvcrt.a(dsnos00717.o)
                0x00c2e66c                _imp__strcpy
 .idata$5       0x00c2e670        0x4 c:/Dev/TDM-GCC-32/bin/../lib/gcc/mingw32/5.1.0/../../..\libmsvcrt.a(dsnos00719.o)
                0x00c2e670                _imp__strerror
 .idata$5       0x00c2e674        0x4 c:/Dev/TDM-GCC-32/bin/../lib/gcc/mingw32/5.1.0/../../..\libmsvcrt.a(dsnos00721.o)
                0x00c2e674                _imp__strlen
 .idata$5       0x00c2e678        0x4 c:/Dev/TDM-GCC-32/bin/../lib/gcc/mingw32/5.1.0/../../..\libmsvcrt.a(dsnos00728.o)
                0x00c2e678                _imp__strstr
 .idata$5       0x00c2e67c        0x4 c:/Dev/TDM-GCC-32/bin/../lib/gcc/mingw32/5.1.0/../../..\libmsvcrt.a(dsnos00748.o)
                0x00c2e67c                _imp__vfprintf
 .idata$5       0x00c2e680        0x4 c:/Dev/TDM-GCC-32/bin/../lib/gcc/mingw32/5.1.0/../../..\libmsvcrt.a(dsnos00761.o)
                0x00c2e680                _imp__wcslen
 .idata$5       0x00c2e684        0x4 c:/Dev/TDM-GCC-32/bin/../lib/gcc/mingw32/5.1.0/../../..\libmsvcrt.a(dsnos00772.o)
                0x00c2e684                _imp__wcstombs
 .idata$5       0x00c2e688        0x4 c:/Dev/TDM-GCC-32/bin/../lib/gcc/mingw32/5.1.0/../../..\libmsvcrt.a(dsnot.o)
 .idata$5       0x00c2e68c        0x0 c:/Dev/TDM-GCC-32/bin/../lib/gcc/mingw32/5.1.0/../../..\libuser32.a(daoih.o)
 .idata$5       0x00c2e68c        0x4 c:/Dev/TDM-GCC-32/bin/../lib/gcc/mingw32/5.1.0/../../..\libuser32.a(daois00001.o)
                0x00c2e68c                _imp__AdjustWindowRect@12
 .idata$5       0x00c2e690        0x4 c:/Dev/TDM-GCC-32/bin/../lib/gcc/mingw32/5.1.0/../../..\libuser32.a(daois00002.o)
                0x00c2e690                _imp__AdjustWindowRectEx@16
 .idata$5       0x00c2e694        0x4 c:/Dev/TDM-GCC-32/bin/../lib/gcc/mingw32/5.1.0/../../..\libuser32.a(daois00011.o)
                0x00c2e694                _imp__BeginPaint@8
 .idata$5       0x00c2e698        0x4 c:/Dev/TDM-GCC-32/bin/../lib/gcc/mingw32/5.1.0/../../..\libuser32.a(daois00024.o)
                0x00c2e698                _imp__CallWindowProcA@20
 .idata$5       0x00c2e69c        0x4 c:/Dev/TDM-GCC-32/bin/../lib/gcc/mingw32/5.1.0/../../..\libuser32.a(daois00029.o)
                0x00c2e69c                _imp__ChangeDisplaySettingsA@8
 .idata$5       0x00c2e6a0        0x4 c:/Dev/TDM-GCC-32/bin/../lib/gcc/mingw32/5.1.0/../../..\libuser32.a(daois00059.o)
                0x00c2e6a0                _imp__ClientToScreen@8
 .idata$5       0x00c2e6a4        0x4 c:/Dev/TDM-GCC-32/bin/../lib/gcc/mingw32/5.1.0/../../..\libuser32.a(daois00060.o)
                0x00c2e6a4                _imp__ClipCursor@4
 .idata$5       0x00c2e6a8        0x4 c:/Dev/TDM-GCC-32/bin/../lib/gcc/mingw32/5.1.0/../../..\libuser32.a(daois00075.o)
                0x00c2e6a8                _imp__CreateCursor@28
 .idata$5       0x00c2e6ac        0x4 c:/Dev/TDM-GCC-32/bin/../lib/gcc/mingw32/5.1.0/../../..\libuser32.a(daois00084.o)
                0x00c2e6ac                _imp__CreateIconFromResourceEx@28
 .idata$5       0x00c2e6b0        0x4 c:/Dev/TDM-GCC-32/bin/../lib/gcc/mingw32/5.1.0/../../..\libuser32.a(daois00090.o)
                0x00c2e6b0                _imp__CreateWindowExA@48
 .idata$5       0x00c2e6b4        0x4 c:/Dev/TDM-GCC-32/bin/../lib/gcc/mingw32/5.1.0/../../..\libuser32.a(daois00134.o)
                0x00c2e6b4                _imp__DefWindowProcA@16
 .idata$5       0x00c2e6b8        0x4 c:/Dev/TDM-GCC-32/bin/../lib/gcc/mingw32/5.1.0/../../..\libuser32.a(daois00141.o)
                0x00c2e6b8                _imp__DestroyCursor@4
 .idata$5       0x00c2e6bc        0x4 c:/Dev/TDM-GCC-32/bin/../lib/gcc/mingw32/5.1.0/../../..\libuser32.a(daois00142.o)
                0x00c2e6bc                _imp__DestroyIcon@4
 .idata$5       0x00c2e6c0        0x4 c:/Dev/TDM-GCC-32/bin/../lib/gcc/mingw32/5.1.0/../../..\libuser32.a(daois00144.o)
                0x00c2e6c0                _imp__DestroyWindow@4
 .idata$5       0x00c2e6c4        0x4 c:/Dev/TDM-GCC-32/bin/../lib/gcc/mingw32/5.1.0/../../..\libuser32.a(daois00149.o)
                0x00c2e6c4                _imp__DispatchMessageA@4
 .idata$5       0x00c2e6c8        0x4 c:/Dev/TDM-GCC-32/bin/../lib/gcc/mingw32/5.1.0/../../..\libuser32.a(daois00184.o)
                0x00c2e6c8                _imp__EndPaint@8
 .idata$5       0x00c2e6cc        0x4 c:/Dev/TDM-GCC-32/bin/../lib/gcc/mingw32/5.1.0/../../..\libuser32.a(daois00194.o)
                0x00c2e6cc                _imp__EnumDisplaySettingsA@12
 .idata$5       0x00c2e6d0        0x4 c:/Dev/TDM-GCC-32/bin/../lib/gcc/mingw32/5.1.0/../../..\libuser32.a(daois00227.o)
                0x00c2e6d0                _imp__GetClassInfoA@12
 .idata$5       0x00c2e6d4        0x4 c:/Dev/TDM-GCC-32/bin/../lib/gcc/mingw32/5.1.0/../../..\libuser32.a(daois00236.o)
                0x00c2e6d4                _imp__GetClientRect@8
 .idata$5       0x00c2e6d8        0x4 c:/Dev/TDM-GCC-32/bin/../lib/gcc/mingw32/5.1.0/../../..\libuser32.a(daois00245.o)
                0x00c2e6d8                _imp__GetCursor@0
 .idata$5       0x00c2e6dc        0x4 c:/Dev/TDM-GCC-32/bin/../lib/gcc/mingw32/5.1.0/../../..\libuser32.a(daois00247.o)
                0x00c2e6dc                _imp__GetCursorPos@4
 .idata$5       0x00c2e6e0        0x4 c:/Dev/TDM-GCC-32/bin/../lib/gcc/mingw32/5.1.0/../../..\libuser32.a(daois00248.o)
                0x00c2e6e0                _imp__GetDC@4
 .idata$5       0x00c2e6e4        0x4 c:/Dev/TDM-GCC-32/bin/../lib/gcc/mingw32/5.1.0/../../..\libuser32.a(daois00268.o)
                0x00c2e6e4                _imp__GetKeyState@4
 .idata$5       0x00c2e6e8        0x4 c:/Dev/TDM-GCC-32/bin/../lib/gcc/mingw32/5.1.0/../../..\libuser32.a(daois00269.o)
                0x00c2e6e8                _imp__GetKeyboardLayout@4
 .idata$5       0x00c2e6ec        0x4 c:/Dev/TDM-GCC-32/bin/../lib/gcc/mingw32/5.1.0/../../..\libuser32.a(daois00271.o)
                0x00c2e6ec                _imp__GetKeyboardLayoutNameA@4
 .idata$5       0x00c2e6f0        0x4 c:/Dev/TDM-GCC-32/bin/../lib/gcc/mingw32/5.1.0/../../..\libuser32.a(daois00273.o)
                0x00c2e6f0                _imp__GetKeyboardState@4
 .idata$5       0x00c2e6f4        0x4 c:/Dev/TDM-GCC-32/bin/../lib/gcc/mingw32/5.1.0/../../..\libuser32.a(daois00279.o)
                0x00c2e6f4                _imp__GetMenu@4
 .idata$5       0x00c2e6f8        0x4 c:/Dev/TDM-GCC-32/bin/../lib/gcc/mingw32/5.1.0/../../..\libuser32.a(daois00293.o)
                0x00c2e6f8                _imp__GetMessageA@16
 .idata$5       0x00c2e6fc        0x4 c:/Dev/TDM-GCC-32/bin/../lib/gcc/mingw32/5.1.0/../../..\libuser32.a(daois00304.o)
                0x00c2e6fc                _imp__GetParent@4
 .idata$5       0x00c2e700        0x4 c:/Dev/TDM-GCC-32/bin/../lib/gcc/mingw32/5.1.0/../../..\libuser32.a(daois00326.o)
                0x00c2e700                _imp__GetSystemMetrics@4
 .idata$5       0x00c2e704        0x4 c:/Dev/TDM-GCC-32/bin/../lib/gcc/mingw32/5.1.0/../../..\libuser32.a(daois00342.o)
                0x00c2e704                _imp__GetWindowLongA@8
 .idata$5       0x00c2e708        0x4 c:/Dev/TDM-GCC-32/bin/../lib/gcc/mingw32/5.1.0/../../..\libuser32.a(daois00348.o)
                0x00c2e708                _imp__GetWindowRect@8
 .idata$5       0x00c2e70c        0x4 c:/Dev/TDM-GCC-32/bin/../lib/gcc/mingw32/5.1.0/../../..\libuser32.a(daois00370.o)
                0x00c2e70c                _imp__InvalidateRect@12
 .idata$5       0x00c2e710        0x4 c:/Dev/TDM-GCC-32/bin/../lib/gcc/mingw32/5.1.0/../../..\libuser32.a(daois00398.o)
                0x00c2e710                _imp__IsZoomed@4
 .idata$5       0x00c2e714        0x4 c:/Dev/TDM-GCC-32/bin/../lib/gcc/mingw32/5.1.0/../../..\libuser32.a(daois00400.o)
                0x00c2e714                _imp__KillTimer@8
 .idata$5       0x00c2e718        0x4 c:/Dev/TDM-GCC-32/bin/../lib/gcc/mingw32/5.1.0/../../..\libuser32.a(daois00411.o)
                0x00c2e718                _imp__LoadImageA@24
 .idata$5       0x00c2e71c        0x4 c:/Dev/TDM-GCC-32/bin/../lib/gcc/mingw32/5.1.0/../../..\libuser32.a(daois00413.o)
                0x00c2e71c                _imp__LoadKeyboardLayoutA@8
 .idata$5       0x00c2e720        0x4 c:/Dev/TDM-GCC-32/bin/../lib/gcc/mingw32/5.1.0/../../..\libuser32.a(daois00428.o)
                0x00c2e720                _imp__MapVirtualKeyExA@12
 .idata$5       0x00c2e724        0x4 c:/Dev/TDM-GCC-32/bin/../lib/gcc/mingw32/5.1.0/../../..\libuser32.a(daois00431.o)
                0x00c2e724                _imp__MapWindowPoints@16
 .idata$5       0x00c2e728        0x4 c:/Dev/TDM-GCC-32/bin/../lib/gcc/mingw32/5.1.0/../../..\libuser32.a(daois00464.o)
                0x00c2e728                _imp__PeekMessageA@20
 .idata$5       0x00c2e72c        0x4 c:/Dev/TDM-GCC-32/bin/../lib/gcc/mingw32/5.1.0/../../..\libuser32.a(daois00466.o)
                0x00c2e72c                _imp__PostMessageA@16
 .idata$5       0x00c2e730        0x4 c:/Dev/TDM-GCC-32/bin/../lib/gcc/mingw32/5.1.0/../../..\libuser32.a(daois00468.o)
                0x00c2e730                _imp__PostQuitMessage@4
 .idata$5       0x00c2e734        0x4 c:/Dev/TDM-GCC-32/bin/../lib/gcc/mingw32/5.1.0/../../..\libuser32.a(daois00474.o)
                0x00c2e734                _imp__PtInRect@12
 .idata$5       0x00c2e738        0x4 c:/Dev/TDM-GCC-32/bin/../lib/gcc/mingw32/5.1.0/../../..\libuser32.a(daois00479.o)
                0x00c2e738                _imp__RegisterClassA@4
 .idata$5       0x00c2e73c        0x4 c:/Dev/TDM-GCC-32/bin/../lib/gcc/mingw32/5.1.0/../../..\libuser32.a(daois00493.o)
                0x00c2e73c                _imp__ReleaseCapture@0
 .idata$5       0x00c2e740        0x4 c:/Dev/TDM-GCC-32/bin/../lib/gcc/mingw32/5.1.0/../../..\libuser32.a(daois00494.o)
                0x00c2e740                _imp__ReleaseDC@8
 .idata$5       0x00c2e744        0x4 c:/Dev/TDM-GCC-32/bin/../lib/gcc/mingw32/5.1.0/../../..\libuser32.a(daois00500.o)
                0x00c2e744                _imp__ScreenToClient@8
 .idata$5       0x00c2e748        0x4 c:/Dev/TDM-GCC-32/bin/../lib/gcc/mingw32/5.1.0/../../..\libuser32.a(daois00517.o)
                0x00c2e748                _imp__SetCapture@4
 .idata$5       0x00c2e74c        0x4 c:/Dev/TDM-GCC-32/bin/../lib/gcc/mingw32/5.1.0/../../..\libuser32.a(daois00520.o)
                0x00c2e74c                _imp__SetClassLongA@12
 .idata$5       0x00c2e750        0x4 c:/Dev/TDM-GCC-32/bin/../lib/gcc/mingw32/5.1.0/../../..\libuser32.a(daois00525.o)
                0x00c2e750                _imp__SetCursor@4
 .idata$5       0x00c2e754        0x4 c:/Dev/TDM-GCC-32/bin/../lib/gcc/mingw32/5.1.0/../../..\libuser32.a(daois00526.o)
                0x00c2e754                _imp__SetCursorPos@8
 .idata$5       0x00c2e758        0x4 c:/Dev/TDM-GCC-32/bin/../lib/gcc/mingw32/5.1.0/../../..\libuser32.a(daois00533.o)
                0x00c2e758                _imp__SetFocus@4
 .idata$5       0x00c2e75c        0x4 c:/Dev/TDM-GCC-32/bin/../lib/gcc/mingw32/5.1.0/../../..\libuser32.a(daois00534.o)
                0x00c2e75c                _imp__SetForegroundWindow@4
 .idata$5       0x00c2e760        0x4 c:/Dev/TDM-GCC-32/bin/../lib/gcc/mingw32/5.1.0/../../..\libuser32.a(daois00563.o)
                0x00c2e760                _imp__SetTimer@16
 .idata$5       0x00c2e764        0x4 c:/Dev/TDM-GCC-32/bin/../lib/gcc/mingw32/5.1.0/../../..\libuser32.a(daois00569.o)
                0x00c2e764                _imp__SetWindowLongA@12
 .idata$5       0x00c2e768        0x4 c:/Dev/TDM-GCC-32/bin/../lib/gcc/mingw32/5.1.0/../../..\libuser32.a(daois00572.o)
                0x00c2e768                _imp__SetWindowPos@28
 .idata$5       0x00c2e76c        0x4 c:/Dev/TDM-GCC-32/bin/../lib/gcc/mingw32/5.1.0/../../..\libuser32.a(daois00574.o)
                0x00c2e76c                _imp__SetWindowTextA@8
 .idata$5       0x00c2e770        0x4 c:/Dev/TDM-GCC-32/bin/../lib/gcc/mingw32/5.1.0/../../..\libuser32.a(daois00575.o)
                0x00c2e770                _imp__SetWindowTextW@8
 .idata$5       0x00c2e774        0x4 c:/Dev/TDM-GCC-32/bin/../lib/gcc/mingw32/5.1.0/../../..\libuser32.a(daois00585.o)
                0x00c2e774                _imp__ShowWindow@8
 .idata$5       0x00c2e778        0x4 c:/Dev/TDM-GCC-32/bin/../lib/gcc/mingw32/5.1.0/../../..\libuser32.a(daois00598.o)
                0x00c2e778                _imp__ToAsciiEx@24
 .idata$5       0x00c2e77c        0x4 c:/Dev/TDM-GCC-32/bin/../lib/gcc/mingw32/5.1.0/../../..\libuser32.a(daois00599.o)
                0x00c2e77c                _imp__ToUnicode@24
 .idata$5       0x00c2e780        0x4 c:/Dev/TDM-GCC-32/bin/../lib/gcc/mingw32/5.1.0/../../..\libuser32.a(daois00608.o)
                0x00c2e780                _imp__TranslateMessage@4
 .idata$5       0x00c2e784        0x4 c:/Dev/TDM-GCC-32/bin/../lib/gcc/mingw32/5.1.0/../../..\libuser32.a(daois00615.o)
                0x00c2e784                _imp__UnregisterClassA@8
 .idata$5       0x00c2e788        0x4 c:/Dev/TDM-GCC-32/bin/../lib/gcc/mingw32/5.1.0/../../..\libuser32.a(daois00635.o)
                0x00c2e788                _imp__WindowFromPoint@8
 .idata$5       0x00c2e78c        0x4 c:/Dev/TDM-GCC-32/bin/../lib/gcc/mingw32/5.1.0/../../..\libuser32.a(daoit.o)
 .idata$5       0x00c2e790        0x0 c:/Dev/TDM-GCC-32/bin/../lib/gcc/mingw32/5.1.0/../../..\libwinmm.a(dopch.o)
 .idata$5       0x00c2e790        0x4 c:/Dev/TDM-GCC-32/bin/../lib/gcc/mingw32/5.1.0/../../..\libwinmm.a(dopcs00023.o)
                0x00c2e790                _imp__joyGetDevCapsA@12
 .idata$5       0x00c2e794        0x4 c:/Dev/TDM-GCC-32/bin/../lib/gcc/mingw32/5.1.0/../../..\libwinmm.a(dopcs00025.o)
                0x00c2e794                _imp__joyGetNumDevs@0
 .idata$5       0x00c2e798        0x4 c:/Dev/TDM-GCC-32/bin/../lib/gcc/mingw32/5.1.0/../../..\libwinmm.a(dopcs00027.o)
                0x00c2e798                _imp__joyGetPosEx@8
 .idata$5       0x00c2e79c        0x4 c:/Dev/TDM-GCC-32/bin/../lib/gcc/mingw32/5.1.0/../../..\libwinmm.a(dopcs00043.o)
                0x00c2e79c                _imp__mciGetErrorStringA@12
 .idata$5       0x00c2e7a0        0x4 c:/Dev/TDM-GCC-32/bin/../lib/gcc/mingw32/5.1.0/../../..\libwinmm.a(dopcs00047.o)
                0x00c2e7a0                _imp__mciSendCommandA@16
 .idata$5       0x00c2e7a4        0x4 c:/Dev/TDM-GCC-32/bin/../lib/gcc/mingw32/5.1.0/../../..\libwinmm.a(dopcs00144.o)
                0x00c2e7a4                _imp__timeBeginPeriod@4
 .idata$5       0x00c2e7a8        0x4 c:/Dev/TDM-GCC-32/bin/../lib/gcc/mingw32/5.1.0/../../..\libwinmm.a(dopcs00145.o)
                0x00c2e7a8                _imp__timeEndPeriod@4
 .idata$5       0x00c2e7ac        0x4 c:/Dev/TDM-GCC-32/bin/../lib/gcc/mingw32/5.1.0/../../..\libwinmm.a(dopcs00148.o)
                0x00c2e7ac                _imp__timeGetTime@0
 .idata$5       0x00c2e7b0        0x4 c:/Dev/TDM-GCC-32/bin/../lib/gcc/mingw32/5.1.0/../../..\libwinmm.a(dopcs00149.o)
                0x00c2e7b0                _imp__timeKillEvent@4
 .idata$5       0x00c2e7b4        0x4 c:/Dev/TDM-GCC-32/bin/../lib/gcc/mingw32/5.1.0/../../..\libwinmm.a(dopcs00150.o)
                0x00c2e7b4                _imp__timeSetEvent@20
 .idata$5       0x00c2e7b8        0x4 c:/Dev/TDM-GCC-32/bin/../lib/gcc/mingw32/5.1.0/../../..\libwinmm.a(dopcs00168.o)
                0x00c2e7b8                _imp__waveOutClose@4
 .idata$5       0x00c2e7bc        0x4 c:/Dev/TDM-GCC-32/bin/../lib/gcc/mingw32/5.1.0/../../..\libwinmm.a(dopcs00171.o)
                0x00c2e7bc                _imp__waveOutGetErrorTextA@12
 .idata$5       0x00c2e7c0        0x4 c:/Dev/TDM-GCC-32/bin/../lib/gcc/mingw32/5.1.0/../../..\libwinmm.a(dopcs00180.o)
                0x00c2e7c0                _imp__waveOutOpen@24
 .idata$5       0x00c2e7c4        0x4 c:/Dev/TDM-GCC-32/bin/../lib/gcc/mingw32/5.1.0/../../..\libwinmm.a(dopcs00182.o)
                0x00c2e7c4                _imp__waveOutPrepareHeader@12
 .idata$5       0x00c2e7c8        0x4 c:/Dev/TDM-GCC-32/bin/../lib/gcc/mingw32/5.1.0/../../..\libwinmm.a(dopcs00188.o)
                0x00c2e7c8                _imp__waveOutUnprepareHeader@12
 .idata$5       0x00c2e7cc        0x4 c:/Dev/TDM-GCC-32/bin/../lib/gcc/mingw32/5.1.0/../../..\libwinmm.a(dopcs00189.o)
                0x00c2e7cc                _imp__waveOutWrite@12
 .idata$5       0x00c2e7d0        0x4 c:/Dev/TDM-GCC-32/bin/../lib/gcc/mingw32/5.1.0/../../..\libwinmm.a(dopct.o)
                0x00c2e7d4                __IAT_end__ = .
 SORT(*)(.idata$6)
 .idata$6       0x00c2e7d4        0xe c:/Dev/TDM-GCC-32/bin/../lib/gcc/mingw32/5.1.0/../../..\libadvapi32.a(dgxgs00386.o)
 .idata$6       0x00c2e7e2       0x10 c:/Dev/TDM-GCC-32/bin/../lib/gcc/mingw32/5.1.0/../../..\libadvapi32.a(dgxgs00413.o)
 .idata$6       0x00c2e7f2       0x14 c:/Dev/TDM-GCC-32/bin/../lib/gcc/mingw32/5.1.0/../../..\libadvapi32.a(dgxgs00423.o)
 .idata$6       0x00c2e806       0x14 c:/Dev/TDM-GCC-32/bin/../lib/gcc/mingw32/5.1.0/../../..\libcomdlg32.a(demds00009.o)
 .idata$6       0x00c2e81a        0xa c:/Dev/TDM-GCC-32/bin/../lib/gcc/mingw32/5.1.0/../../..\libgdi32.a(dkfhs00012.o)
 .idata$6       0x00c2e824       0x14 c:/Dev/TDM-GCC-32/bin/../lib/gcc/mingw32/5.1.0/../../..\libgdi32.a(dkfhs00015.o)
 .idata$6       0x00c2e838       0x1a c:/Dev/TDM-GCC-32/bin/../lib/gcc/mingw32/5.1.0/../../..\libgdi32.a(dkfhs00033.o)
 .idata$6       0x00c2e852       0x16 c:/Dev/TDM-GCC-32/bin/../lib/gcc/mingw32/5.1.0/../../..\libgdi32.a(dkfhs00034.o)
 .idata$6       0x00c2e868       0x14 c:/Dev/TDM-GCC-32/bin/../lib/gcc/mingw32/5.1.0/../../..\libgdi32.a(dkfhs00039.o)
 .idata$6       0x00c2e87c       0x10 c:/Dev/TDM-GCC-32/bin/../lib/gcc/mingw32/5.1.0/../../..\libgdi32.a(dkfhs00056.o)
 .idata$6       0x00c2e88c        0xc c:/Dev/TDM-GCC-32/bin/../lib/gcc/mingw32/5.1.0/../../..\libgdi32.a(dkfhs00070.o)
 .idata$6       0x00c2e898       0x10 c:/Dev/TDM-GCC-32/bin/../lib/gcc/mingw32/5.1.0/../../..\libgdi32.a(dkfhs00073.o)
 .idata$6       0x00c2e8a8       0x16 c:/Dev/TDM-GCC-32/bin/../lib/gcc/mingw32/5.1.0/../../..\libgdi32.a(dkfhs00074.o)
 .idata$6       0x00c2e8be        0xc c:/Dev/TDM-GCC-32/bin/../lib/gcc/mingw32/5.1.0/../../..\libgdi32.a(dkfhs00147.o)
 .idata$6       0x00c2e8ca       0x16 c:/Dev/TDM-GCC-32/bin/../lib/gcc/mingw32/5.1.0/../../..\libgdi32.a(dkfhs00149.o)
 .idata$6       0x00c2e8e0       0x1a c:/Dev/TDM-GCC-32/bin/../lib/gcc/mingw32/5.1.0/../../..\libgdi32.a(dkfhs00203.o)
 .idata$6       0x00c2e8fa       0x16 c:/Dev/TDM-GCC-32/bin/../lib/gcc/mingw32/5.1.0/../../..\libgdi32.a(dkfhs00204.o)
 .idata$6       0x00c2e910       0x12 c:/Dev/TDM-GCC-32/bin/../lib/gcc/mingw32/5.1.0/../../..\libgdi32.a(dkfhs00260.o)
 .idata$6       0x00c2e922       0x10 c:/Dev/TDM-GCC-32/bin/../lib/gcc/mingw32/5.1.0/../../..\libgdi32.a(dkfhs00281.o)
 .idata$6       0x00c2e932       0x10 c:/Dev/TDM-GCC-32/bin/../lib/gcc/mingw32/5.1.0/../../..\libgdi32.a(dkfhs00282.o)
 .idata$6       0x00c2e942       0x14 c:/Dev/TDM-GCC-32/bin/../lib/gcc/mingw32/5.1.0/../../..\libgdi32.a(dkfhs00295.o)
 .idata$6       0x00c2e956       0x16 c:/Dev/TDM-GCC-32/bin/../lib/gcc/mingw32/5.1.0/../../..\libgdi32.a(dkfhs00298.o)
 .idata$6       0x00c2e96c       0x14 c:/Dev/TDM-GCC-32/bin/../lib/gcc/mingw32/5.1.0/../../..\libgdi32.a(dkfhs00311.o)
 .idata$6       0x00c2e980       0x12 c:/Dev/TDM-GCC-32/bin/../lib/gcc/mingw32/5.1.0/../../..\libgdi32.a(dkfhs00313.o)
 .idata$6       0x00c2e992       0x16 c:/Dev/TDM-GCC-32/bin/../lib/gcc/mingw32/5.1.0/../../..\libgdi32.a(dkfhs00320.o)
 .idata$6       0x00c2e9a8        0xe c:/Dev/TDM-GCC-32/bin/../lib/gcc/mingw32/5.1.0/../../..\libgdi32.a(dkfhs00338.o)
 .idata$6       0x00c2e9b6       0x12 c:/Dev/TDM-GCC-32/bin/../lib/gcc/mingw32/5.1.0/../../..\libgdi32.a(dkfhs00342.o)
 .idata$6       0x00c2e9c8        0xe c:/Dev/TDM-GCC-32/bin/../lib/gcc/mingw32/5.1.0/../../..\libkernel32.a(dchds00082.o)
 .idata$6       0x00c2e9d6        0xe c:/Dev/TDM-GCC-32/bin/../lib/gcc/mingw32/5.1.0/../../..\libkernel32.a(dchds00135.o)
 .idata$6       0x00c2e9e4        0xe c:/Dev/TDM-GCC-32/bin/../lib/gcc/mingw32/5.1.0/../../..\libkernel32.a(dchds00142.o)
 .idata$6       0x00c2e9f2       0x10 c:/Dev/TDM-GCC-32/bin/../lib/gcc/mingw32/5.1.0/../../..\libkernel32.a(dchds00154.o)
 .idata$6       0x00c2ea02       0x14 c:/Dev/TDM-GCC-32/bin/../lib/gcc/mingw32/5.1.0/../../..\libkernel32.a(dchds00169.o)
 .idata$6       0x00c2ea16       0x18 c:/Dev/TDM-GCC-32/bin/../lib/gcc/mingw32/5.1.0/../../..\libkernel32.a(dchds00207.o)
 .idata$6       0x00c2ea2e       0x18 c:/Dev/TDM-GCC-32/bin/../lib/gcc/mingw32/5.1.0/../../..\libkernel32.a(dchds00236.o)
 .idata$6       0x00c2ea46        0xe c:/Dev/TDM-GCC-32/bin/../lib/gcc/mingw32/5.1.0/../../..\libkernel32.a(dchds00279.o)
 .idata$6       0x00c2ea54        0xe c:/Dev/TDM-GCC-32/bin/../lib/gcc/mingw32/5.1.0/../../..\libkernel32.a(dchds00352.o)
 .idata$6       0x00c2ea62        0xa c:/Dev/TDM-GCC-32/bin/../lib/gcc/mingw32/5.1.0/../../..\libkernel32.a(dchds00358.o)
 .idata$6       0x00c2ea6c       0x12 c:/Dev/TDM-GCC-32/bin/../lib/gcc/mingw32/5.1.0/../../..\libkernel32.a(dchds00388.o)
 .idata$6       0x00c2ea7e       0x14 c:/Dev/TDM-GCC-32/bin/../lib/gcc/mingw32/5.1.0/../../..\libkernel32.a(dchds00450.o)
 .idata$6       0x00c2ea92       0x16 c:/Dev/TDM-GCC-32/bin/../lib/gcc/mingw32/5.1.0/../../..\libkernel32.a(dchds00451.o)
 .idata$6       0x00c2eaa8       0x10 c:/Dev/TDM-GCC-32/bin/../lib/gcc/mingw32/5.1.0/../../..\libkernel32.a(dchds00464.o)
 .idata$6       0x00c2eab8       0x1a c:/Dev/TDM-GCC-32/bin/../lib/gcc/mingw32/5.1.0/../../..\libkernel32.a(dchds00473.o)
 .idata$6       0x00c2ead2       0x10 c:/Dev/TDM-GCC-32/bin/../lib/gcc/mingw32/5.1.0/../../..\libkernel32.a(dchds00510.o)
 .idata$6       0x00c2eae2       0x12 c:/Dev/TDM-GCC-32/bin/../lib/gcc/mingw32/5.1.0/../../..\libkernel32.a(dchds00512.o)
 .idata$6       0x00c2eaf4       0x14 c:/Dev/TDM-GCC-32/bin/../lib/gcc/mingw32/5.1.0/../../..\libkernel32.a(dchds00529.o)
 .idata$6       0x00c2eb08       0x12 c:/Dev/TDM-GCC-32/bin/../lib/gcc/mingw32/5.1.0/../../..\libkernel32.a(dchds00577.o)
 .idata$6       0x00c2eb1a       0x12 c:/Dev/TDM-GCC-32/bin/../lib/gcc/mingw32/5.1.0/../../..\libkernel32.a(dchds00606.o)
 .idata$6       0x00c2eb2c       0x10 c:/Dev/TDM-GCC-32/bin/../lib/gcc/mingw32/5.1.0/../../..\libkernel32.a(dchds00671.o)
 .idata$6       0x00c2eb3c       0x1c c:/Dev/TDM-GCC-32/bin/../lib/gcc/mingw32/5.1.0/../../..\libkernel32.a(dchds00734.o)
 .idata$6       0x00c2eb58       0x18 c:/Dev/TDM-GCC-32/bin/../lib/gcc/mingw32/5.1.0/../../..\libkernel32.a(dchds00743.o)
 .idata$6       0x00c2eb70       0x16 c:/Dev/TDM-GCC-32/bin/../lib/gcc/mingw32/5.1.0/../../..\libkernel32.a(dchds00744.o)
 .idata$6       0x00c2eb86       0x18 c:/Dev/TDM-GCC-32/bin/../lib/gcc/mingw32/5.1.0/../../..\libkernel32.a(dchds00747.o)
 .idata$6       0x00c2eb9e       0x14 c:/Dev/TDM-GCC-32/bin/../lib/gcc/mingw32/5.1.0/../../..\libkernel32.a(dchds00763.o)
 .idata$6       0x00c2ebb2       0x18 c:/Dev/TDM-GCC-32/bin/../lib/gcc/mingw32/5.1.0/../../..\libkernel32.a(dchds00814.o)
 .idata$6       0x00c2ebca       0x10 c:/Dev/TDM-GCC-32/bin/../lib/gcc/mingw32/5.1.0/../../..\libkernel32.a(dchds00817.o)
 .idata$6       0x00c2ebda       0x16 c:/Dev/TDM-GCC-32/bin/../lib/gcc/mingw32/5.1.0/../../..\libkernel32.a(dchds00860.o)
 .idata$6       0x00c2ebf0       0x1a c:/Dev/TDM-GCC-32/bin/../lib/gcc/mingw32/5.1.0/../../..\libkernel32.a(dchds00922.o)
 .idata$6       0x00c2ec0a       0x1c c:/Dev/TDM-GCC-32/bin/../lib/gcc/mingw32/5.1.0/../../..\libkernel32.a(dchds00923.o)
 .idata$6       0x00c2ec26        0xc c:/Dev/TDM-GCC-32/bin/../lib/gcc/mingw32/5.1.0/../../..\libkernel32.a(dchds00947.o)
 .idata$6       0x00c2ec32       0x10 c:/Dev/TDM-GCC-32/bin/../lib/gcc/mingw32/5.1.0/../../..\libkernel32.a(dchds00974.o)
 .idata$6       0x00c2ec42       0x14 c:/Dev/TDM-GCC-32/bin/../lib/gcc/mingw32/5.1.0/../../..\libkernel32.a(dchds00978.o)
 .idata$6       0x00c2ec56       0x1a c:/Dev/TDM-GCC-32/bin/../lib/gcc/mingw32/5.1.0/../../..\libkernel32.a(dchds01062.o)
 .idata$6       0x00c2ec70       0x10 c:/Dev/TDM-GCC-32/bin/../lib/gcc/mingw32/5.1.0/../../..\libkernel32.a(dchds01064.o)
 .idata$6       0x00c2ec80       0x12 c:/Dev/TDM-GCC-32/bin/../lib/gcc/mingw32/5.1.0/../../..\libkernel32.a(dchds01078.o)
 .idata$6       0x00c2ec92       0x14 c:/Dev/TDM-GCC-32/bin/../lib/gcc/mingw32/5.1.0/../../..\libkernel32.a(dchds01129.o)
 .idata$6       0x00c2eca6       0x1e c:/Dev/TDM-GCC-32/bin/../lib/gcc/mingw32/5.1.0/../../..\libkernel32.a(dchds01140.o)
 .idata$6       0x00c2ecc4        0x8 c:/Dev/TDM-GCC-32/bin/../lib/gcc/mingw32/5.1.0/../../..\libkernel32.a(dchds01152.o)
 .idata$6       0x00c2eccc       0x12 c:/Dev/TDM-GCC-32/bin/../lib/gcc/mingw32/5.1.0/../../..\libkernel32.a(dchds01167.o)
 .idata$6       0x00c2ecde        0xe c:/Dev/TDM-GCC-32/bin/../lib/gcc/mingw32/5.1.0/../../..\libkernel32.a(dchds01173.o)
 .idata$6       0x00c2ecec       0x12 c:/Dev/TDM-GCC-32/bin/../lib/gcc/mingw32/5.1.0/../../..\libkernel32.a(dchds01213.o)
 .idata$6       0x00c2ecfe       0x10 c:/Dev/TDM-GCC-32/bin/../lib/gcc/mingw32/5.1.0/../../..\libkernel32.a(dchds01215.o)
 .idata$6       0x00c2ed0e       0x16 c:/Dev/TDM-GCC-32/bin/../lib/gcc/mingw32/5.1.0/../../..\libkernel32.a(dchds01223.o)
 .idata$6       0x00c2ed24       0x16 c:/Dev/TDM-GCC-32/bin/../lib/gcc/mingw32/5.1.0/../../..\libkernel32.a(dchds01247.o)
 .idata$6       0x00c2ed3a        0xc c:/Dev/TDM-GCC-32/bin/../lib/gcc/mingw32/5.1.0/../../..\libkernel32.a(dchds01267.o)
 .idata$6       0x00c2ed46        0xa c:/Dev/TDM-GCC-32/bin/../lib/gcc/mingw32/5.1.0/../../..\libmoldname.a(dofms00006.o)
 .idata$6       0x00c2ed50        0xa c:/Dev/TDM-GCC-32/bin/../lib/gcc/mingw32/5.1.0/../../..\libmoldname.a(dofms00037.o)
 .idata$6       0x00c2ed5a        0x8 c:/Dev/TDM-GCC-32/bin/../lib/gcc/mingw32/5.1.0/../../..\libmoldname.a(dofms00058.o)
 .idata$6       0x00c2ed62        0x8 c:/Dev/TDM-GCC-32/bin/../lib/gcc/mingw32/5.1.0/../../..\libmoldname.a(dofms00064.o)
 .idata$6       0x00c2ed6a        0xa c:/Dev/TDM-GCC-32/bin/../lib/gcc/mingw32/5.1.0/../../..\libmoldname.a(dofms00080.o)
 .idata$6       0x00c2ed74        0xc c:/Dev/TDM-GCC-32/bin/../lib/gcc/mingw32/5.1.0/../../..\libmoldname.a(dofms00081.o)
 .idata$6       0x00c2ed80        0xa c:/Dev/TDM-GCC-32/bin/../lib/gcc/mingw32/5.1.0/../../..\libmoldname.a(dofms00097.o)
 .idata$6       0x00c2ed8a        0xa c:/Dev/TDM-GCC-32/bin/../lib/gcc/mingw32/5.1.0/../../..\libmoldname.a(dofms00109.o)
 .idata$6       0x00c2ed94       0x10 c:/Dev/TDM-GCC-32/bin/../lib/gcc/mingw32/5.1.0/../../..\libmsvcrt.a(dsnos00055.o)
 .idata$6       0x00c2eda4       0x10 c:/Dev/TDM-GCC-32/bin/../lib/gcc/mingw32/5.1.0/../../..\libmsvcrt.a(dsnos00065.o)
 .idata$6       0x00c2edb4       0x10 c:/Dev/TDM-GCC-32/bin/../lib/gcc/mingw32/5.1.0/../../..\libmsvcrt.a(dsnos00077.o)
 .idata$6       0x00c2edc4        0xe c:/Dev/TDM-GCC-32/bin/../lib/gcc/mingw32/5.1.0/../../..\libmsvcrt.a(dsnos00079.o)
 .idata$6       0x00c2edd2       0x12 c:/Dev/TDM-GCC-32/bin/../lib/gcc/mingw32/5.1.0/../../..\libmsvcrt.a(dsnos00099.o)
 .idata$6       0x00c2ede4       0x12 c:/Dev/TDM-GCC-32/bin/../lib/gcc/mingw32/5.1.0/../../..\libmsvcrt.a(dsnos00143.o)
 .idata$6       0x00c2edf6        0xa c:/Dev/TDM-GCC-32/bin/../lib/gcc/mingw32/5.1.0/../../..\libmsvcrt.a(dsnos00147.o)
 .idata$6       0x00c2ee00       0x10 c:/Dev/TDM-GCC-32/bin/../lib/gcc/mingw32/5.1.0/../../..\libmsvcrt.a(dsnos00179.o)
 .idata$6       0x00c2ee10        0xa c:/Dev/TDM-GCC-32/bin/../lib/gcc/mingw32/5.1.0/../../..\libmsvcrt.a(dsnos00182.o)
 .idata$6       0x00c2ee1a        0x8 c:/Dev/TDM-GCC-32/bin/../lib/gcc/mingw32/5.1.0/../../..\libmsvcrt.a(dsnos00266.o)
 .idata$6       0x00c2ee22        0xc c:/Dev/TDM-GCC-32/bin/../lib/gcc/mingw32/5.1.0/../../..\libmsvcrt.a(dsnos00268.o)
 .idata$6       0x00c2ee2e        0xc c:/Dev/TDM-GCC-32/bin/../lib/gcc/mingw32/5.1.0/../../..\libmsvcrt.a(dsnos00317.o)
 .idata$6       0x00c2ee3a        0xa c:/Dev/TDM-GCC-32/bin/../lib/gcc/mingw32/5.1.0/../../..\libmsvcrt.a(dsnos00383.o)
 .idata$6       0x00c2ee44        0xa c:/Dev/TDM-GCC-32/bin/../lib/gcc/mingw32/5.1.0/../../..\libmsvcrt.a(dsnos00392.o)
 .idata$6       0x00c2ee4e        0xc c:/Dev/TDM-GCC-32/bin/../lib/gcc/mingw32/5.1.0/../../..\libmsvcrt.a(dsnos00426.o)
 .idata$6       0x00c2ee5a        0xc c:/Dev/TDM-GCC-32/bin/../lib/gcc/mingw32/5.1.0/../../..\libmsvcrt.a(dsnos00451.o)
 .idata$6       0x00c2ee66        0xa c:/Dev/TDM-GCC-32/bin/../lib/gcc/mingw32/5.1.0/../../..\libmsvcrt.a(dsnos00544.o)
 .idata$6       0x00c2ee70        0x8 c:/Dev/TDM-GCC-32/bin/../lib/gcc/mingw32/5.1.0/../../..\libmsvcrt.a(dsnos00583.o)
 .idata$6       0x00c2ee78        0xa c:/Dev/TDM-GCC-32/bin/../lib/gcc/mingw32/5.1.0/../../..\libmsvcrt.a(dsnos00590.o)
 .idata$6       0x00c2ee82        0x8 c:/Dev/TDM-GCC-32/bin/../lib/gcc/mingw32/5.1.0/../../..\libmsvcrt.a(dsnos00591.o)
 .idata$6       0x00c2ee8a        0x8 c:/Dev/TDM-GCC-32/bin/../lib/gcc/mingw32/5.1.0/../../..\libmsvcrt.a(dsnos00592.o)
 .idata$6       0x00c2ee92        0xa c:/Dev/TDM-GCC-32/bin/../lib/gcc/mingw32/5.1.0/../../..\libmsvcrt.a(dsnos00595.o)
 .idata$6       0x00c2ee9c        0x8 c:/Dev/TDM-GCC-32/bin/../lib/gcc/mingw32/5.1.0/../../..\libmsvcrt.a(dsnos00604.o)
 .idata$6       0x00c2eea4        0xa c:/Dev/TDM-GCC-32/bin/../lib/gcc/mingw32/5.1.0/../../..\libmsvcrt.a(dsnos00607.o)
 .idata$6       0x00c2eeae        0x8 c:/Dev/TDM-GCC-32/bin/../lib/gcc/mingw32/5.1.0/../../..\libmsvcrt.a(dsnos00613.o)
 .idata$6       0x00c2eeb6        0x8 c:/Dev/TDM-GCC-32/bin/../lib/gcc/mingw32/5.1.0/../../..\libmsvcrt.a(dsnos00618.o)
 .idata$6       0x00c2eebe        0xa c:/Dev/TDM-GCC-32/bin/../lib/gcc/mingw32/5.1.0/../../..\libmsvcrt.a(dsnos00619.o)
 .idata$6       0x00c2eec8        0x8 c:/Dev/TDM-GCC-32/bin/../lib/gcc/mingw32/5.1.0/../../..\libmsvcrt.a(dsnos00620.o)
 .idata$6       0x00c2eed0        0x8 c:/Dev/TDM-GCC-32/bin/../lib/gcc/mingw32/5.1.0/../../..\libmsvcrt.a(dsnos00624.o)
 .idata$6       0x00c2eed8        0x8 c:/Dev/TDM-GCC-32/bin/../lib/gcc/mingw32/5.1.0/../../..\libmsvcrt.a(dsnos00625.o)
 .idata$6       0x00c2eee0        0x8 c:/Dev/TDM-GCC-32/bin/../lib/gcc/mingw32/5.1.0/../../..\libmsvcrt.a(dsnos00629.o)
 .idata$6       0x00c2eee8        0x8 c:/Dev/TDM-GCC-32/bin/../lib/gcc/mingw32/5.1.0/../../..\libmsvcrt.a(dsnos00631.o)
 .idata$6       0x00c2eef0        0xa c:/Dev/TDM-GCC-32/bin/../lib/gcc/mingw32/5.1.0/../../..\libmsvcrt.a(dsnos00633.o)
 .idata$6       0x00c2eefa        0xa c:/Dev/TDM-GCC-32/bin/../lib/gcc/mingw32/5.1.0/../../..\libmsvcrt.a(dsnos00637.o)
 .idata$6       0x00c2ef04        0xe c:/Dev/TDM-GCC-32/bin/../lib/gcc/mingw32/5.1.0/../../..\libmsvcrt.a(dsnos00671.o)
 .idata$6       0x00c2ef12        0xa c:/Dev/TDM-GCC-32/bin/../lib/gcc/mingw32/5.1.0/../../..\libmsvcrt.a(dsnos00676.o)
 .idata$6       0x00c2ef1c        0xa c:/Dev/TDM-GCC-32/bin/../lib/gcc/mingw32/5.1.0/../../..\libmsvcrt.a(dsnos00680.o)
 .idata$6       0x00c2ef26        0xa c:/Dev/TDM-GCC-32/bin/../lib/gcc/mingw32/5.1.0/../../..\libmsvcrt.a(dsnos00681.o)
 .idata$6       0x00c2ef30        0xa c:/Dev/TDM-GCC-32/bin/../lib/gcc/mingw32/5.1.0/../../..\libmsvcrt.a(dsnos00682.o)
 .idata$6       0x00c2ef3a        0xa c:/Dev/TDM-GCC-32/bin/../lib/gcc/mingw32/5.1.0/../../..\libmsvcrt.a(dsnos00683.o)
 .idata$6       0x00c2ef44        0xa c:/Dev/TDM-GCC-32/bin/../lib/gcc/mingw32/5.1.0/../../..\libmsvcrt.a(dsnos00684.o)
 .idata$6       0x00c2ef4e        0x6 c:/Dev/TDM-GCC-32/bin/../lib/gcc/mingw32/5.1.0/../../..\libmsvcrt.a(dsnos00688.o)
 .idata$6       0x00c2ef54        0x8 c:/Dev/TDM-GCC-32/bin/../lib/gcc/mingw32/5.1.0/../../..\libmsvcrt.a(dsnos00695.o)
 .idata$6       0x00c2ef5c        0x8 c:/Dev/TDM-GCC-32/bin/../lib/gcc/mingw32/5.1.0/../../..\libmsvcrt.a(dsnos00696.o)
 .idata$6       0x00c2ef64        0xa c:/Dev/TDM-GCC-32/bin/../lib/gcc/mingw32/5.1.0/../../..\libmsvcrt.a(dsnos00698.o)
 .idata$6       0x00c2ef6e        0xc c:/Dev/TDM-GCC-32/bin/../lib/gcc/mingw32/5.1.0/../../..\libmsvcrt.a(dsnos00704.o)
 .idata$6       0x00c2ef7a        0xa c:/Dev/TDM-GCC-32/bin/../lib/gcc/mingw32/5.1.0/../../..\libmsvcrt.a(dsnos00706.o)
 .idata$6       0x00c2ef84        0xa c:/Dev/TDM-GCC-32/bin/../lib/gcc/mingw32/5.1.0/../../..\libmsvcrt.a(dsnos00709.o)
 .idata$6       0x00c2ef8e        0xa c:/Dev/TDM-GCC-32/bin/../lib/gcc/mingw32/5.1.0/../../..\libmsvcrt.a(dsnos00712.o)
 .idata$6       0x00c2ef98        0xa c:/Dev/TDM-GCC-32/bin/../lib/gcc/mingw32/5.1.0/../../..\libmsvcrt.a(dsnos00714.o)
 .idata$6       0x00c2efa2        0xa c:/Dev/TDM-GCC-32/bin/../lib/gcc/mingw32/5.1.0/../../..\libmsvcrt.a(dsnos00715.o)
 .idata$6       0x00c2efac        0xa c:/Dev/TDM-GCC-32/bin/../lib/gcc/mingw32/5.1.0/../../..\libmsvcrt.a(dsnos00717.o)
 .idata$6       0x00c2efb6        0xc c:/Dev/TDM-GCC-32/bin/../lib/gcc/mingw32/5.1.0/../../..\libmsvcrt.a(dsnos00719.o)
 .idata$6       0x00c2efc2        0xa c:/Dev/TDM-GCC-32/bin/../lib/gcc/mingw32/5.1.0/../../..\libmsvcrt.a(dsnos00721.o)
 .idata$6       0x00c2efcc        0xa c:/Dev/TDM-GCC-32/bin/../lib/gcc/mingw32/5.1.0/../../..\libmsvcrt.a(dsnos00728.o)
 .idata$6       0x00c2efd6        0xc c:/Dev/TDM-GCC-32/bin/../lib/gcc/mingw32/5.1.0/../../..\libmsvcrt.a(dsnos00748.o)
 .idata$6       0x00c2efe2        0xa c:/Dev/TDM-GCC-32/bin/../lib/gcc/mingw32/5.1.0/../../..\libmsvcrt.a(dsnos00761.o)
 .idata$6       0x00c2efec        0xc c:/Dev/TDM-GCC-32/bin/../lib/gcc/mingw32/5.1.0/../../..\libmsvcrt.a(dsnos00772.o)
 .idata$6       0x00c2eff8       0x14 c:/Dev/TDM-GCC-32/bin/../lib/gcc/mingw32/5.1.0/../../..\libuser32.a(daois00001.o)
 .idata$6       0x00c2f00c       0x16 c:/Dev/TDM-GCC-32/bin/../lib/gcc/mingw32/5.1.0/../../..\libuser32.a(daois00002.o)
 .idata$6       0x00c2f022        0xe c:/Dev/TDM-GCC-32/bin/../lib/gcc/mingw32/5.1.0/../../..\libuser32.a(daois00011.o)
 .idata$6       0x00c2f030       0x12 c:/Dev/TDM-GCC-32/bin/../lib/gcc/mingw32/5.1.0/../../..\libuser32.a(daois00024.o)
 .idata$6       0x00c2f042       0x1a c:/Dev/TDM-GCC-32/bin/../lib/gcc/mingw32/5.1.0/../../..\libuser32.a(daois00029.o)
 .idata$6       0x00c2f05c       0x12 c:/Dev/TDM-GCC-32/bin/../lib/gcc/mingw32/5.1.0/../../..\libuser32.a(daois00059.o)
 .idata$6       0x00c2f06e        0xe c:/Dev/TDM-GCC-32/bin/../lib/gcc/mingw32/5.1.0/../../..\libuser32.a(daois00060.o)
 .idata$6       0x00c2f07c       0x10 c:/Dev/TDM-GCC-32/bin/../lib/gcc/mingw32/5.1.0/../../..\libuser32.a(daois00075.o)
 .idata$6       0x00c2f08c       0x1c c:/Dev/TDM-GCC-32/bin/../lib/gcc/mingw32/5.1.0/../../..\libuser32.a(daois00084.o)
 .idata$6       0x00c2f0a8       0x12 c:/Dev/TDM-GCC-32/bin/../lib/gcc/mingw32/5.1.0/../../..\libuser32.a(daois00090.o)
 .idata$6       0x00c2f0ba       0x12 c:/Dev/TDM-GCC-32/bin/../lib/gcc/mingw32/5.1.0/../../..\libuser32.a(daois00134.o)
 .idata$6       0x00c2f0cc       0x10 c:/Dev/TDM-GCC-32/bin/../lib/gcc/mingw32/5.1.0/../../..\libuser32.a(daois00141.o)
 .idata$6       0x00c2f0dc        0xe c:/Dev/TDM-GCC-32/bin/../lib/gcc/mingw32/5.1.0/../../..\libuser32.a(daois00142.o)
 .idata$6       0x00c2f0ea       0x10 c:/Dev/TDM-GCC-32/bin/../lib/gcc/mingw32/5.1.0/../../..\libuser32.a(daois00144.o)
 .idata$6       0x00c2f0fa       0x14 c:/Dev/TDM-GCC-32/bin/../lib/gcc/mingw32/5.1.0/../../..\libuser32.a(daois00149.o)
 .idata$6       0x00c2f10e        0xc c:/Dev/TDM-GCC-32/bin/../lib/gcc/mingw32/5.1.0/../../..\libuser32.a(daois00184.o)
 .idata$6       0x00c2f11a       0x18 c:/Dev/TDM-GCC-32/bin/../lib/gcc/mingw32/5.1.0/../../..\libuser32.a(daois00194.o)
 .idata$6       0x00c2f132       0x10 c:/Dev/TDM-GCC-32/bin/../lib/gcc/mingw32/5.1.0/../../..\libuser32.a(daois00227.o)
 .idata$6       0x00c2f142       0x10 c:/Dev/TDM-GCC-32/bin/../lib/gcc/mingw32/5.1.0/../../..\libuser32.a(daois00236.o)
 .idata$6       0x00c2f152        0xc c:/Dev/TDM-GCC-32/bin/../lib/gcc/mingw32/5.1.0/../../..\libuser32.a(daois00245.o)
 .idata$6       0x00c2f15e       0x10 c:/Dev/TDM-GCC-32/bin/../lib/gcc/mingw32/5.1.0/../../..\libuser32.a(daois00247.o)
 .idata$6       0x00c2f16e        0x8 c:/Dev/TDM-GCC-32/bin/../lib/gcc/mingw32/5.1.0/../../..\libuser32.a(daois00248.o)
 .idata$6       0x00c2f176        0xe c:/Dev/TDM-GCC-32/bin/../lib/gcc/mingw32/5.1.0/../../..\libuser32.a(daois00268.o)
 .idata$6       0x00c2f184       0x14 c:/Dev/TDM-GCC-32/bin/../lib/gcc/mingw32/5.1.0/../../..\libuser32.a(daois00269.o)
 .idata$6       0x00c2f198       0x1a c:/Dev/TDM-GCC-32/bin/../lib/gcc/mingw32/5.1.0/../../..\libuser32.a(daois00271.o)
 .idata$6       0x00c2f1b2       0x14 c:/Dev/TDM-GCC-32/bin/../lib/gcc/mingw32/5.1.0/../../..\libuser32.a(daois00273.o)
 .idata$6       0x00c2f1c6        0xa c:/Dev/TDM-GCC-32/bin/../lib/gcc/mingw32/5.1.0/../../..\libuser32.a(daois00279.o)
 .idata$6       0x00c2f1d0        0xe c:/Dev/TDM-GCC-32/bin/../lib/gcc/mingw32/5.1.0/../../..\libuser32.a(daois00293.o)
 .idata$6       0x00c2f1de        0xc c:/Dev/TDM-GCC-32/bin/../lib/gcc/mingw32/5.1.0/../../..\libuser32.a(daois00304.o)
 .idata$6       0x00c2f1ea       0x14 c:/Dev/TDM-GCC-32/bin/../lib/gcc/mingw32/5.1.0/../../..\libuser32.a(daois00326.o)
 .idata$6       0x00c2f1fe       0x12 c:/Dev/TDM-GCC-32/bin/../lib/gcc/mingw32/5.1.0/../../..\libuser32.a(daois00342.o)
 .idata$6       0x00c2f210       0x10 c:/Dev/TDM-GCC-32/bin/../lib/gcc/mingw32/5.1.0/../../..\libuser32.a(daois00348.o)
 .idata$6       0x00c2f220       0x12 c:/Dev/TDM-GCC-32/bin/../lib/gcc/mingw32/5.1.0/../../..\libuser32.a(daois00370.o)
 .idata$6       0x00c2f232        0xc c:/Dev/TDM-GCC-32/bin/../lib/gcc/mingw32/5.1.0/../../..\libuser32.a(daois00398.o)
 .idata$6       0x00c2f23e        0xc c:/Dev/TDM-GCC-32/bin/../lib/gcc/mingw32/5.1.0/../../..\libuser32.a(daois00400.o)
 .idata$6       0x00c2f24a        0xe c:/Dev/TDM-GCC-32/bin/../lib/gcc/mingw32/5.1.0/../../..\libuser32.a(daois00411.o)
 .idata$6       0x00c2f258       0x16 c:/Dev/TDM-GCC-32/bin/../lib/gcc/mingw32/5.1.0/../../..\libuser32.a(daois00413.o)
 .idata$6       0x00c2f26e       0x14 c:/Dev/TDM-GCC-32/bin/../lib/gcc/mingw32/5.1.0/../../..\libuser32.a(daois00428.o)
 .idata$6       0x00c2f282       0x12 c:/Dev/TDM-GCC-32/bin/../lib/gcc/mingw32/5.1.0/../../..\libuser32.a(daois00431.o)
 .idata$6       0x00c2f294       0x10 c:/Dev/TDM-GCC-32/bin/../lib/gcc/mingw32/5.1.0/../../..\libuser32.a(daois00464.o)
 .idata$6       0x00c2f2a4       0x10 c:/Dev/TDM-GCC-32/bin/../lib/gcc/mingw32/5.1.0/../../..\libuser32.a(daois00466.o)
 .idata$6       0x00c2f2b4       0x12 c:/Dev/TDM-GCC-32/bin/../lib/gcc/mingw32/5.1.0/../../..\libuser32.a(daois00468.o)
 .idata$6       0x00c2f2c6        0xc c:/Dev/TDM-GCC-32/bin/../lib/gcc/mingw32/5.1.0/../../..\libuser32.a(daois00474.o)
 .idata$6       0x00c2f2d2       0x12 c:/Dev/TDM-GCC-32/bin/../lib/gcc/mingw32/5.1.0/../../..\libuser32.a(daois00479.o)
 .idata$6       0x00c2f2e4       0x12 c:/Dev/TDM-GCC-32/bin/../lib/gcc/mingw32/5.1.0/../../..\libuser32.a(daois00493.o)
 .idata$6       0x00c2f2f6        0xc c:/Dev/TDM-GCC-32/bin/../lib/gcc/mingw32/5.1.0/../../..\libuser32.a(daois00494.o)
 .idata$6       0x00c2f302       0x12 c:/Dev/TDM-GCC-32/bin/../lib/gcc/mingw32/5.1.0/../../..\libuser32.a(daois00500.o)
 .idata$6       0x00c2f314        0xe c:/Dev/TDM-GCC-32/bin/../lib/gcc/mingw32/5.1.0/../../..\libuser32.a(daois00517.o)
 .idata$6       0x00c2f322       0x10 c:/Dev/TDM-GCC-32/bin/../lib/gcc/mingw32/5.1.0/../../..\libuser32.a(daois00520.o)
 .idata$6       0x00c2f332        0xc c:/Dev/TDM-GCC-32/bin/../lib/gcc/mingw32/5.1.0/../../..\libuser32.a(daois00525.o)
 .idata$6       0x00c2f33e       0x10 c:/Dev/TDM-GCC-32/bin/../lib/gcc/mingw32/5.1.0/../../..\libuser32.a(daois00526.o)
 .idata$6       0x00c2f34e        0xc c:/Dev/TDM-GCC-32/bin/../lib/gcc/mingw32/5.1.0/../../..\libuser32.a(daois00533.o)
 .idata$6       0x00c2f35a       0x16 c:/Dev/TDM-GCC-32/bin/../lib/gcc/mingw32/5.1.0/../../..\libuser32.a(daois00534.o)
 .idata$6       0x00c2f370        0xc c:/Dev/TDM-GCC-32/bin/../lib/gcc/mingw32/5.1.0/../../..\libuser32.a(daois00563.o)
 .idata$6       0x00c2f37c       0x12 c:/Dev/TDM-GCC-32/bin/../lib/gcc/mingw32/5.1.0/../../..\libuser32.a(daois00569.o)
 .idata$6       0x00c2f38e       0x10 c:/Dev/TDM-GCC-32/bin/../lib/gcc/mingw32/5.1.0/../../..\libuser32.a(daois00572.o)
 .idata$6       0x00c2f39e       0x12 c:/Dev/TDM-GCC-32/bin/../lib/gcc/mingw32/5.1.0/../../..\libuser32.a(daois00574.o)
 .idata$6       0x00c2f3b0       0x12 c:/Dev/TDM-GCC-32/bin/../lib/gcc/mingw32/5.1.0/../../..\libuser32.a(daois00575.o)
 .idata$6       0x00c2f3c2        0xe c:/Dev/TDM-GCC-32/bin/../lib/gcc/mingw32/5.1.0/../../..\libuser32.a(daois00585.o)
 .idata$6       0x00c2f3d0        0xc c:/Dev/TDM-GCC-32/bin/../lib/gcc/mingw32/5.1.0/../../..\libuser32.a(daois00598.o)
 .idata$6       0x00c2f3dc        0xc c:/Dev/TDM-GCC-32/bin/../lib/gcc/mingw32/5.1.0/../../..\libuser32.a(daois00599.o)
 .idata$6       0x00c2f3e8       0x14 c:/Dev/TDM-GCC-32/bin/../lib/gcc/mingw32/5.1.0/../../..\libuser32.a(daois00608.o)
 .idata$6       0x00c2f3fc       0x14 c:/Dev/TDM-GCC-32/bin/../lib/gcc/mingw32/5.1.0/../../..\libuser32.a(daois00615.o)
 .idata$6       0x00c2f410       0x12 c:/Dev/TDM-GCC-32/bin/../lib/gcc/mingw32/5.1.0/../../..\libuser32.a(daois00635.o)
 .idata$6       0x00c2f422       0x12 c:/Dev/TDM-GCC-32/bin/../lib/gcc/mingw32/5.1.0/../../..\libwinmm.a(dopcs00023.o)
 .idata$6       0x00c2f434       0x10 c:/Dev/TDM-GCC-32/bin/../lib/gcc/mingw32/5.1.0/../../..\libwinmm.a(dopcs00025.o)
 .idata$6       0x00c2f444        0xe c:/Dev/TDM-GCC-32/bin/../lib/gcc/mingw32/5.1.0/../../..\libwinmm.a(dopcs00027.o)
 .idata$6       0x00c2f452       0x16 c:/Dev/TDM-GCC-32/bin/../lib/gcc/mingw32/5.1.0/../../..\libwinmm.a(dopcs00043.o)
 .idata$6       0x00c2f468       0x12 c:/Dev/TDM-GCC-32/bin/../lib/gcc/mingw32/5.1.0/../../..\libwinmm.a(dopcs00047.o)
 .idata$6       0x00c2f47a       0x12 c:/Dev/TDM-GCC-32/bin/../lib/gcc/mingw32/5.1.0/../../..\libwinmm.a(dopcs00144.o)
 .idata$6       0x00c2f48c       0x10 c:/Dev/TDM-GCC-32/bin/../lib/gcc/mingw32/5.1.0/../../..\libwinmm.a(dopcs00145.o)
 .idata$6       0x00c2f49c        0xe c:/Dev/TDM-GCC-32/bin/../lib/gcc/mingw32/5.1.0/../../..\libwinmm.a(dopcs00148.o)
 .idata$6       0x00c2f4aa       0x10 c:/Dev/TDM-GCC-32/bin/../lib/gcc/mingw32/5.1.0/../../..\libwinmm.a(dopcs00149.o)
 .idata$6       0x00c2f4ba       0x10 c:/Dev/TDM-GCC-32/bin/../lib/gcc/mingw32/5.1.0/../../..\libwinmm.a(dopcs00150.o)
 .idata$6       0x00c2f4ca       0x10 c:/Dev/TDM-GCC-32/bin/../lib/gcc/mingw32/5.1.0/../../..\libwinmm.a(dopcs00168.o)
 .idata$6       0x00c2f4da       0x18 c:/Dev/TDM-GCC-32/bin/../lib/gcc/mingw32/5.1.0/../../..\libwinmm.a(dopcs00171.o)
 .idata$6       0x00c2f4f2        0xe c:/Dev/TDM-GCC-32/bin/../lib/gcc/mingw32/5.1.0/../../..\libwinmm.a(dopcs00180.o)
 .idata$6       0x00c2f500       0x18 c:/Dev/TDM-GCC-32/bin/../lib/gcc/mingw32/5.1.0/../../..\libwinmm.a(dopcs00182.o)
 .idata$6       0x00c2f518       0x1a c:/Dev/TDM-GCC-32/bin/../lib/gcc/mingw32/5.1.0/../../..\libwinmm.a(dopcs00188.o)
 .idata$6       0x00c2f532       0x10 c:/Dev/TDM-GCC-32/bin/../lib/gcc/mingw32/5.1.0/../../..\libwinmm.a(dopcs00189.o)
 SORT(*)(.idata$7)
 *fill*         0x00c2f542        0x2 
 .idata$7       0x00c2f544        0x4 c:/Dev/TDM-GCC-32/bin/../lib/gcc/mingw32/5.1.0/../../..\libadvapi32.a(dgxgs00386.o)
 .idata$7       0x00c2f548        0x4 c:/Dev/TDM-GCC-32/bin/../lib/gcc/mingw32/5.1.0/../../..\libadvapi32.a(dgxgs00413.o)
 .idata$7       0x00c2f54c        0x4 c:/Dev/TDM-GCC-32/bin/../lib/gcc/mingw32/5.1.0/../../..\libadvapi32.a(dgxgs00423.o)
 .idata$7       0x00c2f550       0x10 c:/Dev/TDM-GCC-32/bin/../lib/gcc/mingw32/5.1.0/../../..\libadvapi32.a(dgxgt.o)
                0x00c2f550                _libadvapi32_a_iname
 .idata$7       0x00c2f560        0x4 c:/Dev/TDM-GCC-32/bin/../lib/gcc/mingw32/5.1.0/../../..\libcomdlg32.a(demds00009.o)
 .idata$7       0x00c2f564       0x10 c:/Dev/TDM-GCC-32/bin/../lib/gcc/mingw32/5.1.0/../../..\libcomdlg32.a(demdt.o)
                0x00c2f564                _libcomdlg32_a_iname
 .idata$7       0x00c2f574        0x4 c:/Dev/TDM-GCC-32/bin/../lib/gcc/mingw32/5.1.0/../../..\libgdi32.a(dkfhs00012.o)
 .idata$7       0x00c2f578        0x4 c:/Dev/TDM-GCC-32/bin/../lib/gcc/mingw32/5.1.0/../../..\libgdi32.a(dkfhs00015.o)
 .idata$7       0x00c2f57c        0x4 c:/Dev/TDM-GCC-32/bin/../lib/gcc/mingw32/5.1.0/../../..\libgdi32.a(dkfhs00033.o)
 .idata$7       0x00c2f580        0x4 c:/Dev/TDM-GCC-32/bin/../lib/gcc/mingw32/5.1.0/../../..\libgdi32.a(dkfhs00034.o)
 .idata$7       0x00c2f584        0x4 c:/Dev/TDM-GCC-32/bin/../lib/gcc/mingw32/5.1.0/../../..\libgdi32.a(dkfhs00039.o)
 .idata$7       0x00c2f588        0x4 c:/Dev/TDM-GCC-32/bin/../lib/gcc/mingw32/5.1.0/../../..\libgdi32.a(dkfhs00056.o)
 .idata$7       0x00c2f58c        0x4 c:/Dev/TDM-GCC-32/bin/../lib/gcc/mingw32/5.1.0/../../..\libgdi32.a(dkfhs00070.o)
 .idata$7       0x00c2f590        0x4 c:/Dev/TDM-GCC-32/bin/../lib/gcc/mingw32/5.1.0/../../..\libgdi32.a(dkfhs00073.o)
 .idata$7       0x00c2f594        0x4 c:/Dev/TDM-GCC-32/bin/../lib/gcc/mingw32/5.1.0/../../..\libgdi32.a(dkfhs00074.o)
 .idata$7       0x00c2f598        0x4 c:/Dev/TDM-GCC-32/bin/../lib/gcc/mingw32/5.1.0/../../..\libgdi32.a(dkfhs00147.o)
 .idata$7       0x00c2f59c        0x4 c:/Dev/TDM-GCC-32/bin/../lib/gcc/mingw32/5.1.0/../../..\libgdi32.a(dkfhs00149.o)
 .idata$7       0x00c2f5a0        0x4 c:/Dev/TDM-GCC-32/bin/../lib/gcc/mingw32/5.1.0/../../..\libgdi32.a(dkfhs00203.o)
 .idata$7       0x00c2f5a4        0x4 c:/Dev/TDM-GCC-32/bin/../lib/gcc/mingw32/5.1.0/../../..\libgdi32.a(dkfhs00204.o)
 .idata$7       0x00c2f5a8        0x4 c:/Dev/TDM-GCC-32/bin/../lib/gcc/mingw32/5.1.0/../../..\libgdi32.a(dkfhs00260.o)
 .idata$7       0x00c2f5ac        0x4 c:/Dev/TDM-GCC-32/bin/../lib/gcc/mingw32/5.1.0/../../..\libgdi32.a(dkfhs00281.o)
 .idata$7       0x00c2f5b0        0x4 c:/Dev/TDM-GCC-32/bin/../lib/gcc/mingw32/5.1.0/../../..\libgdi32.a(dkfhs00282.o)
 .idata$7       0x00c2f5b4        0x4 c:/Dev/TDM-GCC-32/bin/../lib/gcc/mingw32/5.1.0/../../..\libgdi32.a(dkfhs00295.o)
 .idata$7       0x00c2f5b8        0x4 c:/Dev/TDM-GCC-32/bin/../lib/gcc/mingw32/5.1.0/../../..\libgdi32.a(dkfhs00298.o)
 .idata$7       0x00c2f5bc        0x4 c:/Dev/TDM-GCC-32/bin/../lib/gcc/mingw32/5.1.0/../../..\libgdi32.a(dkfhs00311.o)
 .idata$7       0x00c2f5c0        0x4 c:/Dev/TDM-GCC-32/bin/../lib/gcc/mingw32/5.1.0/../../..\libgdi32.a(dkfhs00313.o)
 .idata$7       0x00c2f5c4        0x4 c:/Dev/TDM-GCC-32/bin/../lib/gcc/mingw32/5.1.0/../../..\libgdi32.a(dkfhs00320.o)
 .idata$7       0x00c2f5c8        0x4 c:/Dev/TDM-GCC-32/bin/../lib/gcc/mingw32/5.1.0/../../..\libgdi32.a(dkfhs00338.o)
 .idata$7       0x00c2f5cc        0x4 c:/Dev/TDM-GCC-32/bin/../lib/gcc/mingw32/5.1.0/../../..\libgdi32.a(dkfhs00342.o)
 .idata$7       0x00c2f5d0        0xc c:/Dev/TDM-GCC-32/bin/../lib/gcc/mingw32/5.1.0/../../..\libgdi32.a(dkfht.o)
                0x00c2f5d0                _libgdi32_a_iname
 .idata$7       0x00c2f5dc        0x4 c:/Dev/TDM-GCC-32/bin/../lib/gcc/mingw32/5.1.0/../../..\libkernel32.a(dchds00082.o)
 .idata$7       0x00c2f5e0        0x4 c:/Dev/TDM-GCC-32/bin/../lib/gcc/mingw32/5.1.0/../../..\libkernel32.a(dchds00135.o)
 .idata$7       0x00c2f5e4        0x4 c:/Dev/TDM-GCC-32/bin/../lib/gcc/mingw32/5.1.0/../../..\libkernel32.a(dchds00142.o)
 .idata$7       0x00c2f5e8        0x4 c:/Dev/TDM-GCC-32/bin/../lib/gcc/mingw32/5.1.0/../../..\libkernel32.a(dchds00154.o)
 .idata$7       0x00c2f5ec        0x4 c:/Dev/TDM-GCC-32/bin/../lib/gcc/mingw32/5.1.0/../../..\libkernel32.a(dchds00169.o)
 .idata$7       0x00c2f5f0        0x4 c:/Dev/TDM-GCC-32/bin/../lib/gcc/mingw32/5.1.0/../../..\libkernel32.a(dchds00207.o)
 .idata$7       0x00c2f5f4        0x4 c:/Dev/TDM-GCC-32/bin/../lib/gcc/mingw32/5.1.0/../../..\libkernel32.a(dchds00236.o)
 .idata$7       0x00c2f5f8        0x4 c:/Dev/TDM-GCC-32/bin/../lib/gcc/mingw32/5.1.0/../../..\libkernel32.a(dchds00279.o)
 .idata$7       0x00c2f5fc        0x4 c:/Dev/TDM-GCC-32/bin/../lib/gcc/mingw32/5.1.0/../../..\libkernel32.a(dchds00352.o)
 .idata$7       0x00c2f600        0x4 c:/Dev/TDM-GCC-32/bin/../lib/gcc/mingw32/5.1.0/../../..\libkernel32.a(dchds00358.o)
 .idata$7       0x00c2f604        0x4 c:/Dev/TDM-GCC-32/bin/../lib/gcc/mingw32/5.1.0/../../..\libkernel32.a(dchds00388.o)
 .idata$7       0x00c2f608        0x4 c:/Dev/TDM-GCC-32/bin/../lib/gcc/mingw32/5.1.0/../../..\libkernel32.a(dchds00450.o)
 .idata$7       0x00c2f60c        0x4 c:/Dev/TDM-GCC-32/bin/../lib/gcc/mingw32/5.1.0/../../..\libkernel32.a(dchds00451.o)
 .idata$7       0x00c2f610        0x4 c:/Dev/TDM-GCC-32/bin/../lib/gcc/mingw32/5.1.0/../../..\libkernel32.a(dchds00464.o)
 .idata$7       0x00c2f614        0x4 c:/Dev/TDM-GCC-32/bin/../lib/gcc/mingw32/5.1.0/../../..\libkernel32.a(dchds00473.o)
 .idata$7       0x00c2f618        0x4 c:/Dev/TDM-GCC-32/bin/../lib/gcc/mingw32/5.1.0/../../..\libkernel32.a(dchds00510.o)
 .idata$7       0x00c2f61c        0x4 c:/Dev/TDM-GCC-32/bin/../lib/gcc/mingw32/5.1.0/../../..\libkernel32.a(dchds00512.o)
 .idata$7       0x00c2f620        0x4 c:/Dev/TDM-GCC-32/bin/../lib/gcc/mingw32/5.1.0/../../..\libkernel32.a(dchds00529.o)
 .idata$7       0x00c2f624        0x4 c:/Dev/TDM-GCC-32/bin/../lib/gcc/mingw32/5.1.0/../../..\libkernel32.a(dchds00577.o)
 .idata$7       0x00c2f628        0x4 c:/Dev/TDM-GCC-32/bin/../lib/gcc/mingw32/5.1.0/../../..\libkernel32.a(dchds00606.o)
 .idata$7       0x00c2f62c        0x4 c:/Dev/TDM-GCC-32/bin/../lib/gcc/mingw32/5.1.0/../../..\libkernel32.a(dchds00671.o)
 .idata$7       0x00c2f630        0x4 c:/Dev/TDM-GCC-32/bin/../lib/gcc/mingw32/5.1.0/../../..\libkernel32.a(dchds00734.o)
 .idata$7       0x00c2f634        0x4 c:/Dev/TDM-GCC-32/bin/../lib/gcc/mingw32/5.1.0/../../..\libkernel32.a(dchds00743.o)
 .idata$7       0x00c2f638        0x4 c:/Dev/TDM-GCC-32/bin/../lib/gcc/mingw32/5.1.0/../../..\libkernel32.a(dchds00744.o)
 .idata$7       0x00c2f63c        0x4 c:/Dev/TDM-GCC-32/bin/../lib/gcc/mingw32/5.1.0/../../..\libkernel32.a(dchds00747.o)
 .idata$7       0x00c2f640        0x4 c:/Dev/TDM-GCC-32/bin/../lib/gcc/mingw32/5.1.0/../../..\libkernel32.a(dchds00763.o)
 .idata$7       0x00c2f644        0x4 c:/Dev/TDM-GCC-32/bin/../lib/gcc/mingw32/5.1.0/../../..\libkernel32.a(dchds00814.o)
 .idata$7       0x00c2f648        0x4 c:/Dev/TDM-GCC-32/bin/../lib/gcc/mingw32/5.1.0/../../..\libkernel32.a(dchds00817.o)
 .idata$7       0x00c2f64c        0x4 c:/Dev/TDM-GCC-32/bin/../lib/gcc/mingw32/5.1.0/../../..\libkernel32.a(dchds00860.o)
 .idata$7       0x00c2f650        0x4 c:/Dev/TDM-GCC-32/bin/../lib/gcc/mingw32/5.1.0/../../..\libkernel32.a(dchds00922.o)
 .idata$7       0x00c2f654        0x4 c:/Dev/TDM-GCC-32/bin/../lib/gcc/mingw32/5.1.0/../../..\libkernel32.a(dchds00923.o)
 .idata$7       0x00c2f658        0x4 c:/Dev/TDM-GCC-32/bin/../lib/gcc/mingw32/5.1.0/../../..\libkernel32.a(dchds00947.o)
 .idata$7       0x00c2f65c        0x4 c:/Dev/TDM-GCC-32/bin/../lib/gcc/mingw32/5.1.0/../../..\libkernel32.a(dchds00974.o)
 .idata$7       0x00c2f660        0x4 c:/Dev/TDM-GCC-32/bin/../lib/gcc/mingw32/5.1.0/../../..\libkernel32.a(dchds00978.o)
 .idata$7       0x00c2f664        0x4 c:/Dev/TDM-GCC-32/bin/../lib/gcc/mingw32/5.1.0/../../..\libkernel32.a(dchds01062.o)
 .idata$7       0x00c2f668        0x4 c:/Dev/TDM-GCC-32/bin/../lib/gcc/mingw32/5.1.0/../../..\libkernel32.a(dchds01064.o)
 .idata$7       0x00c2f66c        0x4 c:/Dev/TDM-GCC-32/bin/../lib/gcc/mingw32/5.1.0/../../..\libkernel32.a(dchds01078.o)
 .idata$7       0x00c2f670        0x4 c:/Dev/TDM-GCC-32/bin/../lib/gcc/mingw32/5.1.0/../../..\libkernel32.a(dchds01129.o)
 .idata$7       0x00c2f674        0x4 c:/Dev/TDM-GCC-32/bin/../lib/gcc/mingw32/5.1.0/../../..\libkernel32.a(dchds01140.o)
 .idata$7       0x00c2f678        0x4 c:/Dev/TDM-GCC-32/bin/../lib/gcc/mingw32/5.1.0/../../..\libkernel32.a(dchds01152.o)
 .idata$7       0x00c2f67c        0x4 c:/Dev/TDM-GCC-32/bin/../lib/gcc/mingw32/5.1.0/../../..\libkernel32.a(dchds01167.o)
 .idata$7       0x00c2f680        0x4 c:/Dev/TDM-GCC-32/bin/../lib/gcc/mingw32/5.1.0/../../..\libkernel32.a(dchds01173.o)
 .idata$7       0x00c2f684        0x4 c:/Dev/TDM-GCC-32/bin/../lib/gcc/mingw32/5.1.0/../../..\libkernel32.a(dchds01213.o)
 .idata$7       0x00c2f688        0x4 c:/Dev/TDM-GCC-32/bin/../lib/gcc/mingw32/5.1.0/../../..\libkernel32.a(dchds01215.o)
 .idata$7       0x00c2f68c        0x4 c:/Dev/TDM-GCC-32/bin/../lib/gcc/mingw32/5.1.0/../../..\libkernel32.a(dchds01223.o)
 .idata$7       0x00c2f690        0x4 c:/Dev/TDM-GCC-32/bin/../lib/gcc/mingw32/5.1.0/../../..\libkernel32.a(dchds01247.o)
 .idata$7       0x00c2f694        0x4 c:/Dev/TDM-GCC-32/bin/../lib/gcc/mingw32/5.1.0/../../..\libkernel32.a(dchds01267.o)
 .idata$7       0x00c2f698       0x10 c:/Dev/TDM-GCC-32/bin/../lib/gcc/mingw32/5.1.0/../../..\libkernel32.a(dchdt.o)
                0x00c2f698                _libkernel32_a_iname
 .idata$7       0x00c2f6a8        0x4 c:/Dev/TDM-GCC-32/bin/../lib/gcc/mingw32/5.1.0/../../..\libmoldname.a(dofms00006.o)
 .idata$7       0x00c2f6ac        0x4 c:/Dev/TDM-GCC-32/bin/../lib/gcc/mingw32/5.1.0/../../..\libmoldname.a(dofms00037.o)
 .idata$7       0x00c2f6b0        0x4 c:/Dev/TDM-GCC-32/bin/../lib/gcc/mingw32/5.1.0/../../..\libmoldname.a(dofms00058.o)
 .idata$7       0x00c2f6b4        0x4 c:/Dev/TDM-GCC-32/bin/../lib/gcc/mingw32/5.1.0/../../..\libmoldname.a(dofms00064.o)
 .idata$7       0x00c2f6b8        0x4 c:/Dev/TDM-GCC-32/bin/../lib/gcc/mingw32/5.1.0/../../..\libmoldname.a(dofms00080.o)
 .idata$7       0x00c2f6bc        0x4 c:/Dev/TDM-GCC-32/bin/../lib/gcc/mingw32/5.1.0/../../..\libmoldname.a(dofms00081.o)
 .idata$7       0x00c2f6c0        0x4 c:/Dev/TDM-GCC-32/bin/../lib/gcc/mingw32/5.1.0/../../..\libmoldname.a(dofms00097.o)
 .idata$7       0x00c2f6c4        0x4 c:/Dev/TDM-GCC-32/bin/../lib/gcc/mingw32/5.1.0/../../..\libmoldname.a(dofms00109.o)
 .idata$7       0x00c2f6c8        0xc c:/Dev/TDM-GCC-32/bin/../lib/gcc/mingw32/5.1.0/../../..\libmoldname.a(dofmt.o)
                0x00c2f6c8                _libmoldname_a_iname
 .idata$7       0x00c2f6d4        0x4 c:/Dev/TDM-GCC-32/bin/../lib/gcc/mingw32/5.1.0/../../..\libmsvcrt.a(dsnos00055.o)
 .idata$7       0x00c2f6d8        0x4 c:/Dev/TDM-GCC-32/bin/../lib/gcc/mingw32/5.1.0/../../..\libmsvcrt.a(dsnos00065.o)
 .idata$7       0x00c2f6dc        0x4 c:/Dev/TDM-GCC-32/bin/../lib/gcc/mingw32/5.1.0/../../..\libmsvcrt.a(dsnos00077.o)
 .idata$7       0x00c2f6e0        0x4 c:/Dev/TDM-GCC-32/bin/../lib/gcc/mingw32/5.1.0/../../..\libmsvcrt.a(dsnos00079.o)
 .idata$7       0x00c2f6e4        0x4 c:/Dev/TDM-GCC-32/bin/../lib/gcc/mingw32/5.1.0/../../..\libmsvcrt.a(dsnos00099.o)
 .idata$7       0x00c2f6e8        0x4 c:/Dev/TDM-GCC-32/bin/../lib/gcc/mingw32/5.1.0/../../..\libmsvcrt.a(dsnos00143.o)
 .idata$7       0x00c2f6ec        0x4 c:/Dev/TDM-GCC-32/bin/../lib/gcc/mingw32/5.1.0/../../..\libmsvcrt.a(dsnos00147.o)
 .idata$7       0x00c2f6f0        0x4 c:/Dev/TDM-GCC-32/bin/../lib/gcc/mingw32/5.1.0/../../..\libmsvcrt.a(dsnos00179.o)
 .idata$7       0x00c2f6f4        0x4 c:/Dev/TDM-GCC-32/bin/../lib/gcc/mingw32/5.1.0/../../..\libmsvcrt.a(dsnos00182.o)
 .idata$7       0x00c2f6f8        0x4 c:/Dev/TDM-GCC-32/bin/../lib/gcc/mingw32/5.1.0/../../..\libmsvcrt.a(dsnos00266.o)
 .idata$7       0x00c2f6fc        0x4 c:/Dev/TDM-GCC-32/bin/../lib/gcc/mingw32/5.1.0/../../..\libmsvcrt.a(dsnos00268.o)
 .idata$7       0x00c2f700        0x4 c:/Dev/TDM-GCC-32/bin/../lib/gcc/mingw32/5.1.0/../../..\libmsvcrt.a(dsnos00317.o)
 .idata$7       0x00c2f704        0x4 c:/Dev/TDM-GCC-32/bin/../lib/gcc/mingw32/5.1.0/../../..\libmsvcrt.a(dsnos00383.o)
 .idata$7       0x00c2f708        0x4 c:/Dev/TDM-GCC-32/bin/../lib/gcc/mingw32/5.1.0/../../..\libmsvcrt.a(dsnos00392.o)
 .idata$7       0x00c2f70c        0x4 c:/Dev/TDM-GCC-32/bin/../lib/gcc/mingw32/5.1.0/../../..\libmsvcrt.a(dsnos00426.o)
 .idata$7       0x00c2f710        0x4 c:/Dev/TDM-GCC-32/bin/../lib/gcc/mingw32/5.1.0/../../..\libmsvcrt.a(dsnos00451.o)
 .idata$7       0x00c2f714        0x4 c:/Dev/TDM-GCC-32/bin/../lib/gcc/mingw32/5.1.0/../../..\libmsvcrt.a(dsnos00544.o)
 .idata$7       0x00c2f718        0x4 c:/Dev/TDM-GCC-32/bin/../lib/gcc/mingw32/5.1.0/../../..\libmsvcrt.a(dsnos00583.o)
 .idata$7       0x00c2f71c        0x4 c:/Dev/TDM-GCC-32/bin/../lib/gcc/mingw32/5.1.0/../../..\libmsvcrt.a(dsnos00590.o)
 .idata$7       0x00c2f720        0x4 c:/Dev/TDM-GCC-32/bin/../lib/gcc/mingw32/5.1.0/../../..\libmsvcrt.a(dsnos00591.o)
 .idata$7       0x00c2f724        0x4 c:/Dev/TDM-GCC-32/bin/../lib/gcc/mingw32/5.1.0/../../..\libmsvcrt.a(dsnos00592.o)
 .idata$7       0x00c2f728        0x4 c:/Dev/TDM-GCC-32/bin/../lib/gcc/mingw32/5.1.0/../../..\libmsvcrt.a(dsnos00595.o)
 .idata$7       0x00c2f72c        0x4 c:/Dev/TDM-GCC-32/bin/../lib/gcc/mingw32/5.1.0/../../..\libmsvcrt.a(dsnos00604.o)
 .idata$7       0x00c2f730        0x4 c:/Dev/TDM-GCC-32/bin/../lib/gcc/mingw32/5.1.0/../../..\libmsvcrt.a(dsnos00607.o)
 .idata$7       0x00c2f734        0x4 c:/Dev/TDM-GCC-32/bin/../lib/gcc/mingw32/5.1.0/../../..\libmsvcrt.a(dsnos00613.o)
 .idata$7       0x00c2f738        0x4 c:/Dev/TDM-GCC-32/bin/../lib/gcc/mingw32/5.1.0/../../..\libmsvcrt.a(dsnos00618.o)
 .idata$7       0x00c2f73c        0x4 c:/Dev/TDM-GCC-32/bin/../lib/gcc/mingw32/5.1.0/../../..\libmsvcrt.a(dsnos00619.o)
 .idata$7       0x00c2f740        0x4 c:/Dev/TDM-GCC-32/bin/../lib/gcc/mingw32/5.1.0/../../..\libmsvcrt.a(dsnos00620.o)
 .idata$7       0x00c2f744        0x4 c:/Dev/TDM-GCC-32/bin/../lib/gcc/mingw32/5.1.0/../../..\libmsvcrt.a(dsnos00624.o)
 .idata$7       0x00c2f748        0x4 c:/Dev/TDM-GCC-32/bin/../lib/gcc/mingw32/5.1.0/../../..\libmsvcrt.a(dsnos00625.o)
 .idata$7       0x00c2f74c        0x4 c:/Dev/TDM-GCC-32/bin/../lib/gcc/mingw32/5.1.0/../../..\libmsvcrt.a(dsnos00629.o)
 .idata$7       0x00c2f750        0x4 c:/Dev/TDM-GCC-32/bin/../lib/gcc/mingw32/5.1.0/../../..\libmsvcrt.a(dsnos00631.o)
 .idata$7       0x00c2f754        0x4 c:/Dev/TDM-GCC-32/bin/../lib/gcc/mingw32/5.1.0/../../..\libmsvcrt.a(dsnos00633.o)
 .idata$7       0x00c2f758        0x4 c:/Dev/TDM-GCC-32/bin/../lib/gcc/mingw32/5.1.0/../../..\libmsvcrt.a(dsnos00637.o)
 .idata$7       0x00c2f75c        0x4 c:/Dev/TDM-GCC-32/bin/../lib/gcc/mingw32/5.1.0/../../..\libmsvcrt.a(dsnos00671.o)
 .idata$7       0x00c2f760        0x4 c:/Dev/TDM-GCC-32/bin/../lib/gcc/mingw32/5.1.0/../../..\libmsvcrt.a(dsnos00676.o)
 .idata$7       0x00c2f764        0x4 c:/Dev/TDM-GCC-32/bin/../lib/gcc/mingw32/5.1.0/../../..\libmsvcrt.a(dsnos00680.o)
 .idata$7       0x00c2f768        0x4 c:/Dev/TDM-GCC-32/bin/../lib/gcc/mingw32/5.1.0/../../..\libmsvcrt.a(dsnos00681.o)
 .idata$7       0x00c2f76c        0x4 c:/Dev/TDM-GCC-32/bin/../lib/gcc/mingw32/5.1.0/../../..\libmsvcrt.a(dsnos00682.o)
 .idata$7       0x00c2f770        0x4 c:/Dev/TDM-GCC-32/bin/../lib/gcc/mingw32/5.1.0/../../..\libmsvcrt.a(dsnos00683.o)
 .idata$7       0x00c2f774        0x4 c:/Dev/TDM-GCC-32/bin/../lib/gcc/mingw32/5.1.0/../../..\libmsvcrt.a(dsnos00684.o)
 .idata$7       0x00c2f778        0x4 c:/Dev/TDM-GCC-32/bin/../lib/gcc/mingw32/5.1.0/../../..\libmsvcrt.a(dsnos00688.o)
 .idata$7       0x00c2f77c        0x4 c:/Dev/TDM-GCC-32/bin/../lib/gcc/mingw32/5.1.0/../../..\libmsvcrt.a(dsnos00695.o)
 .idata$7       0x00c2f780        0x4 c:/Dev/TDM-GCC-32/bin/../lib/gcc/mingw32/5.1.0/../../..\libmsvcrt.a(dsnos00696.o)
 .idata$7       0x00c2f784        0x4 c:/Dev/TDM-GCC-32/bin/../lib/gcc/mingw32/5.1.0/../../..\libmsvcrt.a(dsnos00698.o)
 .idata$7       0x00c2f788        0x4 c:/Dev/TDM-GCC-32/bin/../lib/gcc/mingw32/5.1.0/../../..\libmsvcrt.a(dsnos00704.o)
 .idata$7       0x00c2f78c        0x4 c:/Dev/TDM-GCC-32/bin/../lib/gcc/mingw32/5.1.0/../../..\libmsvcrt.a(dsnos00706.o)
 .idata$7       0x00c2f790        0x4 c:/Dev/TDM-GCC-32/bin/../lib/gcc/mingw32/5.1.0/../../..\libmsvcrt.a(dsnos00709.o)
 .idata$7       0x00c2f794        0x4 c:/Dev/TDM-GCC-32/bin/../lib/gcc/mingw32/5.1.0/../../..\libmsvcrt.a(dsnos00712.o)
 .idata$7       0x00c2f798        0x4 c:/Dev/TDM-GCC-32/bin/../lib/gcc/mingw32/5.1.0/../../..\libmsvcrt.a(dsnos00714.o)
 .idata$7       0x00c2f79c        0x4 c:/Dev/TDM-GCC-32/bin/../lib/gcc/mingw32/5.1.0/../../..\libmsvcrt.a(dsnos00715.o)
 .idata$7       0x00c2f7a0        0x4 c:/Dev/TDM-GCC-32/bin/../lib/gcc/mingw32/5.1.0/../../..\libmsvcrt.a(dsnos00717.o)
 .idata$7       0x00c2f7a4        0x4 c:/Dev/TDM-GCC-32/bin/../lib/gcc/mingw32/5.1.0/../../..\libmsvcrt.a(dsnos00719.o)
 .idata$7       0x00c2f7a8        0x4 c:/Dev/TDM-GCC-32/bin/../lib/gcc/mingw32/5.1.0/../../..\libmsvcrt.a(dsnos00721.o)
 .idata$7       0x00c2f7ac        0x4 c:/Dev/TDM-GCC-32/bin/../lib/gcc/mingw32/5.1.0/../../..\libmsvcrt.a(dsnos00728.o)
 .idata$7       0x00c2f7b0        0x4 c:/Dev/TDM-GCC-32/bin/../lib/gcc/mingw32/5.1.0/../../..\libmsvcrt.a(dsnos00748.o)
 .idata$7       0x00c2f7b4        0x4 c:/Dev/TDM-GCC-32/bin/../lib/gcc/mingw32/5.1.0/../../..\libmsvcrt.a(dsnos00761.o)
 .idata$7       0x00c2f7b8        0x4 c:/Dev/TDM-GCC-32/bin/../lib/gcc/mingw32/5.1.0/../../..\libmsvcrt.a(dsnos00772.o)
 .idata$7       0x00c2f7bc        0xc c:/Dev/TDM-GCC-32/bin/../lib/gcc/mingw32/5.1.0/../../..\libmsvcrt.a(dsnot.o)
                0x00c2f7bc                _libmsvcrt_a_iname
 .idata$7       0x00c2f7c8        0x4 c:/Dev/TDM-GCC-32/bin/../lib/gcc/mingw32/5.1.0/../../..\libuser32.a(daois00001.o)
 .idata$7       0x00c2f7cc        0x4 c:/Dev/TDM-GCC-32/bin/../lib/gcc/mingw32/5.1.0/../../..\libuser32.a(daois00002.o)
 .idata$7       0x00c2f7d0        0x4 c:/Dev/TDM-GCC-32/bin/../lib/gcc/mingw32/5.1.0/../../..\libuser32.a(daois00011.o)
 .idata$7       0x00c2f7d4        0x4 c:/Dev/TDM-GCC-32/bin/../lib/gcc/mingw32/5.1.0/../../..\libuser32.a(daois00024.o)
 .idata$7       0x00c2f7d8        0x4 c:/Dev/TDM-GCC-32/bin/../lib/gcc/mingw32/5.1.0/../../..\libuser32.a(daois00029.o)
 .idata$7       0x00c2f7dc        0x4 c:/Dev/TDM-GCC-32/bin/../lib/gcc/mingw32/5.1.0/../../..\libuser32.a(daois00059.o)
 .idata$7       0x00c2f7e0        0x4 c:/Dev/TDM-GCC-32/bin/../lib/gcc/mingw32/5.1.0/../../..\libuser32.a(daois00060.o)
 .idata$7       0x00c2f7e4        0x4 c:/Dev/TDM-GCC-32/bin/../lib/gcc/mingw32/5.1.0/../../..\libuser32.a(daois00075.o)
 .idata$7       0x00c2f7e8        0x4 c:/Dev/TDM-GCC-32/bin/../lib/gcc/mingw32/5.1.0/../../..\libuser32.a(daois00084.o)
 .idata$7       0x00c2f7ec        0x4 c:/Dev/TDM-GCC-32/bin/../lib/gcc/mingw32/5.1.0/../../..\libuser32.a(daois00090.o)
 .idata$7       0x00c2f7f0        0x4 c:/Dev/TDM-GCC-32/bin/../lib/gcc/mingw32/5.1.0/../../..\libuser32.a(daois00134.o)
 .idata$7       0x00c2f7f4        0x4 c:/Dev/TDM-GCC-32/bin/../lib/gcc/mingw32/5.1.0/../../..\libuser32.a(daois00141.o)
 .idata$7       0x00c2f7f8        0x4 c:/Dev/TDM-GCC-32/bin/../lib/gcc/mingw32/5.1.0/../../..\libuser32.a(daois00142.o)
 .idata$7       0x00c2f7fc        0x4 c:/Dev/TDM-GCC-32/bin/../lib/gcc/mingw32/5.1.0/../../..\libuser32.a(daois00144.o)
 .idata$7       0x00c2f800        0x4 c:/Dev/TDM-GCC-32/bin/../lib/gcc/mingw32/5.1.0/../../..\libuser32.a(daois00149.o)
 .idata$7       0x00c2f804        0x4 c:/Dev/TDM-GCC-32/bin/../lib/gcc/mingw32/5.1.0/../../..\libuser32.a(daois00184.o)
 .idata$7       0x00c2f808        0x4 c:/Dev/TDM-GCC-32/bin/../lib/gcc/mingw32/5.1.0/../../..\libuser32.a(daois00194.o)
 .idata$7       0x00c2f80c        0x4 c:/Dev/TDM-GCC-32/bin/../lib/gcc/mingw32/5.1.0/../../..\libuser32.a(daois00227.o)
 .idata$7       0x00c2f810        0x4 c:/Dev/TDM-GCC-32/bin/../lib/gcc/mingw32/5.1.0/../../..\libuser32.a(daois00236.o)
 .idata$7       0x00c2f814        0x4 c:/Dev/TDM-GCC-32/bin/../lib/gcc/mingw32/5.1.0/../../..\libuser32.a(daois00245.o)
 .idata$7       0x00c2f818        0x4 c:/Dev/TDM-GCC-32/bin/../lib/gcc/mingw32/5.1.0/../../..\libuser32.a(daois00247.o)
 .idata$7       0x00c2f81c        0x4 c:/Dev/TDM-GCC-32/bin/../lib/gcc/mingw32/5.1.0/../../..\libuser32.a(daois00248.o)
 .idata$7       0x00c2f820        0x4 c:/Dev/TDM-GCC-32/bin/../lib/gcc/mingw32/5.1.0/../../..\libuser32.a(daois00268.o)
 .idata$7       0x00c2f824        0x4 c:/Dev/TDM-GCC-32/bin/../lib/gcc/mingw32/5.1.0/../../..\libuser32.a(daois00269.o)
 .idata$7       0x00c2f828        0x4 c:/Dev/TDM-GCC-32/bin/../lib/gcc/mingw32/5.1.0/../../..\libuser32.a(daois00271.o)
 .idata$7       0x00c2f82c        0x4 c:/Dev/TDM-GCC-32/bin/../lib/gcc/mingw32/5.1.0/../../..\libuser32.a(daois00273.o)
 .idata$7       0x00c2f830        0x4 c:/Dev/TDM-GCC-32/bin/../lib/gcc/mingw32/5.1.0/../../..\libuser32.a(daois00279.o)
 .idata$7       0x00c2f834        0x4 c:/Dev/TDM-GCC-32/bin/../lib/gcc/mingw32/5.1.0/../../..\libuser32.a(daois00293.o)
 .idata$7       0x00c2f838        0x4 c:/Dev/TDM-GCC-32/bin/../lib/gcc/mingw32/5.1.0/../../..\libuser32.a(daois00304.o)
 .idata$7       0x00c2f83c        0x4 c:/Dev/TDM-GCC-32/bin/../lib/gcc/mingw32/5.1.0/../../..\libuser32.a(daois00326.o)
 .idata$7       0x00c2f840        0x4 c:/Dev/TDM-GCC-32/bin/../lib/gcc/mingw32/5.1.0/../../..\libuser32.a(daois00342.o)
 .idata$7       0x00c2f844        0x4 c:/Dev/TDM-GCC-32/bin/../lib/gcc/mingw32/5.1.0/../../..\libuser32.a(daois00348.o)
 .idata$7       0x00c2f848        0x4 c:/Dev/TDM-GCC-32/bin/../lib/gcc/mingw32/5.1.0/../../..\libuser32.a(daois00370.o)
 .idata$7       0x00c2f84c        0x4 c:/Dev/TDM-GCC-32/bin/../lib/gcc/mingw32/5.1.0/../../..\libuser32.a(daois00398.o)
 .idata$7       0x00c2f850        0x4 c:/Dev/TDM-GCC-32/bin/../lib/gcc/mingw32/5.1.0/../../..\libuser32.a(daois00400.o)
 .idata$7       0x00c2f854        0x4 c:/Dev/TDM-GCC-32/bin/../lib/gcc/mingw32/5.1.0/../../..\libuser32.a(daois00411.o)
 .idata$7       0x00c2f858        0x4 c:/Dev/TDM-GCC-32/bin/../lib/gcc/mingw32/5.1.0/../../..\libuser32.a(daois00413.o)
 .idata$7       0x00c2f85c        0x4 c:/Dev/TDM-GCC-32/bin/../lib/gcc/mingw32/5.1.0/../../..\libuser32.a(daois00428.o)
 .idata$7       0x00c2f860        0x4 c:/Dev/TDM-GCC-32/bin/../lib/gcc/mingw32/5.1.0/../../..\libuser32.a(daois00431.o)
 .idata$7       0x00c2f864        0x4 c:/Dev/TDM-GCC-32/bin/../lib/gcc/mingw32/5.1.0/../../..\libuser32.a(daois00464.o)
 .idata$7       0x00c2f868        0x4 c:/Dev/TDM-GCC-32/bin/../lib/gcc/mingw32/5.1.0/../../..\libuser32.a(daois00466.o)
 .idata$7       0x00c2f86c        0x4 c:/Dev/TDM-GCC-32/bin/../lib/gcc/mingw32/5.1.0/../../..\libuser32.a(daois00468.o)
 .idata$7       0x00c2f870        0x4 c:/Dev/TDM-GCC-32/bin/../lib/gcc/mingw32/5.1.0/../../..\libuser32.a(daois00474.o)
 .idata$7       0x00c2f874        0x4 c:/Dev/TDM-GCC-32/bin/../lib/gcc/mingw32/5.1.0/../../..\libuser32.a(daois00479.o)
 .idata$7       0x00c2f878        0x4 c:/Dev/TDM-GCC-32/bin/../lib/gcc/mingw32/5.1.0/../../..\libuser32.a(daois00493.o)
 .idata$7       0x00c2f87c        0x4 c:/Dev/TDM-GCC-32/bin/../lib/gcc/mingw32/5.1.0/../../..\libuser32.a(daois00494.o)
 .idata$7       0x00c2f880        0x4 c:/Dev/TDM-GCC-32/bin/../lib/gcc/mingw32/5.1.0/../../..\libuser32.a(daois00500.o)
 .idata$7       0x00c2f884        0x4 c:/Dev/TDM-GCC-32/bin/../lib/gcc/mingw32/5.1.0/../../..\libuser32.a(daois00517.o)
 .idata$7       0x00c2f888        0x4 c:/Dev/TDM-GCC-32/bin/../lib/gcc/mingw32/5.1.0/../../..\libuser32.a(daois00520.o)
 .idata$7       0x00c2f88c        0x4 c:/Dev/TDM-GCC-32/bin/../lib/gcc/mingw32/5.1.0/../../..\libuser32.a(daois00525.o)
 .idata$7       0x00c2f890        0x4 c:/Dev/TDM-GCC-32/bin/../lib/gcc/mingw32/5.1.0/../../..\libuser32.a(daois00526.o)
 .idata$7       0x00c2f894        0x4 c:/Dev/TDM-GCC-32/bin/../lib/gcc/mingw32/5.1.0/../../..\libuser32.a(daois00533.o)
 .idata$7       0x00c2f898        0x4 c:/Dev/TDM-GCC-32/bin/../lib/gcc/mingw32/5.1.0/../../..\libuser32.a(daois00534.o)
 .idata$7       0x00c2f89c        0x4 c:/Dev/TDM-GCC-32/bin/../lib/gcc/mingw32/5.1.0/../../..\libuser32.a(daois00563.o)
 .idata$7       0x00c2f8a0        0x4 c:/Dev/TDM-GCC-32/bin/../lib/gcc/mingw32/5.1.0/../../..\libuser32.a(daois00569.o)
 .idata$7       0x00c2f8a4        0x4 c:/Dev/TDM-GCC-32/bin/../lib/gcc/mingw32/5.1.0/../../..\libuser32.a(daois00572.o)
 .idata$7       0x00c2f8a8        0x4 c:/Dev/TDM-GCC-32/bin/../lib/gcc/mingw32/5.1.0/../../..\libuser32.a(daois00574.o)
 .idata$7       0x00c2f8ac        0x4 c:/Dev/TDM-GCC-32/bin/../lib/gcc/mingw32/5.1.0/../../..\libuser32.a(daois00575.o)
 .idata$7       0x00c2f8b0        0x4 c:/Dev/TDM-GCC-32/bin/../lib/gcc/mingw32/5.1.0/../../..\libuser32.a(daois00585.o)
 .idata$7       0x00c2f8b4        0x4 c:/Dev/TDM-GCC-32/bin/../lib/gcc/mingw32/5.1.0/../../..\libuser32.a(daois00598.o)
 .idata$7       0x00c2f8b8        0x4 c:/Dev/TDM-GCC-32/bin/../lib/gcc/mingw32/5.1.0/../../..\libuser32.a(daois00599.o)
 .idata$7       0x00c2f8bc        0x4 c:/Dev/TDM-GCC-32/bin/../lib/gcc/mingw32/5.1.0/../../..\libuser32.a(daois00608.o)
 .idata$7       0x00c2f8c0        0x4 c:/Dev/TDM-GCC-32/bin/../lib/gcc/mingw32/5.1.0/../../..\libuser32.a(daois00615.o)
 .idata$7       0x00c2f8c4        0x4 c:/Dev/TDM-GCC-32/bin/../lib/gcc/mingw32/5.1.0/../../..\libuser32.a(daois00635.o)
 .idata$7       0x00c2f8c8        0xc c:/Dev/TDM-GCC-32/bin/../lib/gcc/mingw32/5.1.0/../../..\libuser32.a(daoit.o)
                0x00c2f8c8                _libuser32_a_iname
 .idata$7       0x00c2f8d4        0x4 c:/Dev/TDM-GCC-32/bin/../lib/gcc/mingw32/5.1.0/../../..\libwinmm.a(dopcs00023.o)
 .idata$7       0x00c2f8d8        0x4 c:/Dev/TDM-GCC-32/bin/../lib/gcc/mingw32/5.1.0/../../..\libwinmm.a(dopcs00025.o)
 .idata$7       0x00c2f8dc        0x4 c:/Dev/TDM-GCC-32/bin/../lib/gcc/mingw32/5.1.0/../../..\libwinmm.a(dopcs00027.o)
 .idata$7       0x00c2f8e0        0x4 c:/Dev/TDM-GCC-32/bin/../lib/gcc/mingw32/5.1.0/../../..\libwinmm.a(dopcs00043.o)
 .idata$7       0x00c2f8e4        0x4 c:/Dev/TDM-GCC-32/bin/../lib/gcc/mingw32/5.1.0/../../..\libwinmm.a(dopcs00047.o)
 .idata$7       0x00c2f8e8        0x4 c:/Dev/TDM-GCC-32/bin/../lib/gcc/mingw32/5.1.0/../../..\libwinmm.a(dopcs00144.o)
 .idata$7       0x00c2f8ec        0x4 c:/Dev/TDM-GCC-32/bin/../lib/gcc/mingw32/5.1.0/../../..\libwinmm.a(dopcs00145.o)
 .idata$7       0x00c2f8f0        0x4 c:/Dev/TDM-GCC-32/bin/../lib/gcc/mingw32/5.1.0/../../..\libwinmm.a(dopcs00148.o)
 .idata$7       0x00c2f8f4        0x4 c:/Dev/TDM-GCC-32/bin/../lib/gcc/mingw32/5.1.0/../../..\libwinmm.a(dopcs00149.o)
 .idata$7       0x00c2f8f8        0x4 c:/Dev/TDM-GCC-32/bin/../lib/gcc/mingw32/5.1.0/../../..\libwinmm.a(dopcs00150.o)
 .idata$7       0x00c2f8fc        0x4 c:/Dev/TDM-GCC-32/bin/../lib/gcc/mingw32/5.1.0/../../..\libwinmm.a(dopcs00168.o)
 .idata$7       0x00c2f900        0x4 c:/Dev/TDM-GCC-32/bin/../lib/gcc/mingw32/5.1.0/../../..\libwinmm.a(dopcs00171.o)
 .idata$7       0x00c2f904        0x4 c:/Dev/TDM-GCC-32/bin/../lib/gcc/mingw32/5.1.0/../../..\libwinmm.a(dopcs00180.o)
 .idata$7       0x00c2f908        0x4 c:/Dev/TDM-GCC-32/bin/../lib/gcc/mingw32/5.1.0/../../..\libwinmm.a(dopcs00182.o)
 .idata$7       0x00c2f90c        0x4 c:/Dev/TDM-GCC-32/bin/../lib/gcc/mingw32/5.1.0/../../..\libwinmm.a(dopcs00188.o)
 .idata$7       0x00c2f910        0x4 c:/Dev/TDM-GCC-32/bin/../lib/gcc/mingw32/5.1.0/../../..\libwinmm.a(dopcs00189.o)
 .idata$7       0x00c2f914        0xc c:/Dev/TDM-GCC-32/bin/../lib/gcc/mingw32/5.1.0/../../..\libwinmm.a(dopct.o)
                0x00c2f914                _libwinmm_a_iname

.CRT            0x00c30000      0x200
                0x00c30000                ___crt_xc_start__ = .
 *(SORT(.CRT$XC*))
                0x00c30000                ___crt_xc_end__ = .
                0x00c30000                ___crt_xi_start__ = .
 *(SORT(.CRT$XI*))
                0x00c30000                ___crt_xi_end__ = .
                0x00c30000                ___crt_xl_start__ = .
 *(SORT(.CRT$XL*))
 .CRT$XLA       0x00c30000        0x4 c:/Dev/TDM-GCC-32/bin/../lib/gcc/mingw32/5.1.0/../../..\libmingw32.a(tlssup.o)
                0x00c30000                __xl_a
 .CRT$XLC       0x00c30004        0x4 c:/Dev/TDM-GCC-32/bin/../lib/gcc/mingw32/5.1.0/../../..\libmingw32.a(tlssup.o)
                0x00c30004                __xl_c
 .CRT$XLD       0x00c30008        0x4 c:/Dev/TDM-GCC-32/bin/../lib/gcc/mingw32/5.1.0/../../..\libmingw32.a(tlssup.o)
                0x00c30008                __xl_d
 .CRT$XLZ       0x00c3000c        0x4 c:/Dev/TDM-GCC-32/bin/../lib/gcc/mingw32/5.1.0/../../..\libmingw32.a(tlssup.o)
                0x00c3000c                __xl_z
                0x00c30010                ___crt_xp_start__ = .
 *(SORT(.CRT$XP*))
                0x00c30010                ___crt_xp_end__ = .
                0x00c30010                ___crt_xt_start__ = .
 *(SORT(.CRT$XT*))
                0x00c30010                ___crt_xt_end__ = .
 .CRT$XDA       0x00c30010        0x4 c:/Dev/TDM-GCC-32/bin/../lib/gcc/mingw32/5.1.0/../../..\libmingw32.a(tlssup.o)
 .CRT$XDZ       0x00c30014        0x4 c:/Dev/TDM-GCC-32/bin/../lib/gcc/mingw32/5.1.0/../../..\libmingw32.a(tlssup.o)

.tls            0x00c31000      0x200
                0x00c31000                ___tls_start__ = .
 *(.tls$AAA)
 .tls$AAA       0x00c31000        0x4 c:/Dev/TDM-GCC-32/bin/../lib/gcc/mingw32/5.1.0/../../..\libmingw32.a(tlssup.o)
                0x00c31000                _tls_start
 *(.tls)
 .tls           0x00c31004       0x18 c:/Dev/TDM-GCC-32/bin/../lib/gcc/mingw32/5.1.0/../../..\libmingw32.a(tlssup.o)
                0x00c31004                _tls_used
 *(.tls$)
 *(SORT(.tls$*))
 .tls$ZZZ       0x00c3101c        0x4 c:/Dev/TDM-GCC-32/bin/../lib/gcc/mingw32/5.1.0/../../..\libmingw32.a(tlssup.o)
                0x00c3101c                _tls_end
 *(.tls$ZZZ)
                0x00c31020                ___tls_end__ = .

.endjunk        0x00c32000        0x0
                0x00c32000                PROVIDE (end, .)
                0x00c32000                PROVIDE (_end, .)
                0x00c32000                __end__ = .

.rsrc           0x00c32000     0x1a00
 *(.rsrc)
 .rsrc          0x00c32000     0x1858 obj/icon.o
 *(SORT(.rsrc$*))

.reloc          0x00c34000    0x15800
 *(.reloc)
 .reloc         0x00c34000    0x1563c dll stuff

.stab
 *(.stab)

.stabstr
 *(.stabstr)

.debug_aranges  0x00c4a000      0x800
 *(.debug_aranges)
 .debug_aranges
                0x00c4a000       0x20 C:/Dev/msys/local/lib\libSDL.a(SDL_audio.o)
 .debug_aranges
                0x00c4a020       0x20 C:/Dev/msys/local/lib\libSDL.a(SDL_syssem.o)
 .debug_aranges
                0x00c4a040       0x20 C:/Dev/msys/local/lib\libSDL.a(SDL_sysevents.o)
 .debug_aranges
                0x00c4a060       0x20 C:/Dev/msys/local/lib\libSDL.a(SDL_events.o)
 .debug_aranges
                0x00c4a080       0x20 C:/Dev/msys/local/lib\libSDL.a(SDL_video.o)
 .debug_aranges
                0x00c4a0a0       0x20 C:/Dev/msys/local/lib\libSDL.a(SDL.o)
 .debug_aranges
                0x00c4a0c0       0x20 C:/Dev/msys/local/lib\libSDL.a(SDL_error.o)
 .debug_aranges
                0x00c4a0e0       0x20 C:/Dev/msys/local/lib\libSDL.a(SDL_systimer.o)
 .debug_aranges
                0x00c4a100       0x20 C:/Dev/msys/local/lib\libSDL.a(SDL_timer.o)
 .debug_aranges
                0x00c4a120       0x20 C:/Dev/msys/local/lib\libSDL.a(SDL_dibaudio.o)
 .debug_aranges
                0x00c4a140       0x20 C:/Dev/msys/local/lib\libSDL.a(SDL_diskaudio.o)
 .debug_aranges
                0x00c4a160       0x20 C:/Dev/msys/local/lib\libSDL.a(SDL_dummyaudio.o)
 .debug_aranges
                0x00c4a180       0x20 C:/Dev/msys/local/lib\libSDL.a(SDL_systhread.o)
 .debug_aranges
                0x00c4a1a0       0x20 C:/Dev/msys/local/lib\libSDL.a(SDL_sysmutex.o)
 .debug_aranges
                0x00c4a1c0       0x20 C:/Dev/msys/local/lib\libSDL.a(SDL_audiocvt.o)
 .debug_aranges
                0x00c4a1e0       0x20 C:/Dev/msys/local/lib\libSDL.a(SDL_string.o)
 .debug_aranges
                0x00c4a200       0x20 C:/Dev/msys/local/lib\libSDL.a(SDL_thread.o)
 .debug_aranges
                0x00c4a220       0x20 C:/Dev/msys/local/lib\libSDL.a(SDL_getenv.o)
 .debug_aranges
                0x00c4a240       0x20 C:/Dev/msys/local/lib\libSDL.a(SDL_sysmouse.o)
 .debug_aranges
                0x00c4a260       0x20 C:/Dev/msys/local/lib\libSDL.a(SDL_active.o)
 .debug_aranges
                0x00c4a280       0x20 C:/Dev/msys/local/lib\libSDL.a(SDL_dibvideo.o)
 .debug_aranges
                0x00c4a2a0       0x20 C:/Dev/msys/local/lib\libSDL.a(SDL_expose.o)
 .debug_aranges
                0x00c4a2c0       0x20 C:/Dev/msys/local/lib\libSDL.a(SDL_quit.o)
 .debug_aranges
                0x00c4a2e0       0x20 C:/Dev/msys/local/lib\libSDL.a(SDL_mouse.o)
 .debug_aranges
                0x00c4a300       0x20 C:/Dev/msys/local/lib\libSDL.a(SDL_resize.o)
 .debug_aranges
                0x00c4a320       0x20 C:/Dev/msys/local/lib\libSDL.a(SDL_syswm.o)
 .debug_aranges
                0x00c4a340       0x20 C:/Dev/msys/local/lib\libSDL.a(SDL_iconv.o)
 .debug_aranges
                0x00c4a360       0x20 C:/Dev/msys/local/lib\libSDL.a(SDL_joystick.o)
 .debug_aranges
                0x00c4a380       0x20 C:/Dev/msys/local/lib\libSDL.a(SDL_keyboard.o)
 .debug_aranges
                0x00c4a3a0       0x20 C:/Dev/msys/local/lib\libSDL.a(SDL_cursor.o)
 .debug_aranges
                0x00c4a3c0       0x20 C:/Dev/msys/local/lib\libSDL.a(SDL_nullvideo.o)
 .debug_aranges
                0x00c4a3e0       0x20 C:/Dev/msys/local/lib\libSDL.a(SDL_surface.o)
 .debug_aranges
                0x00c4a400       0x20 C:/Dev/msys/local/lib\libSDL.a(SDL_pixels.o)
 .debug_aranges
                0x00c4a420       0x20 C:/Dev/msys/local/lib\libSDL.a(SDL_cdrom.o)
 .debug_aranges
                0x00c4a440       0x20 C:/Dev/msys/local/lib\libSDL.a(SDL_fatal.o)
 .debug_aranges
                0x00c4a460       0x20 C:/Dev/msys/local/lib\libSDL.a(SDL_rwops.o)
 .debug_aranges
                0x00c4a480       0x20 C:/Dev/msys/local/lib\libSDL.a(SDL_wingl.o)
 .debug_aranges
                0x00c4a4a0       0x20 C:/Dev/msys/local/lib\libSDL.a(SDL_dibevents.o)
 .debug_aranges
                0x00c4a4c0       0x20 C:/Dev/msys/local/lib\libSDL.a(SDL_mmjoystick.o)
 .debug_aranges
                0x00c4a4e0       0x20 C:/Dev/msys/local/lib\libSDL.a(SDL_nullevents.o)
 .debug_aranges
                0x00c4a500       0x20 C:/Dev/msys/local/lib\libSDL.a(SDL_RLEaccel.o)
 .debug_aranges
                0x00c4a520       0x20 C:/Dev/msys/local/lib\libSDL.a(SDL_blit.o)
 .debug_aranges
                0x00c4a540       0x20 C:/Dev/msys/local/lib\libSDL.a(SDL_syscdrom.o)
 .debug_aranges
                0x00c4a560       0x20 C:/Dev/msys/local/lib\libSDL.a(SDL_cpuinfo.o)
 .debug_aranges
                0x00c4a580       0x20 C:/Dev/msys/local/lib\libSDL.a(SDL_blit_N.o)
 .debug_aranges
                0x00c4a5a0       0x20 C:/Dev/msys/local/lib\libSDL.a(SDL_blit_0.o)
 .debug_aranges
                0x00c4a5c0       0x20 C:/Dev/msys/local/lib\libSDL.a(SDL_blit_1.o)
 .debug_aranges
                0x00c4a5e0       0x20 C:/Dev/msys/local/lib\libSDL.a(SDL_blit_A.o)
 .debug_aranges
                0x00c4a600       0x20 c:/Dev/TDM-GCC-32/bin/../lib/gcc/mingw32/5.1.0\libgcc.a(_chkstk_ms.o)
 .debug_aranges
                0x00c4a620       0x20 c:/Dev/TDM-GCC-32/bin/../lib/gcc/mingw32/5.1.0\libgcc.a(_divdi3.o)
 .debug_aranges
                0x00c4a640       0x18 c:/Dev/TDM-GCC-32/bin/../lib/gcc/mingw32/5.1.0\libgcc.a(_ctors.o)
 .debug_aranges
                0x00c4a658       0x20 c:/Dev/TDM-GCC-32/bin/../lib/gcc/mingw32/5.1.0\libgcc.a(_udivdi3.o)
 .debug_aranges
                0x00c4a678       0x20 c:/Dev/TDM-GCC-32/bin/../lib/gcc/mingw32/5.1.0\libgcc.a(_umoddi3.o)

.zdebug_aranges
 *(.zdebug_aranges)

.debug_pubnames
 *(.debug_pubnames)

.zdebug_pubnames
 *(.zdebug_pubnames)

.debug_pubtypes
 *(.debug_pubtypes)

.zdebug_pubtypes
 *(.zdebug_pubtypes)

.debug_info     0x00c4b000    0x5f000
 *(.debug_info .gnu.linkonce.wi.*)
 .debug_info    0x00c4b000     0x179f C:/Dev/msys/local/lib\libSDL.a(SDL_audio.o)
 .debug_info    0x00c4c79f      0x964 C:/Dev/msys/local/lib\libSDL.a(SDL_syssem.o)
 .debug_info    0x00c4d103     0x45b0 C:/Dev/msys/local/lib\libSDL.a(SDL_sysevents.o)
 .debug_info    0x00c516b3     0x3e17 C:/Dev/msys/local/lib\libSDL.a(SDL_events.o)
 .debug_info    0x00c554ca     0x5317 C:/Dev/msys/local/lib\libSDL.a(SDL_video.o)
 .debug_info    0x00c5a7e1      0x821 C:/Dev/msys/local/lib\libSDL.a(SDL.o)
 .debug_info    0x00c5b002      0x725 C:/Dev/msys/local/lib\libSDL.a(SDL_error.o)
 .debug_info    0x00c5b727      0x8df C:/Dev/msys/local/lib\libSDL.a(SDL_systimer.o)
 .debug_info    0x00c5c006      0xa5d C:/Dev/msys/local/lib\libSDL.a(SDL_timer.o)
 .debug_info    0x00c5ca63     0x156b C:/Dev/msys/local/lib\libSDL.a(SDL_dibaudio.o)
 .debug_info    0x00c5dfce      0xfb1 C:/Dev/msys/local/lib\libSDL.a(SDL_diskaudio.o)
 .debug_info    0x00c5ef7f      0xb82 C:/Dev/msys/local/lib\libSDL.a(SDL_dummyaudio.o)
 .debug_info    0x00c5fb01      0x997 C:/Dev/msys/local/lib\libSDL.a(SDL_systhread.o)
 .debug_info    0x00c60498      0x6cb C:/Dev/msys/local/lib\libSDL.a(SDL_sysmutex.o)
 .debug_info    0x00c60b63     0x13c3 C:/Dev/msys/local/lib\libSDL.a(SDL_audiocvt.o)
 .debug_info    0x00c61f26      0x3bd C:/Dev/msys/local/lib\libSDL.a(SDL_string.o)
 .debug_info    0x00c622e3      0xd7c C:/Dev/msys/local/lib\libSDL.a(SDL_thread.o)
 .debug_info    0x00c6305f      0x575 C:/Dev/msys/local/lib\libSDL.a(SDL_getenv.o)
 .debug_info    0x00c635d4     0x27d0 C:/Dev/msys/local/lib\libSDL.a(SDL_sysmouse.o)
 .debug_info    0x00c65da4     0x18c0 C:/Dev/msys/local/lib\libSDL.a(SDL_active.o)
 .debug_info    0x00c67664     0x59af C:/Dev/msys/local/lib\libSDL.a(SDL_dibvideo.o)
 .debug_info    0x00c6d013     0x1a56 C:/Dev/msys/local/lib\libSDL.a(SDL_expose.o)
 .debug_info    0x00c6ea69     0x19d0 C:/Dev/msys/local/lib\libSDL.a(SDL_quit.o)
 .debug_info    0x00c70439     0x32ea C:/Dev/msys/local/lib\libSDL.a(SDL_mouse.o)
 .debug_info    0x00c73723     0x31ef C:/Dev/msys/local/lib\libSDL.a(SDL_resize.o)
 .debug_info    0x00c76912     0x2f11 C:/Dev/msys/local/lib\libSDL.a(SDL_syswm.o)
 .debug_info    0x00c79823      0xdbb C:/Dev/msys/local/lib\libSDL.a(SDL_iconv.o)
 .debug_info    0x00c7a5de     0x28f6 C:/Dev/msys/local/lib\libSDL.a(SDL_joystick.o)
 .debug_info    0x00c7ced4     0x3472 C:/Dev/msys/local/lib\libSDL.a(SDL_keyboard.o)
 .debug_info    0x00c80346     0x308c C:/Dev/msys/local/lib\libSDL.a(SDL_cursor.o)
 .debug_info    0x00c833d2     0x24a6 C:/Dev/msys/local/lib\libSDL.a(SDL_nullvideo.o)
 .debug_info    0x00c85878     0x315f C:/Dev/msys/local/lib\libSDL.a(SDL_surface.o)
 .debug_info    0x00c889d7     0x1676 C:/Dev/msys/local/lib\libSDL.a(SDL_pixels.o)
 .debug_info    0x00c8a04d      0xd6d C:/Dev/msys/local/lib\libSDL.a(SDL_cdrom.o)
 .debug_info    0x00c8adba      0x44b C:/Dev/msys/local/lib\libSDL.a(SDL_fatal.o)
 .debug_info    0x00c8b205     0x2381 C:/Dev/msys/local/lib\libSDL.a(SDL_rwops.o)
 .debug_info    0x00c8d586     0x310f C:/Dev/msys/local/lib\libSDL.a(SDL_wingl.o)
 .debug_info    0x00c90695     0x41c4 C:/Dev/msys/local/lib\libSDL.a(SDL_dibevents.o)
 .debug_info    0x00c94859     0x167e C:/Dev/msys/local/lib\libSDL.a(SDL_mmjoystick.o)
 .debug_info    0x00c95ed7     0x19f6 C:/Dev/msys/local/lib\libSDL.a(SDL_nullevents.o)
 .debug_info    0x00c978cd     0x4767 C:/Dev/msys/local/lib\libSDL.a(SDL_RLEaccel.o)
 .debug_info    0x00c9c034     0x2368 C:/Dev/msys/local/lib\libSDL.a(SDL_blit.o)
 .debug_info    0x00c9e39c     0x123c C:/Dev/msys/local/lib\libSDL.a(SDL_syscdrom.o)
 .debug_info    0x00c9f5d8      0xa2d C:/Dev/msys/local/lib\libSDL.a(SDL_cpuinfo.o)
 .debug_info    0x00ca0005     0x2945 C:/Dev/msys/local/lib\libSDL.a(SDL_blit_N.o)
 .debug_info    0x00ca294a     0x131f C:/Dev/msys/local/lib\libSDL.a(SDL_blit_0.o)
 .debug_info    0x00ca3c69     0x1649 C:/Dev/msys/local/lib\libSDL.a(SDL_blit_1.o)
 .debug_info    0x00ca52b2     0x2e88 C:/Dev/msys/local/lib\libSDL.a(SDL_blit_A.o)
 .debug_info    0x00ca813a       0x94 c:/Dev/TDM-GCC-32/bin/../lib/gcc/mingw32/5.1.0\libgcc.a(_chkstk_ms.o)
 .debug_info    0x00ca81ce      0x58d c:/Dev/TDM-GCC-32/bin/../lib/gcc/mingw32/5.1.0\libgcc.a(_divdi3.o)
 .debug_info    0x00ca875b      0xdc5 c:/Dev/TDM-GCC-32/bin/../lib/gcc/mingw32/5.1.0\libgcc.a(_ctors.o)
 .debug_info    0x00ca9520      0x554 c:/Dev/TDM-GCC-32/bin/../lib/gcc/mingw32/5.1.0\libgcc.a(_udivdi3.o)
 .debug_info    0x00ca9a74      0x565 c:/Dev/TDM-GCC-32/bin/../lib/gcc/mingw32/5.1.0\libgcc.a(_umoddi3.o)

.zdebug_info
 *(.zdebug_info .zdebug.gnu.linkonce.wi.*)

.debug_abbrev   0x00caa000     0x9c00
 *(.debug_abbrev)
 .debug_abbrev  0x00caa000      0x46a C:/Dev/msys/local/lib\libSDL.a(SDL_audio.o)
 .debug_abbrev  0x00caa46a      0x1ce C:/Dev/msys/local/lib\libSDL.a(SDL_syssem.o)
 .debug_abbrev  0x00caa638      0x533 C:/Dev/msys/local/lib\libSDL.a(SDL_sysevents.o)
 .debug_abbrev  0x00caab6b      0x53d C:/Dev/msys/local/lib\libSDL.a(SDL_events.o)
 .debug_abbrev  0x00cab0a8      0x5ac C:/Dev/msys/local/lib\libSDL.a(SDL_video.o)
 .debug_abbrev  0x00cab654      0x1c2 C:/Dev/msys/local/lib\libSDL.a(SDL.o)
 .debug_abbrev  0x00cab816      0x24e C:/Dev/msys/local/lib\libSDL.a(SDL_error.o)
 .debug_abbrev  0x00caba64      0x263 C:/Dev/msys/local/lib\libSDL.a(SDL_systimer.o)
 .debug_abbrev  0x00cabcc7      0x279 C:/Dev/msys/local/lib\libSDL.a(SDL_timer.o)
 .debug_abbrev  0x00cabf40      0x2ae C:/Dev/msys/local/lib\libSDL.a(SDL_dibaudio.o)
 .debug_abbrev  0x00cac1ee      0x30d C:/Dev/msys/local/lib\libSDL.a(SDL_diskaudio.o)
 .debug_abbrev  0x00cac4fb      0x22f C:/Dev/msys/local/lib\libSDL.a(SDL_dummyaudio.o)
 .debug_abbrev  0x00cac72a      0x300 C:/Dev/msys/local/lib\libSDL.a(SDL_systhread.o)
 .debug_abbrev  0x00caca2a      0x1e3 C:/Dev/msys/local/lib\libSDL.a(SDL_sysmutex.o)
 .debug_abbrev  0x00cacc0d      0x1ec C:/Dev/msys/local/lib\libSDL.a(SDL_audiocvt.o)
 .debug_abbrev  0x00cacdf9      0x11f C:/Dev/msys/local/lib\libSDL.a(SDL_string.o)
 .debug_abbrev  0x00cacf18      0x3a2 C:/Dev/msys/local/lib\libSDL.a(SDL_thread.o)
 .debug_abbrev  0x00cad2ba      0x16f C:/Dev/msys/local/lib\libSDL.a(SDL_getenv.o)
 .debug_abbrev  0x00cad429      0x36b C:/Dev/msys/local/lib\libSDL.a(SDL_sysmouse.o)
 .debug_abbrev  0x00cad794      0x21d C:/Dev/msys/local/lib\libSDL.a(SDL_active.o)
 .debug_abbrev  0x00cad9b1      0x63e C:/Dev/msys/local/lib\libSDL.a(SDL_dibvideo.o)
 .debug_abbrev  0x00cadfef      0x1cd C:/Dev/msys/local/lib\libSDL.a(SDL_expose.o)
 .debug_abbrev  0x00cae1bc      0x284 C:/Dev/msys/local/lib\libSDL.a(SDL_quit.o)
 .debug_abbrev  0x00cae440      0x325 C:/Dev/msys/local/lib\libSDL.a(SDL_mouse.o)
 .debug_abbrev  0x00cae765      0x2a5 C:/Dev/msys/local/lib\libSDL.a(SDL_resize.o)
 .debug_abbrev  0x00caea0a      0x37e C:/Dev/msys/local/lib\libSDL.a(SDL_syswm.o)
 .debug_abbrev  0x00caed88      0x318 C:/Dev/msys/local/lib\libSDL.a(SDL_iconv.o)
 .debug_abbrev  0x00caf0a0      0x432 C:/Dev/msys/local/lib\libSDL.a(SDL_joystick.o)
 .debug_abbrev  0x00caf4d2      0x42c C:/Dev/msys/local/lib\libSDL.a(SDL_keyboard.o)
 .debug_abbrev  0x00caf8fe      0x4cc C:/Dev/msys/local/lib\libSDL.a(SDL_cursor.o)
 .debug_abbrev  0x00cafdca      0x338 C:/Dev/msys/local/lib\libSDL.a(SDL_nullvideo.o)
 .debug_abbrev  0x00cb0102      0x46c C:/Dev/msys/local/lib\libSDL.a(SDL_surface.o)
 .debug_abbrev  0x00cb056e      0x3fd C:/Dev/msys/local/lib\libSDL.a(SDL_pixels.o)
 .debug_abbrev  0x00cb096b      0x389 C:/Dev/msys/local/lib\libSDL.a(SDL_cdrom.o)
 .debug_abbrev  0x00cb0cf4      0x176 C:/Dev/msys/local/lib\libSDL.a(SDL_fatal.o)
 .debug_abbrev  0x00cb0e6a      0x473 C:/Dev/msys/local/lib\libSDL.a(SDL_rwops.o)
 .debug_abbrev  0x00cb12dd      0x4b0 C:/Dev/msys/local/lib\libSDL.a(SDL_wingl.o)
 .debug_abbrev  0x00cb178d      0x49c C:/Dev/msys/local/lib\libSDL.a(SDL_dibevents.o)
 .debug_abbrev  0x00cb1c29      0x34a C:/Dev/msys/local/lib\libSDL.a(SDL_mmjoystick.o)
 .debug_abbrev  0x00cb1f73      0x1ba C:/Dev/msys/local/lib\libSDL.a(SDL_nullevents.o)
 .debug_abbrev  0x00cb212d      0x386 C:/Dev/msys/local/lib\libSDL.a(SDL_RLEaccel.o)
 .debug_abbrev  0x00cb24b3      0x380 C:/Dev/msys/local/lib\libSDL.a(SDL_blit.o)
 .debug_abbrev  0x00cb2833      0x3ac C:/Dev/msys/local/lib\libSDL.a(SDL_syscdrom.o)
 .debug_abbrev  0x00cb2bdf      0x171 C:/Dev/msys/local/lib\libSDL.a(SDL_cpuinfo.o)
 .debug_abbrev  0x00cb2d50      0x276 C:/Dev/msys/local/lib\libSDL.a(SDL_blit_N.o)
 .debug_abbrev  0x00cb2fc6      0x1e7 C:/Dev/msys/local/lib\libSDL.a(SDL_blit_0.o)
 .debug_abbrev  0x00cb31ad      0x1eb C:/Dev/msys/local/lib\libSDL.a(SDL_blit_1.o)
 .debug_abbrev  0x00cb3398      0x28e C:/Dev/msys/local/lib\libSDL.a(SDL_blit_A.o)
 .debug_abbrev  0x00cb3626       0x14 c:/Dev/TDM-GCC-32/bin/../lib/gcc/mingw32/5.1.0\libgcc.a(_chkstk_ms.o)
 .debug_abbrev  0x00cb363a      0x162 c:/Dev/TDM-GCC-32/bin/../lib/gcc/mingw32/5.1.0\libgcc.a(_divdi3.o)
 .debug_abbrev  0x00cb379c       0xa9 c:/Dev/TDM-GCC-32/bin/../lib/gcc/mingw32/5.1.0\libgcc.a(_ctors.o)
 .debug_abbrev  0x00cb3845      0x15c c:/Dev/TDM-GCC-32/bin/../lib/gcc/mingw32/5.1.0\libgcc.a(_udivdi3.o)
 .debug_abbrev  0x00cb39a1      0x153 c:/Dev/TDM-GCC-32/bin/../lib/gcc/mingw32/5.1.0\libgcc.a(_umoddi3.o)

.zdebug_abbrev
 *(.zdebug_abbrev)

.debug_line     0x00cb4000     0xd800
 *(.debug_line)
 .debug_line    0x00cb4000      0x3c7 C:/Dev/msys/local/lib\libSDL.a(SDL_audio.o)
 .debug_line    0x00cb43c7      0x192 C:/Dev/msys/local/lib\libSDL.a(SDL_syssem.o)
 .debug_line    0x00cb4559      0x638 C:/Dev/msys/local/lib\libSDL.a(SDL_sysevents.o)
 .debug_line    0x00cb4b91      0x429 C:/Dev/msys/local/lib\libSDL.a(SDL_events.o)
 .debug_line    0x00cb4fba      0xb04 C:/Dev/msys/local/lib\libSDL.a(SDL_video.o)
 .debug_line    0x00cb5abe      0x19a C:/Dev/msys/local/lib\libSDL.a(SDL.o)
 .debug_line    0x00cb5c58      0x1bd C:/Dev/msys/local/lib\libSDL.a(SDL_error.o)
 .debug_line    0x00cb5e15      0x16b C:/Dev/msys/local/lib\libSDL.a(SDL_systimer.o)
 .debug_line    0x00cb5f80      0x20e C:/Dev/msys/local/lib\libSDL.a(SDL_timer.o)
 .debug_line    0x00cb618e      0x2ea C:/Dev/msys/local/lib\libSDL.a(SDL_dibaudio.o)
 .debug_line    0x00cb6478      0x29b C:/Dev/msys/local/lib\libSDL.a(SDL_diskaudio.o)
 .debug_line    0x00cb6713      0x22c C:/Dev/msys/local/lib\libSDL.a(SDL_dummyaudio.o)
 .debug_line    0x00cb693f      0x1fc C:/Dev/msys/local/lib\libSDL.a(SDL_systhread.o)
 .debug_line    0x00cb6b3b      0x14d C:/Dev/msys/local/lib\libSDL.a(SDL_sysmutex.o)
 .debug_line    0x00cb6c88     0x156b C:/Dev/msys/local/lib\libSDL.a(SDL_audiocvt.o)
 .debug_line    0x00cb81f3       0xe7 C:/Dev/msys/local/lib\libSDL.a(SDL_string.o)
 .debug_line    0x00cb82da      0x264 C:/Dev/msys/local/lib\libSDL.a(SDL_thread.o)
 .debug_line    0x00cb853e      0x140 C:/Dev/msys/local/lib\libSDL.a(SDL_getenv.o)
 .debug_line    0x00cb867e      0x34d C:/Dev/msys/local/lib\libSDL.a(SDL_sysmouse.o)
 .debug_line    0x00cb89cb      0x130 C:/Dev/msys/local/lib\libSDL.a(SDL_active.o)
 .debug_line    0x00cb8afb      0x862 C:/Dev/msys/local/lib\libSDL.a(SDL_dibvideo.o)
 .debug_line    0x00cb935d      0x10c C:/Dev/msys/local/lib\libSDL.a(SDL_expose.o)
 .debug_line    0x00cb9469      0x12c C:/Dev/msys/local/lib\libSDL.a(SDL_quit.o)
 .debug_line    0x00cb9595      0x29b C:/Dev/msys/local/lib\libSDL.a(SDL_mouse.o)
 .debug_line    0x00cb9830      0x1b0 C:/Dev/msys/local/lib\libSDL.a(SDL_resize.o)
 .debug_line    0x00cb99e0      0x3b0 C:/Dev/msys/local/lib\libSDL.a(SDL_syswm.o)
 .debug_line    0x00cb9d90      0x4a6 C:/Dev/msys/local/lib\libSDL.a(SDL_iconv.o)
 .debug_line    0x00cba236      0x449 C:/Dev/msys/local/lib\libSDL.a(SDL_joystick.o)
 .debug_line    0x00cba67f      0x41d C:/Dev/msys/local/lib\libSDL.a(SDL_keyboard.o)
 .debug_line    0x00cbaa9c      0x5e0 C:/Dev/msys/local/lib\libSDL.a(SDL_cursor.o)
 .debug_line    0x00cbb07c      0x292 C:/Dev/msys/local/lib\libSDL.a(SDL_nullvideo.o)
 .debug_line    0x00cbb30e      0x621 C:/Dev/msys/local/lib\libSDL.a(SDL_surface.o)
 .debug_line    0x00cbb92f      0x4f2 C:/Dev/msys/local/lib\libSDL.a(SDL_pixels.o)
 .debug_line    0x00cbbe21      0x232 C:/Dev/msys/local/lib\libSDL.a(SDL_cdrom.o)
 .debug_line    0x00cbc053       0xbc C:/Dev/msys/local/lib\libSDL.a(SDL_fatal.o)
 .debug_line    0x00cbc10f      0x498 C:/Dev/msys/local/lib\libSDL.a(SDL_rwops.o)
 .debug_line    0x00cbc5a7      0x4a9 C:/Dev/msys/local/lib\libSDL.a(SDL_wingl.o)
 .debug_line    0x00cbca50      0x4ea C:/Dev/msys/local/lib\libSDL.a(SDL_dibevents.o)
 .debug_line    0x00cbcf3a      0x336 C:/Dev/msys/local/lib\libSDL.a(SDL_mmjoystick.o)
 .debug_line    0x00cbd270      0x161 C:/Dev/msys/local/lib\libSDL.a(SDL_nullevents.o)
 .debug_line    0x00cbd3d1      0xa2d C:/Dev/msys/local/lib\libSDL.a(SDL_RLEaccel.o)
 .debug_line    0x00cbddfe      0x38a C:/Dev/msys/local/lib\libSDL.a(SDL_blit.o)
 .debug_line    0x00cbe188      0x2fd C:/Dev/msys/local/lib\libSDL.a(SDL_syscdrom.o)
 .debug_line    0x00cbe485      0x172 C:/Dev/msys/local/lib\libSDL.a(SDL_cpuinfo.o)
 .debug_line    0x00cbe5f7     0x1237 C:/Dev/msys/local/lib\libSDL.a(SDL_blit_N.o)
 .debug_line    0x00cbf82e      0x476 C:/Dev/msys/local/lib\libSDL.a(SDL_blit_0.o)
 .debug_line    0x00cbfca4      0x8bc C:/Dev/msys/local/lib\libSDL.a(SDL_blit_1.o)
 .debug_line    0x00cc0560      0xdcc C:/Dev/msys/local/lib\libSDL.a(SDL_blit_A.o)
 .debug_line    0x00cc132c       0x77 c:/Dev/TDM-GCC-32/bin/../lib/gcc/mingw32/5.1.0\libgcc.a(_chkstk_ms.o)
 .debug_line    0x00cc13a3       0xfc c:/Dev/TDM-GCC-32/bin/../lib/gcc/mingw32/5.1.0\libgcc.a(_divdi3.o)
 .debug_line    0x00cc149f       0xd1 c:/Dev/TDM-GCC-32/bin/../lib/gcc/mingw32/5.1.0\libgcc.a(_ctors.o)
 .debug_line    0x00cc1570      0x106 c:/Dev/TDM-GCC-32/bin/../lib/gcc/mingw32/5.1.0\libgcc.a(_udivdi3.o)
 .debug_line    0x00cc1676      0x12b c:/Dev/TDM-GCC-32/bin/../lib/gcc/mingw32/5.1.0\libgcc.a(_umoddi3.o)

.zdebug_line
 *(.zdebug_line)

.debug_frame    0x00cc2000     0x6a00
 *(.debug_frame*)
 .debug_frame   0x00cc2000      0x238 C:/Dev/msys/local/lib\libSDL.a(SDL_audio.o)
 .debug_frame   0x00cc2238      0x154 C:/Dev/msys/local/lib\libSDL.a(SDL_syssem.o)
 .debug_frame   0x00cc238c      0x330 C:/Dev/msys/local/lib\libSDL.a(SDL_sysevents.o)
 .debug_frame   0x00cc26bc      0x214 C:/Dev/msys/local/lib\libSDL.a(SDL_events.o)
 .debug_frame   0x00cc28d0      0x764 C:/Dev/msys/local/lib\libSDL.a(SDL_video.o)
 .debug_frame   0x00cc3034       0xd8 C:/Dev/msys/local/lib\libSDL.a(SDL.o)
 .debug_frame   0x00cc310c       0xd4 C:/Dev/msys/local/lib\libSDL.a(SDL_error.o)
 .debug_frame   0x00cc31e0      0x108 C:/Dev/msys/local/lib\libSDL.a(SDL_systimer.o)
 .debug_frame   0x00cc32e8      0x180 C:/Dev/msys/local/lib\libSDL.a(SDL_timer.o)
 .debug_frame   0x00cc3468      0x208 C:/Dev/msys/local/lib\libSDL.a(SDL_dibaudio.o)
 .debug_frame   0x00cc3670      0x16c C:/Dev/msys/local/lib\libSDL.a(SDL_diskaudio.o)
 .debug_frame   0x00cc37dc      0x128 C:/Dev/msys/local/lib\libSDL.a(SDL_dummyaudio.o)
 .debug_frame   0x00cc3904       0xc0 C:/Dev/msys/local/lib\libSDL.a(SDL_systhread.o)
 .debug_frame   0x00cc39c4       0xb8 C:/Dev/msys/local/lib\libSDL.a(SDL_sysmutex.o)
 .debug_frame   0x00cc3a7c      0x6ac C:/Dev/msys/local/lib\libSDL.a(SDL_audiocvt.o)
 .debug_frame   0x00cc4128       0x84 C:/Dev/msys/local/lib\libSDL.a(SDL_string.o)
 .debug_frame   0x00cc41ac      0x178 C:/Dev/msys/local/lib\libSDL.a(SDL_thread.o)
 .debug_frame   0x00cc4324       0x94 C:/Dev/msys/local/lib\libSDL.a(SDL_getenv.o)
 .debug_frame   0x00cc43b8      0x194 C:/Dev/msys/local/lib\libSDL.a(SDL_sysmouse.o)
 .debug_frame   0x00cc454c       0xa0 C:/Dev/msys/local/lib\libSDL.a(SDL_active.o)
 .debug_frame   0x00cc45ec      0x79c C:/Dev/msys/local/lib\libSDL.a(SDL_dibvideo.o)
 .debug_frame   0x00cc4d88       0x4c C:/Dev/msys/local/lib\libSDL.a(SDL_expose.o)
 .debug_frame   0x00cc4dd4       0x90 C:/Dev/msys/local/lib\libSDL.a(SDL_quit.o)
 .debug_frame   0x00cc4e64      0x140 C:/Dev/msys/local/lib\libSDL.a(SDL_mouse.o)
 .debug_frame   0x00cc4fa4       0x44 C:/Dev/msys/local/lib\libSDL.a(SDL_resize.o)
 .debug_frame   0x00cc4fe8      0x144 C:/Dev/msys/local/lib\libSDL.a(SDL_syswm.o)
 .debug_frame   0x00cc512c      0x170 C:/Dev/msys/local/lib\libSDL.a(SDL_iconv.o)
 .debug_frame   0x00cc529c      0x3d8 C:/Dev/msys/local/lib\libSDL.a(SDL_joystick.o)
 .debug_frame   0x00cc5674      0x160 C:/Dev/msys/local/lib\libSDL.a(SDL_keyboard.o)
 .debug_frame   0x00cc57d4      0x334 C:/Dev/msys/local/lib\libSDL.a(SDL_cursor.o)
 .debug_frame   0x00cc5b08      0x184 C:/Dev/msys/local/lib\libSDL.a(SDL_nullvideo.o)
 .debug_frame   0x00cc5c8c      0x3d4 C:/Dev/msys/local/lib\libSDL.a(SDL_surface.o)
 .debug_frame   0x00cc6060      0x3c4 C:/Dev/msys/local/lib\libSDL.a(SDL_pixels.o)
 .debug_frame   0x00cc6424      0x244 C:/Dev/msys/local/lib\libSDL.a(SDL_cdrom.o)
 .debug_frame   0x00cc6668       0x64 C:/Dev/msys/local/lib\libSDL.a(SDL_fatal.o)
 .debug_frame   0x00cc66cc      0x52c C:/Dev/msys/local/lib\libSDL.a(SDL_rwops.o)
 .debug_frame   0x00cc6bf8      0x308 C:/Dev/msys/local/lib\libSDL.a(SDL_wingl.o)
 .debug_frame   0x00cc6f00      0x250 C:/Dev/msys/local/lib\libSDL.a(SDL_dibevents.o)
 .debug_frame   0x00cc7150      0x1b0 C:/Dev/msys/local/lib\libSDL.a(SDL_mmjoystick.o)
 .debug_frame   0x00cc7300       0x34 C:/Dev/msys/local/lib\libSDL.a(SDL_nullevents.o)
 .debug_frame   0x00cc7334      0x2f4 C:/Dev/msys/local/lib\libSDL.a(SDL_RLEaccel.o)
 .debug_frame   0x00cc7628      0x154 C:/Dev/msys/local/lib\libSDL.a(SDL_blit.o)
 .debug_frame   0x00cc777c      0x22c C:/Dev/msys/local/lib\libSDL.a(SDL_syscdrom.o)
 .debug_frame   0x00cc79a8       0xb0 C:/Dev/msys/local/lib\libSDL.a(SDL_cpuinfo.o)
 .debug_frame   0x00cc7a58      0x3d4 C:/Dev/msys/local/lib\libSDL.a(SDL_blit_N.o)
 .debug_frame   0x00cc7e2c      0x2ac C:/Dev/msys/local/lib\libSDL.a(SDL_blit_0.o)
 .debug_frame   0x00cc80d8      0x28c C:/Dev/msys/local/lib\libSDL.a(SDL_blit_1.o)
 .debug_frame   0x00cc8364      0x3c8 C:/Dev/msys/local/lib\libSDL.a(SDL_blit_A.o)
 .debug_frame   0x00cc872c       0x38 c:/Dev/TDM-GCC-32/bin/../lib/gcc/mingw32/5.1.0\libgcc.a(_chkstk_ms.o)
 .debug_frame   0x00cc8764       0x54 c:/Dev/TDM-GCC-32/bin/../lib/gcc/mingw32/5.1.0\libgcc.a(_divdi3.o)
 .debug_frame   0x00cc87b8       0x98 c:/Dev/TDM-GCC-32/bin/../lib/gcc/mingw32/5.1.0\libgcc.a(_udivdi3.o)
 .debug_frame   0x00cc8850       0x94 c:/Dev/TDM-GCC-32/bin/../lib/gcc/mingw32/5.1.0\libgcc.a(_umoddi3.o)

.zdebug_frame
 *(.zdebug_frame*)

.debug_str      0x00cc9000     0x1c00
 *(.debug_str)
 .debug_str     0x00cc9000       0x5c C:/Dev/msys/local/lib\libSDL.a(SDL_audio.o)
 .debug_str     0x00cc905c        0x0 C:/Dev/msys/local/lib\libSDL.a(SDL_syssem.o)
 .debug_str     0x00cc905c       0x98 C:/Dev/msys/local/lib\libSDL.a(SDL_sysevents.o)
 .debug_str     0x00cc90f4      0x1c3 C:/Dev/msys/local/lib\libSDL.a(SDL_events.o)
 .debug_str     0x00cc92b7      0x15b C:/Dev/msys/local/lib\libSDL.a(SDL_video.o)
 .debug_str     0x00cc9412       0x12 C:/Dev/msys/local/lib\libSDL.a(SDL.o)
 .debug_str     0x00cc9424       0x10 C:/Dev/msys/local/lib\libSDL.a(SDL_error.o)
 .debug_str     0x00cc9434        0x9 C:/Dev/msys/local/lib\libSDL.a(SDL_systimer.o)
 .debug_str     0x00cc943d       0x29 C:/Dev/msys/local/lib\libSDL.a(SDL_timer.o)
 .debug_str     0x00cc9466       0x54 C:/Dev/msys/local/lib\libSDL.a(SDL_dibaudio.o)
 .debug_str     0x00cc94ba       0x5e C:/Dev/msys/local/lib\libSDL.a(SDL_diskaudio.o)
 .debug_str     0x00cc9518       0x54 C:/Dev/msys/local/lib\libSDL.a(SDL_dummyaudio.o)
 .debug_str     0x00cc956c       0x46 C:/Dev/msys/local/lib\libSDL.a(SDL_systhread.o)
 .debug_str     0x00cc95b2       0x10 C:/Dev/msys/local/lib\libSDL.a(SDL_sysmutex.o)
 .debug_str     0x00cc95c2       0x44 C:/Dev/msys/local/lib\libSDL.a(SDL_audiocvt.o)
 .debug_str     0x00cc9606        0x0 C:/Dev/msys/local/lib\libSDL.a(SDL_string.o)
 .debug_str     0x00cc9606       0x26 C:/Dev/msys/local/lib\libSDL.a(SDL_thread.o)
 .debug_str     0x00cc962c        0xa C:/Dev/msys/local/lib\libSDL.a(SDL_getenv.o)
 .debug_str     0x00cc9636       0x88 C:/Dev/msys/local/lib\libSDL.a(SDL_sysmouse.o)
 .debug_str     0x00cc96be      0x116 C:/Dev/msys/local/lib\libSDL.a(SDL_active.o)
 .debug_str     0x00cc97d4       0xf4 C:/Dev/msys/local/lib\libSDL.a(SDL_dibvideo.o)
 .debug_str     0x00cc98c8      0x116 C:/Dev/msys/local/lib\libSDL.a(SDL_expose.o)
 .debug_str     0x00cc99de      0x11f C:/Dev/msys/local/lib\libSDL.a(SDL_quit.o)
 .debug_str     0x00cc9afd      0x19e C:/Dev/msys/local/lib\libSDL.a(SDL_mouse.o)
 .debug_str     0x00cc9c9b      0x192 C:/Dev/msys/local/lib\libSDL.a(SDL_resize.o)
 .debug_str     0x00cc9e2d       0xa0 C:/Dev/msys/local/lib\libSDL.a(SDL_syswm.o)
 .debug_str     0x00cc9ecd       0x22 C:/Dev/msys/local/lib\libSDL.a(SDL_iconv.o)
 .debug_str     0x00cc9eef      0x13f C:/Dev/msys/local/lib\libSDL.a(SDL_joystick.o)
 .debug_str     0x00cca02e      0x1ab C:/Dev/msys/local/lib\libSDL.a(SDL_keyboard.o)
 .debug_str     0x00cca1d9       0xe0 C:/Dev/msys/local/lib\libSDL.a(SDL_cursor.o)
 .debug_str     0x00cca2b9       0xb7 C:/Dev/msys/local/lib\libSDL.a(SDL_nullvideo.o)
 .debug_str     0x00cca370       0xd2 C:/Dev/msys/local/lib\libSDL.a(SDL_surface.o)
 .debug_str     0x00cca442       0x87 C:/Dev/msys/local/lib\libSDL.a(SDL_pixels.o)
 .debug_str     0x00cca4c9       0x27 C:/Dev/msys/local/lib\libSDL.a(SDL_cdrom.o)
 .debug_str     0x00cca4f0        0x9 C:/Dev/msys/local/lib\libSDL.a(SDL_fatal.o)
 .debug_str     0x00cca4f9       0x4e C:/Dev/msys/local/lib\libSDL.a(SDL_rwops.o)
 .debug_str     0x00cca547       0xa5 C:/Dev/msys/local/lib\libSDL.a(SDL_wingl.o)
 .debug_str     0x00cca5ec       0xe2 C:/Dev/msys/local/lib\libSDL.a(SDL_dibevents.o)
 .debug_str     0x00cca6ce       0x22 C:/Dev/msys/local/lib\libSDL.a(SDL_mmjoystick.o)
 .debug_str     0x00cca6f0       0x7c C:/Dev/msys/local/lib\libSDL.a(SDL_nullevents.o)
 .debug_str     0x00cca76c       0xf3 C:/Dev/msys/local/lib\libSDL.a(SDL_RLEaccel.o)
 .debug_str     0x00cca85f       0xa0 C:/Dev/msys/local/lib\libSDL.a(SDL_blit.o)
 .debug_str     0x00cca8ff       0x3d C:/Dev/msys/local/lib\libSDL.a(SDL_syscdrom.o)
 .debug_str     0x00cca93c        0x9 C:/Dev/msys/local/lib\libSDL.a(SDL_cpuinfo.o)
 .debug_str     0x00cca945       0xa5 C:/Dev/msys/local/lib\libSDL.a(SDL_blit_N.o)
 .debug_str     0x00cca9ea       0x87 C:/Dev/msys/local/lib\libSDL.a(SDL_blit_0.o)
 .debug_str     0x00ccaa71       0x8f C:/Dev/msys/local/lib\libSDL.a(SDL_blit_1.o)
 .debug_str     0x00ccab00       0xb5 C:/Dev/msys/local/lib\libSDL.a(SDL_blit_A.o)
 .debug_str     0x00ccabb5        0x0 c:/Dev/TDM-GCC-32/bin/../lib/gcc/mingw32/5.1.0\libgcc.a(_divdi3.o)
 .debug_str     0x00ccabb5        0x0 c:/Dev/TDM-GCC-32/bin/../lib/gcc/mingw32/5.1.0\libgcc.a(_ctors.o)
 .debug_str     0x00ccabb5        0x0 c:/Dev/TDM-GCC-32/bin/../lib/gcc/mingw32/5.1.0\libgcc.a(_udivdi3.o)
 .debug_str     0x00ccabb5        0x0 c:/Dev/TDM-GCC-32/bin/../lib/gcc/mingw32/5.1.0\libgcc.a(_umoddi3.o)

.zdebug_str
 *(.zdebug_str)

.debug_loc      0x00ccb000    0x30800
 *(.debug_loc)
 .debug_loc     0x00ccb000      0x49c C:/Dev/msys/local/lib\libSDL.a(SDL_audio.o)
 .debug_loc     0x00ccb49c       0xa3 C:/Dev/msys/local/lib\libSDL.a(SDL_syssem.o)
 .debug_loc     0x00ccb53f      0x5da C:/Dev/msys/local/lib\libSDL.a(SDL_sysevents.o)
 .debug_loc     0x00ccbb19      0x4af C:/Dev/msys/local/lib\libSDL.a(SDL_events.o)
 .debug_loc     0x00ccbfc8     0x215f C:/Dev/msys/local/lib\libSDL.a(SDL_video.o)
 .debug_loc     0x00cce127       0x65 C:/Dev/msys/local/lib\libSDL.a(SDL.o)
 .debug_loc     0x00cce18c      0x3c1 C:/Dev/msys/local/lib\libSDL.a(SDL_error.o)
 .debug_loc     0x00cce54d       0x6f C:/Dev/msys/local/lib\libSDL.a(SDL_systimer.o)
 .debug_loc     0x00cce5bc      0x42a C:/Dev/msys/local/lib\libSDL.a(SDL_timer.o)
 .debug_loc     0x00cce9e6      0x1be C:/Dev/msys/local/lib\libSDL.a(SDL_dibaudio.o)
 .debug_loc     0x00cceba4       0xa2 C:/Dev/msys/local/lib\libSDL.a(SDL_diskaudio.o)
 .debug_loc     0x00ccec46       0x83 C:/Dev/msys/local/lib\libSDL.a(SDL_dummyaudio.o)
 .debug_loc     0x00ccecc9       0x5c C:/Dev/msys/local/lib\libSDL.a(SDL_systhread.o)
 .debug_loc     0x00cced25       0x62 C:/Dev/msys/local/lib\libSDL.a(SDL_sysmutex.o)
 .debug_loc     0x00cced87     0x294a C:/Dev/msys/local/lib\libSDL.a(SDL_audiocvt.o)
 .debug_loc     0x00cd16d1       0x4f C:/Dev/msys/local/lib\libSDL.a(SDL_string.o)
 .debug_loc     0x00cd1720      0x348 C:/Dev/msys/local/lib\libSDL.a(SDL_thread.o)
 .debug_loc     0x00cd1a68       0x84 C:/Dev/msys/local/lib\libSDL.a(SDL_getenv.o)
 .debug_loc     0x00cd1aec      0x5de C:/Dev/msys/local/lib\libSDL.a(SDL_sysmouse.o)
 .debug_loc     0x00cd20ca       0x9b C:/Dev/msys/local/lib\libSDL.a(SDL_active.o)
 .debug_loc     0x00cd2165     0x13f9 C:/Dev/msys/local/lib\libSDL.a(SDL_dibvideo.o)
 .debug_loc     0x00cd355e       0x58 C:/Dev/msys/local/lib\libSDL.a(SDL_expose.o)
 .debug_loc     0x00cd35b6       0x5b C:/Dev/msys/local/lib\libSDL.a(SDL_quit.o)
 .debug_loc     0x00cd3611      0x200 C:/Dev/msys/local/lib\libSDL.a(SDL_mouse.o)
 .debug_loc     0x00cd3811       0x2c C:/Dev/msys/local/lib\libSDL.a(SDL_resize.o)
 .debug_loc     0x00cd383d      0x4e9 C:/Dev/msys/local/lib\libSDL.a(SDL_syswm.o)
 .debug_loc     0x00cd3d26     0x1040 C:/Dev/msys/local/lib\libSDL.a(SDL_iconv.o)
 .debug_loc     0x00cd4d66      0x572 C:/Dev/msys/local/lib\libSDL.a(SDL_joystick.o)
 .debug_loc     0x00cd52d8      0x403 C:/Dev/msys/local/lib\libSDL.a(SDL_keyboard.o)
 .debug_loc     0x00cd56db     0x1215 C:/Dev/msys/local/lib\libSDL.a(SDL_cursor.o)
 .debug_loc     0x00cd68f0       0x3c C:/Dev/msys/local/lib\libSDL.a(SDL_nullvideo.o)
 .debug_loc     0x00cd692c     0x1014 C:/Dev/msys/local/lib\libSDL.a(SDL_surface.o)
 .debug_loc     0x00cd7940     0x1775 C:/Dev/msys/local/lib\libSDL.a(SDL_pixels.o)
 .debug_loc     0x00cd90b5      0x596 C:/Dev/msys/local/lib\libSDL.a(SDL_cdrom.o)
 .debug_loc     0x00cd964b       0x7c C:/Dev/msys/local/lib\libSDL.a(SDL_fatal.o)
 .debug_loc     0x00cd96c7      0x8bb C:/Dev/msys/local/lib\libSDL.a(SDL_rwops.o)
 .debug_loc     0x00cd9f82      0x637 C:/Dev/msys/local/lib\libSDL.a(SDL_wingl.o)
 .debug_loc     0x00cda5b9      0x4a4 C:/Dev/msys/local/lib\libSDL.a(SDL_dibevents.o)
 .debug_loc     0x00cdaa5d      0x4d0 C:/Dev/msys/local/lib\libSDL.a(SDL_mmjoystick.o)
 .debug_loc     0x00cdaf2d     0xbaad C:/Dev/msys/local/lib\libSDL.a(SDL_RLEaccel.o)
 .debug_loc     0x00ce69da      0x62b C:/Dev/msys/local/lib\libSDL.a(SDL_blit.o)
 .debug_loc     0x00ce7005      0x35a C:/Dev/msys/local/lib\libSDL.a(SDL_syscdrom.o)
 .debug_loc     0x00ce735f     0x7068 C:/Dev/msys/local/lib\libSDL.a(SDL_blit_N.o)
 .debug_loc     0x00cee3c7     0x1cfa C:/Dev/msys/local/lib\libSDL.a(SDL_blit_0.o)
 .debug_loc     0x00cf00c1     0x2d07 C:/Dev/msys/local/lib\libSDL.a(SDL_blit_1.o)
 .debug_loc     0x00cf2dc8     0x78aa C:/Dev/msys/local/lib\libSDL.a(SDL_blit_A.o)
 .debug_loc     0x00cfa672      0x318 c:/Dev/TDM-GCC-32/bin/../lib/gcc/mingw32/5.1.0\libgcc.a(_divdi3.o)
 .debug_loc     0x00cfa98a      0x5c8 c:/Dev/TDM-GCC-32/bin/../lib/gcc/mingw32/5.1.0\libgcc.a(_udivdi3.o)
 .debug_loc     0x00cfaf52      0x6be c:/Dev/TDM-GCC-32/bin/../lib/gcc/mingw32/5.1.0\libgcc.a(_umoddi3.o)

.zdebug_loc
 *(.zdebug_loc)

.debug_macinfo
 *(.debug_macinfo)

.zdebug_macinfo
 *(.zdebug_macinfo)

.debug_weaknames
 *(.debug_weaknames)

.zdebug_weaknames
 *(.zdebug_weaknames)

.debug_funcnames
 *(.debug_funcnames)

.zdebug_funcnames
 *(.zdebug_funcnames)

.debug_typenames
 *(.debug_typenames)

.zdebug_typenames
 *(.zdebug_typenames)

.debug_varnames
 *(.debug_varnames)

.zdebug_varnames
 *(.zdebug_varnames)

.debug_macro
 *(.debug_macro)

.zdebug_macro
 *(.zdebug_macro)

.debug_ranges   0x00cfc000     0x3200
 *(.debug_ranges)
 .debug_ranges  0x00cfc000       0xa0 C:/Dev/msys/local/lib\libSDL.a(SDL_audio.o)
 .debug_ranges  0x00cfc0a0      0x118 C:/Dev/msys/local/lib\libSDL.a(SDL_sysevents.o)
 .debug_ranges  0x00cfc1b8       0xe8 C:/Dev/msys/local/lib\libSDL.a(SDL_events.o)
 .debug_ranges  0x00cfc2a0      0x1e0 C:/Dev/msys/local/lib\libSDL.a(SDL_video.o)
 .debug_ranges  0x00cfc480       0x58 C:/Dev/msys/local/lib\libSDL.a(SDL_error.o)
 .debug_ranges  0x00cfc4d8       0x20 C:/Dev/msys/local/lib\libSDL.a(SDL_timer.o)
 .debug_ranges  0x00cfc4f8       0x30 C:/Dev/msys/local/lib\libSDL.a(SDL_diskaudio.o)
 .debug_ranges  0x00cfc528       0x20 C:/Dev/msys/local/lib\libSDL.a(SDL_systhread.o)
 .debug_ranges  0x00cfc548      0x158 C:/Dev/msys/local/lib\libSDL.a(SDL_audiocvt.o)
 .debug_ranges  0x00cfc6a0       0x18 C:/Dev/msys/local/lib\libSDL.a(SDL_string.o)
 .debug_ranges  0x00cfc6b8       0x58 C:/Dev/msys/local/lib\libSDL.a(SDL_thread.o)
 .debug_ranges  0x00cfc710       0x18 C:/Dev/msys/local/lib\libSDL.a(SDL_sysmouse.o)
 .debug_ranges  0x00cfc728      0x138 C:/Dev/msys/local/lib\libSDL.a(SDL_dibvideo.o)
 .debug_ranges  0x00cfc860       0x18 C:/Dev/msys/local/lib\libSDL.a(SDL_quit.o)
 .debug_ranges  0x00cfc878      0x188 C:/Dev/msys/local/lib\libSDL.a(SDL_iconv.o)
 .debug_ranges  0x00cfca00      0x160 C:/Dev/msys/local/lib\libSDL.a(SDL_joystick.o)
 .debug_ranges  0x00cfcb60       0x18 C:/Dev/msys/local/lib\libSDL.a(SDL_keyboard.o)
 .debug_ranges  0x00cfcb78       0xf0 C:/Dev/msys/local/lib\libSDL.a(SDL_cursor.o)
 .debug_ranges  0x00cfcc68      0x128 C:/Dev/msys/local/lib\libSDL.a(SDL_surface.o)
 .debug_ranges  0x00cfcd90       0x98 C:/Dev/msys/local/lib\libSDL.a(SDL_pixels.o)
 .debug_ranges  0x00cfce28       0x60 C:/Dev/msys/local/lib\libSDL.a(SDL_cdrom.o)
 .debug_ranges  0x00cfce88      0x108 C:/Dev/msys/local/lib\libSDL.a(SDL_rwops.o)
 .debug_ranges  0x00cfcf90       0xd8 C:/Dev/msys/local/lib\libSDL.a(SDL_wingl.o)
 .debug_ranges  0x00cfd068       0xc8 C:/Dev/msys/local/lib\libSDL.a(SDL_dibevents.o)
 .debug_ranges  0x00cfd130       0x40 C:/Dev/msys/local/lib\libSDL.a(SDL_mmjoystick.o)
 .debug_ranges  0x00cfd170      0xc78 C:/Dev/msys/local/lib\libSDL.a(SDL_RLEaccel.o)
 .debug_ranges  0x00cfdde8       0x68 C:/Dev/msys/local/lib\libSDL.a(SDL_blit.o)
 .debug_ranges  0x00cfde50       0x38 C:/Dev/msys/local/lib\libSDL.a(SDL_syscdrom.o)
 .debug_ranges  0x00cfde88      0x4f0 C:/Dev/msys/local/lib\libSDL.a(SDL_blit_N.o)
 .debug_ranges  0x00cfe378      0x1a8 C:/Dev/msys/local/lib\libSDL.a(SDL_blit_0.o)
 .debug_ranges  0x00cfe520      0x1d8 C:/Dev/msys/local/lib\libSDL.a(SDL_blit_1.o)
 .debug_ranges  0x00cfe6f8      0x910 C:/Dev/msys/local/lib\libSDL.a(SDL_blit_A.o)
 .debug_ranges  0x00cff008       0x28 c:/Dev/TDM-GCC-32/bin/../lib/gcc/mingw32/5.1.0\libgcc.a(_divdi3.o)
 .debug_ranges  0x00cff030       0x58 c:/Dev/TDM-GCC-32/bin/../lib/gcc/mingw32/5.1.0\libgcc.a(_udivdi3.o)
 .debug_ranges  0x00cff088       0x70 c:/Dev/TDM-GCC-32/bin/../lib/gcc/mingw32/5.1.0\libgcc.a(_umoddi3.o)

.zdebug_ranges
 *(.zdebug_ranges)

.debug_types
 *(.debug_types .gnu.linkonce.wt.*)

.zdebug_types
 *(.zdebug_types .gnu.linkonce.wt.*)
OUTPUT(genpp.exe pei-i386)
LOAD dll stuff
